Archive member included to satisfy reference by file (symbol)

c:/program files/microchip/xc32/v4.10/bin/bin/../../lib/gcc/pic32c/8.3.1/../../../../pic32c/lib/thumb/v7e-m+fp/hard\libpic32c.a(data_init.o)
                              build/FreeRTOS/production/_ext/161576091/startup_xc32.o (__pic32c_data_initialization)
c:/program files/microchip/xc32/v4.10/bin/bin/../../lib/gcc/pic32c/8.3.1/../../../../pic32c/lib/thumb/v7e-m+fp/hard\libm-emfloat.a(floatasmops_arm.o)
                              build/FreeRTOS/production/_ext/540595297/iperf.o (__aeabi_dadd)
c:/program files/microchip/xc32/v4.10/bin/bin/../../lib/gcc/pic32c/8.3.1/../../../../pic32c/lib/thumb/v7e-m+fp/hard\libc-musl.a(isalnum.o)
                              build/FreeRTOS/production/_ext/540595297/dhcp.o (isalnum)
c:/program files/microchip/xc32/v4.10/bin/bin/../../lib/gcc/pic32c/8.3.1/../../../../pic32c/lib/thumb/v7e-m+fp/hard\libc-musl.a(isxdigit.o)
                              build/FreeRTOS/production/_ext/540595297/tcpip_helpers.o (isxdigit)
c:/program files/microchip/xc32/v4.10/bin/bin/../../lib/gcc/pic32c/8.3.1/../../../../pic32c/lib/thumb/v7e-m+fp/hard\libc-musl.a(tolower.o)
                              build/FreeRTOS/production/_ext/540595297/helpers.o (tolower)
c:/program files/microchip/xc32/v4.10/bin/bin/../../lib/gcc/pic32c/8.3.1/../../../../pic32c/lib/thumb/v7e-m+fp/hard\libc-musl.a(toupper.o)
                              build/FreeRTOS/production/_ext/540595297/tcpip_helpers.o (toupper)
c:/program files/microchip/xc32/v4.10/bin/bin/../../lib/gcc/pic32c/8.3.1/../../../../pic32c/lib/thumb/v7e-m+fp/hard\libc-musl.a(__libc_start_main.o)
                              build/FreeRTOS/production/_ext/161576091/startup_xc32.o (__libc_init_array)
c:/program files/microchip/xc32/v4.10/bin/bin/../../lib/gcc/pic32c/8.3.1/../../../../pic32c/lib/thumb/v7e-m+fp/hard\libc-musl.a(libc.o)
                              c:/program files/microchip/xc32/v4.10/bin/bin/../../lib/gcc/pic32c/8.3.1/../../../../pic32c/lib/thumb/v7e-m+fp/hard\libc-musl.a(__libc_start_main.o) (__progname_full)
c:/program files/microchip/xc32/v4.10/bin/bin/../../lib/gcc/pic32c/8.3.1/../../../../pic32c/lib/thumb/v7e-m+fp/hard\libc-musl.a(malloc.o)
                              build/FreeRTOS/production/_ext/1609394304/crypto.o (free)
c:/program files/microchip/xc32/v4.10/bin/bin/../../lib/gcc/pic32c/8.3.1/../../../../pic32c/lib/thumb/v7e-m+fp/hard\libc-musl.a(expand_heap.o)
                              c:/program files/microchip/xc32/v4.10/bin/bin/../../lib/gcc/pic32c/8.3.1/../../../../pic32c/lib/thumb/v7e-m+fp/hard\libc-musl.a(malloc.o) (__expand_heap)
c:/program files/microchip/xc32/v4.10/bin/bin/../../lib/gcc/pic32c/8.3.1/../../../../pic32c/lib/thumb/v7e-m+fp/hard\libc-musl.a(rand.o)
                              build/FreeRTOS/production/_ext/1664057780/random.o (srand)
c:/program files/microchip/xc32/v4.10/bin/bin/../../lib/gcc/pic32c/8.3.1/../../../../pic32c/lib/thumb/v7e-m+fp/hard\libc-musl.a(vsnprintf.o)
                              build/FreeRTOS/production/_ext/1005353002/sys_command.o (vsnprintf)
c:/program files/microchip/xc32/v4.10/bin/bin/../../lib/gcc/pic32c/8.3.1/../../../../pic32c/lib/thumb/v7e-m+fp/hard\libc-musl.a(snprintf.o)
                              (snprintf)
c:/program files/microchip/xc32/v4.10/bin/bin/../../lib/gcc/pic32c/8.3.1/../../../../pic32c/lib/thumb/v7e-m+fp/hard\libc-musl.a(sprintf.o)
                              (sprintf)
c:/program files/microchip/xc32/v4.10/bin/bin/../../lib/gcc/pic32c/8.3.1/../../../../pic32c/lib/thumb/v7e-m+fp/hard\libc-musl.a(vsprintf.o)
                              c:/program files/microchip/xc32/v4.10/bin/bin/../../lib/gcc/pic32c/8.3.1/../../../../pic32c/lib/thumb/v7e-m+fp/hard\libc-musl.a(sprintf.o) (vsprintf)
c:/program files/microchip/xc32/v4.10/bin/bin/../../lib/gcc/pic32c/8.3.1/../../../../pic32c/lib/thumb/v7e-m+fp/hard\libc-musl.a(atoi.o)
                              build/FreeRTOS/production/_ext/540595297/tcpip_commands.o (atoi)
c:/program files/microchip/xc32/v4.10/bin/bin/../../lib/gcc/pic32c/8.3.1/../../../../pic32c/lib/thumb/v7e-m+fp/hard\libc-musl.a(strtol.o)
                              build/FreeRTOS/production/_ext/1360937237/bc_test.o (strtoul)
c:/program files/microchip/xc32/v4.10/bin/bin/../../lib/gcc/pic32c/8.3.1/../../../../pic32c/lib/thumb/v7e-m+fp/hard\libc-musl.a(memcmp.o)
                              build/FreeRTOS/production/_ext/41526634/drv_gmac.o (memcmp)
c:/program files/microchip/xc32/v4.10/bin/bin/../../lib/gcc/pic32c/8.3.1/../../../../pic32c/lib/thumb/v7e-m+fp/hard\libc-musl.a(memcpy.o)
                              build/FreeRTOS/production/_ext/540595297/icmp.o (memcpy)
c:/program files/microchip/xc32/v4.10/bin/bin/../../lib/gcc/pic32c/8.3.1/../../../../pic32c/lib/thumb/v7e-m+fp/hard\libc-musl.a(memmove.o)
                              build/FreeRTOS/production/_ext/1664057780/asn.o (memmove)
c:/program files/microchip/xc32/v4.10/bin/bin/../../lib/gcc/pic32c/8.3.1/../../../../pic32c/lib/thumb/v7e-m+fp/hard\libc-musl.a(memset.o)
                              build/FreeRTOS/production/_ext/1231519722/drv_ethphy.o (memset)
c:/program files/microchip/xc32/v4.10/bin/bin/../../lib/gcc/pic32c/8.3.1/../../../../pic32c/lib/thumb/v7e-m+fp/hard\libc-musl.a(strlen.o)
                              build/FreeRTOS/production/_ext/540595297/helpers.o (strlen)
c:/program files/microchip/xc32/v4.10/bin/bin/../../lib/gcc/pic32c/8.3.1/../../../../pic32c/lib/thumb/v7e-m+fp/hard\libc-musl.a(strchr.o)
                              build/FreeRTOS/production/_ext/1005353002/sys_command.o (strchr)
c:/program files/microchip/xc32/v4.10/bin/bin/../../lib/gcc/pic32c/8.3.1/../../../../pic32c/lib/thumb/v7e-m+fp/hard\libc-musl.a(strchrnul.o)
                              c:/program files/microchip/xc32/v4.10/bin/bin/../../lib/gcc/pic32c/8.3.1/../../../../pic32c/lib/thumb/v7e-m+fp/hard\libc-musl.a(strchr.o) (__strchrnul)
c:/program files/microchip/xc32/v4.10/bin/bin/../../lib/gcc/pic32c/8.3.1/../../../../pic32c/lib/thumb/v7e-m+fp/hard\libc-musl.a(strcmp.o)
                              build/FreeRTOS/production/_ext/540595297/tcpip_commands.o (strcmp)
c:/program files/microchip/xc32/v4.10/bin/bin/../../lib/gcc/pic32c/8.3.1/../../../../pic32c/lib/thumb/v7e-m+fp/hard\libc-musl.a(strcpy.o)
                              build/FreeRTOS/production/_ext/540595297/tcpip_commands.o (strcpy)
c:/program files/microchip/xc32/v4.10/bin/bin/../../lib/gcc/pic32c/8.3.1/../../../../pic32c/lib/thumb/v7e-m+fp/hard\libc-musl.a(strncmp.o)
                              build/FreeRTOS/production/_ext/1005353002/sys_command.o (strncmp)
c:/program files/microchip/xc32/v4.10/bin/bin/../../lib/gcc/pic32c/8.3.1/../../../../pic32c/lib/thumb/v7e-m+fp/hard\libc-musl.a(strncpy.o)
                              build/FreeRTOS/production/_ext/1609394304/crypto.o (strncpy)
c:/program files/microchip/xc32/v4.10/bin/bin/../../lib/gcc/pic32c/8.3.1/../../../../pic32c/lib/thumb/v7e-m+fp/hard\libc-musl.a(strrchr.o)
                              build/FreeRTOS/production/_ext/540595297/tcpip_manager.o (strrchr)
c:/program files/microchip/xc32/v4.10/bin/bin/../../lib/gcc/pic32c/8.3.1/../../../../pic32c/lib/thumb/v7e-m+fp/hard\libc-musl.a(strtok.o)
                              build/FreeRTOS/production/_ext/1005353002/sys_command.o (strtok)
c:/program files/microchip/xc32/v4.10/bin/bin/../../lib/gcc/pic32c/8.3.1/../../../../pic32c/lib/thumb/v7e-m+fp/hard\libc-musl.a(gmtime.o)
                              build/FreeRTOS/production/_ext/1664057780/asn.o (gmtime)
c:/program files/microchip/xc32/v4.10/bin/bin/../../lib/gcc/pic32c/8.3.1/../../../../pic32c/lib/thumb/v7e-m+fp/hard\libc-musl.a(gmtime_r.o)
                              c:/program files/microchip/xc32/v4.10/bin/bin/../../lib/gcc/pic32c/8.3.1/../../../../pic32c/lib/thumb/v7e-m+fp/hard\libc-musl.a(gmtime.o) (__gmtime_r)
c:/program files/microchip/xc32/v4.10/bin/bin/../../lib/gcc/pic32c/8.3.1/../../../../pic32c/lib/thumb/v7e-m+fp/hard\libc-musl.a(time.o)
                              build/FreeRTOS/production/_ext/1664057780/asn.o (time)
c:/program files/microchip/xc32/v4.10/bin/bin/../../lib/gcc/pic32c/8.3.1/../../../../pic32c/lib/thumb/v7e-m+fp/hard\libc-musl.a(__environ.o)
                              c:/program files/microchip/xc32/v4.10/bin/bin/../../lib/gcc/pic32c/8.3.1/../../../../pic32c/lib/thumb/v7e-m+fp/hard\libc-musl.a(__libc_start_main.o) (__environ)
c:/program files/microchip/xc32/v4.10/bin/bin/../../lib/gcc/pic32c/8.3.1/../../../../pic32c/lib/thumb/v7e-m+fp/hard\libc-musl.a(__errno_location.o)
                              c:/program files/microchip/xc32/v4.10/bin/bin/../../lib/gcc/pic32c/8.3.1/../../../../pic32c/lib/thumb/v7e-m+fp/hard\libc-musl.a(malloc.o) (__errno_val)
c:/program files/microchip/xc32/v4.10/bin/bin/../../lib/gcc/pic32c/8.3.1/../../../../pic32c/lib/thumb/v7e-m+fp/hard\libc-musl.a(intscan.o)
                              c:/program files/microchip/xc32/v4.10/bin/bin/../../lib/gcc/pic32c/8.3.1/../../../../pic32c/lib/thumb/v7e-m+fp/hard\libc-musl.a(strtol.o) (__intscan)
c:/program files/microchip/xc32/v4.10/bin/bin/../../lib/gcc/pic32c/8.3.1/../../../../pic32c/lib/thumb/v7e-m+fp/hard\libc-musl.a(shgetc.o)
                              c:/program files/microchip/xc32/v4.10/bin/bin/../../lib/gcc/pic32c/8.3.1/../../../../pic32c/lib/thumb/v7e-m+fp/hard\libc-musl.a(strtol.o) (__shlim)
c:/program files/microchip/xc32/v4.10/bin/bin/../../lib/gcc/pic32c/8.3.1/../../../../pic32c/lib/thumb/v7e-m+fp/hard\libc-musl.a(__uflow.o)
                              c:/program files/microchip/xc32/v4.10/bin/bin/../../lib/gcc/pic32c/8.3.1/../../../../pic32c/lib/thumb/v7e-m+fp/hard\libc-musl.a(shgetc.o) (__uflow)
c:/program files/microchip/xc32/v4.10/bin/bin/../../lib/gcc/pic32c/8.3.1/../../../../pic32c/lib/thumb/v7e-m+fp/hard\libc-musl.a(vfprintf.o)
                              c:/program files/microchip/xc32/v4.10/bin/bin/../../lib/gcc/pic32c/8.3.1/../../../../pic32c/lib/thumb/v7e-m+fp/hard\libc-musl.a(vsnprintf.o) (vfprintf)
c:/program files/microchip/xc32/v4.10/bin/bin/../../lib/gcc/pic32c/8.3.1/../../../../pic32c/lib/thumb/v7e-m+fp/hard\libc-musl.a(memrchr.o)
                              c:/program files/microchip/xc32/v4.10/bin/bin/../../lib/gcc/pic32c/8.3.1/../../../../pic32c/lib/thumb/v7e-m+fp/hard\libc-musl.a(strrchr.o) (__memrchr)
c:/program files/microchip/xc32/v4.10/bin/bin/../../lib/gcc/pic32c/8.3.1/../../../../pic32c/lib/thumb/v7e-m+fp/hard\libc-musl.a(stpcpy.o)
                              c:/program files/microchip/xc32/v4.10/bin/bin/../../lib/gcc/pic32c/8.3.1/../../../../pic32c/lib/thumb/v7e-m+fp/hard\libc-musl.a(strcpy.o) (__stpcpy)
c:/program files/microchip/xc32/v4.10/bin/bin/../../lib/gcc/pic32c/8.3.1/../../../../pic32c/lib/thumb/v7e-m+fp/hard\libc-musl.a(stpncpy.o)
                              c:/program files/microchip/xc32/v4.10/bin/bin/../../lib/gcc/pic32c/8.3.1/../../../../pic32c/lib/thumb/v7e-m+fp/hard\libc-musl.a(strncpy.o) (__stpncpy)
c:/program files/microchip/xc32/v4.10/bin/bin/../../lib/gcc/pic32c/8.3.1/../../../../pic32c/lib/thumb/v7e-m+fp/hard\libc-musl.a(strcspn.o)
                              c:/program files/microchip/xc32/v4.10/bin/bin/../../lib/gcc/pic32c/8.3.1/../../../../pic32c/lib/thumb/v7e-m+fp/hard\libc-musl.a(strtok.o) (strcspn)
c:/program files/microchip/xc32/v4.10/bin/bin/../../lib/gcc/pic32c/8.3.1/../../../../pic32c/lib/thumb/v7e-m+fp/hard\libc-musl.a(strspn.o)
                              c:/program files/microchip/xc32/v4.10/bin/bin/../../lib/gcc/pic32c/8.3.1/../../../../pic32c/lib/thumb/v7e-m+fp/hard\libc-musl.a(strtok.o) (strspn)
c:/program files/microchip/xc32/v4.10/bin/bin/../../lib/gcc/pic32c/8.3.1/../../../../pic32c/lib/thumb/v7e-m+fp/hard\libc-musl.a(__secs_to_tm.o)
                              c:/program files/microchip/xc32/v4.10/bin/bin/../../lib/gcc/pic32c/8.3.1/../../../../pic32c/lib/thumb/v7e-m+fp/hard\libc-musl.a(gmtime_r.o) (__secs_to_tm)
c:/program files/microchip/xc32/v4.10/bin/bin/../../lib/gcc/pic32c/8.3.1/../../../../pic32c/lib/thumb/v7e-m+fp/hard\libc-musl.a(clock_gettime.o)
                              c:/program files/microchip/xc32/v4.10/bin/bin/../../lib/gcc/pic32c/8.3.1/../../../../pic32c/lib/thumb/v7e-m+fp/hard\libc-musl.a(time.o) (__clock_gettime)
c:/program files/microchip/xc32/v4.10/bin/bin/../../lib/gcc/pic32c/8.3.1/../../../../pic32c/lib/thumb/v7e-m+fp/hard\libc-musl.a(gettimeofday.o)
                              c:/program files/microchip/xc32/v4.10/bin/bin/../../lib/gcc/pic32c/8.3.1/../../../../pic32c/lib/thumb/v7e-m+fp/hard\libc-musl.a(clock_gettime.o) (gettimeofday)
c:/program files/microchip/xc32/v4.10/bin/bin/../../lib/gcc/pic32c/8.3.1/../../../../pic32c/lib/thumb/v7e-m+fp/hard\libc-musl.a(syscall_ret.o)
                              c:/program files/microchip/xc32/v4.10/bin/bin/../../lib/gcc/pic32c/8.3.1/../../../../pic32c/lib/thumb/v7e-m+fp/hard\libc-musl.a(clock_gettime.o) (__syscall_ret)
c:/program files/microchip/xc32/v4.10/bin/bin/../../lib/gcc/pic32c/8.3.1/../../../../pic32c/lib/thumb/v7e-m+fp/hard\libc-musl.a(__toread.o)
                              c:/program files/microchip/xc32/v4.10/bin/bin/../../lib/gcc/pic32c/8.3.1/../../../../pic32c/lib/thumb/v7e-m+fp/hard\libc-musl.a(__uflow.o) (__toread)
c:/program files/microchip/xc32/v4.10/bin/bin/../../lib/gcc/pic32c/8.3.1/../../../../pic32c/lib/thumb/v7e-m+fp/hard\libc-musl.a(__io_fmt_needed.o)
                              c:/program files/microchip/xc32/v4.10/bin/bin/../../lib/gcc/pic32c/8.3.1/../../../../pic32c/lib/thumb/v7e-m+fp/hard\libc-musl.a(vfprintf.o) (__io_fmt_needed)
c:/program files/microchip/xc32/v4.10/bin/bin/../../lib/gcc/pic32c/8.3.1/../../../../pic32c/lib/thumb/v7e-m+fp/hard\libc-musl.a(__printf_core.o)
                              c:/program files/microchip/xc32/v4.10/bin/bin/../../lib/gcc/pic32c/8.3.1/../../../../pic32c/lib/thumb/v7e-m+fp/hard\libc-musl.a(vfprintf.o) (__printf_core)
c:/program files/microchip/xc32/v4.10/bin/bin/../../lib/gcc/pic32c/8.3.1/../../../../pic32c/lib/thumb/v7e-m+fp/hard\libc-musl.a(__stdio_exit.o)
                              c:/program files/microchip/xc32/v4.10/bin/bin/../../lib/gcc/pic32c/8.3.1/../../../../pic32c/lib/thumb/v7e-m+fp/hard\libc-musl.a(__toread.o) (__stdio_exit_needed)
c:/program files/microchip/xc32/v4.10/bin/bin/../../lib/gcc/pic32c/8.3.1/../../../../pic32c/lib/thumb/v7e-m+fp/hard\libc-musl.a(__fmt_a.o)
                              c:/program files/microchip/xc32/v4.10/bin/bin/../../lib/gcc/pic32c/8.3.1/../../../../pic32c/lib/thumb/v7e-m+fp/hard\libc-musl.a(__io_fmt_needed.o) (__fmt_a_needed)
c:/program files/microchip/xc32/v4.10/bin/bin/../../lib/gcc/pic32c/8.3.1/../../../../pic32c/lib/thumb/v7e-m+fp/hard\libc-musl.a(__fmt_d.o)
                              c:/program files/microchip/xc32/v4.10/bin/bin/../../lib/gcc/pic32c/8.3.1/../../../../pic32c/lib/thumb/v7e-m+fp/hard\libc-musl.a(__io_fmt_needed.o) (__fmt_d_needed)
c:/program files/microchip/xc32/v4.10/bin/bin/../../lib/gcc/pic32c/8.3.1/../../../../pic32c/lib/thumb/v7e-m+fp/hard\libc-musl.a(__fmt_fp.o)
                              c:/program files/microchip/xc32/v4.10/bin/bin/../../lib/gcc/pic32c/8.3.1/../../../../pic32c/lib/thumb/v7e-m+fp/hard\libc-musl.a(__io_fmt_needed.o) (__fmt_f_needed)
c:/program files/microchip/xc32/v4.10/bin/bin/../../lib/gcc/pic32c/8.3.1/../../../../pic32c/lib/thumb/v7e-m+fp/hard\libc-musl.a(__fmt_o.o)
                              c:/program files/microchip/xc32/v4.10/bin/bin/../../lib/gcc/pic32c/8.3.1/../../../../pic32c/lib/thumb/v7e-m+fp/hard\libc-musl.a(__io_fmt_needed.o) (__fmt_o_needed)
c:/program files/microchip/xc32/v4.10/bin/bin/../../lib/gcc/pic32c/8.3.1/../../../../pic32c/lib/thumb/v7e-m+fp/hard\libc-musl.a(__fmt_s.o)
                              c:/program files/microchip/xc32/v4.10/bin/bin/../../lib/gcc/pic32c/8.3.1/../../../../pic32c/lib/thumb/v7e-m+fp/hard\libc-musl.a(__io_fmt_needed.o) (__fmt_s_needed)
c:/program files/microchip/xc32/v4.10/bin/bin/../../lib/gcc/pic32c/8.3.1/../../../../pic32c/lib/thumb/v7e-m+fp/hard\libc-musl.a(__fmt_u.o)
                              c:/program files/microchip/xc32/v4.10/bin/bin/../../lib/gcc/pic32c/8.3.1/../../../../pic32c/lib/thumb/v7e-m+fp/hard\libc-musl.a(__fmt_d.o) (__cvt_u)
c:/program files/microchip/xc32/v4.10/bin/bin/../../lib/gcc/pic32c/8.3.1/../../../../pic32c/lib/thumb/v7e-m+fp/hard\libc-musl.a(__fmt_x.o)
                              c:/program files/microchip/xc32/v4.10/bin/bin/../../lib/gcc/pic32c/8.3.1/../../../../pic32c/lib/thumb/v7e-m+fp/hard\libc-musl.a(__io_fmt_needed.o) (__fmt_x_needed)
c:/program files/microchip/xc32/v4.10/bin/bin/../../lib/gcc/pic32c/8.3.1/../../../../pic32c/lib/thumb/v7e-m+fp/hard\libc-musl.a(__pop_float.o)
                              c:/program files/microchip/xc32/v4.10/bin/bin/../../lib/gcc/pic32c/8.3.1/../../../../pic32c/lib/thumb/v7e-m+fp/hard\libc-musl.a(__printf_core.o) (__pop_float)
c:/program files/microchip/xc32/v4.10/bin/bin/../../lib/gcc/pic32c/8.3.1/../../../../pic32c/lib/thumb/v7e-m+fp/hard\libc-musl.a(__pop_int.o)
                              c:/program files/microchip/xc32/v4.10/bin/bin/../../lib/gcc/pic32c/8.3.1/../../../../pic32c/lib/thumb/v7e-m+fp/hard\libc-musl.a(__printf_core.o) (__pop_int)
c:/program files/microchip/xc32/v4.10/bin/bin/../../lib/gcc/pic32c/8.3.1/../../../../pic32c/lib/thumb/v7e-m+fp/hard\libc-musl.a(__pop_ptr.o)
                              c:/program files/microchip/xc32/v4.10/bin/bin/../../lib/gcc/pic32c/8.3.1/../../../../pic32c/lib/thumb/v7e-m+fp/hard\libc-musl.a(__printf_core.o) (__pop_ptr)
c:/program files/microchip/xc32/v4.10/bin/bin/../../lib/gcc/pic32c/8.3.1/../../../../pic32c/lib/thumb/v7e-m+fp/hard\libm-emfloat.a(lib_a-_FLOOR.o)
                              c:/program files/microchip/xc32/v4.10/bin/bin/../../lib/gcc/pic32c/8.3.1/../../../../pic32c/lib/thumb/v7e-m+fp/hard\libc-musl.a(__fmt_a.o) (floor)
c:/program files/microchip/xc32/v4.10/bin/bin/../../lib/gcc/pic32c/8.3.1/../../../../pic32c/lib/thumb/v7e-m+fp/hard\libm-emfloat.a(lib_a-_FMA.o)
                              c:/program files/microchip/xc32/v4.10/bin/bin/../../lib/gcc/pic32c/8.3.1/../../../../pic32c/lib/thumb/v7e-m+fp/hard\libc-musl.a(__fmt_fp.o) (fma)
c:/program files/microchip/xc32/v4.10/bin/bin/../../lib/gcc/pic32c/8.3.1/../../../../pic32c/lib/thumb/v7e-m+fp/hard\libm-emfloat.a(lib_a-_ILOGB.o)
                              c:/program files/microchip/xc32/v4.10/bin/bin/../../lib/gcc/pic32c/8.3.1/../../../../pic32c/lib/thumb/v7e-m+fp/hard\libm-emfloat.a(lib_a-_FLOOR.o) (ilogb)
c:/program files/microchip/xc32/v4.10/bin/bin/../../lib/gcc/pic32c/8.3.1/../../../../pic32c/lib/thumb/v7e-m+fp/hard\libm-emfloat.a(lib_a-_LDEXP.o)
                              c:/program files/microchip/xc32/v4.10/bin/bin/../../lib/gcc/pic32c/8.3.1/../../../../pic32c/lib/thumb/v7e-m+fp/hard\libm-emfloat.a(lib_a-_FLOOR.o) (ldexp)
c:/program files/microchip/xc32/v4.10/bin/bin/../../lib/gcc/pic32c/8.3.1/thumb/v7e-m+fp/hard\libgcc.a(_aeabi_ldivmod.o)
                              c:/program files/microchip/xc32/v4.10/bin/bin/../../lib/gcc/pic32c/8.3.1/../../../../pic32c/lib/thumb/v7e-m+fp/hard\libc-musl.a(__secs_to_tm.o) (__aeabi_ldivmod)
c:/program files/microchip/xc32/v4.10/bin/bin/../../lib/gcc/pic32c/8.3.1/thumb/v7e-m+fp/hard\libgcc.a(_aeabi_uldivmod.o)
                              build/FreeRTOS/production/_ext/540595297/tcp.o (__aeabi_uldivmod)
c:/program files/microchip/xc32/v4.10/bin/bin/../../lib/gcc/pic32c/8.3.1/thumb/v7e-m+fp/hard\libgcc.a(_udivmoddi4.o)
                              c:/program files/microchip/xc32/v4.10/bin/bin/../../lib/gcc/pic32c/8.3.1/thumb/v7e-m+fp/hard\libgcc.a(_aeabi_ldivmod.o) (__udivmoddi4)
c:/program files/microchip/xc32/v4.10/bin/bin/../../lib/gcc/pic32c/8.3.1/thumb/v7e-m+fp/hard\libgcc.a(_dvmd_tls.o)
                              c:/program files/microchip/xc32/v4.10/bin/bin/../../lib/gcc/pic32c/8.3.1/thumb/v7e-m+fp/hard\libgcc.a(_aeabi_ldivmod.o) (__aeabi_ldiv0)
c:/program files/microchip/xc32/v4.10/bin/bin/../../lib/gcc/pic32c/8.3.1/../../../../pic32c/lib/thumb/v7e-m+fp/hard\libpic32c.a(sbrk.o)
                              c:/program files/microchip/xc32/v4.10/bin/bin/../../lib/gcc/pic32c/8.3.1/../../../../pic32c/lib/thumb/v7e-m+fp/hard\libc-musl.a(expand_heap.o) (_sbrk)

Microchip PIC32 Memory-Usage Report

ROM Program-Memory Usage
section                    address  length [bytes]      (dec)  Description
-------                 ----------  -------------------------  -----------
.vectors                         0          0x264         612   
.text                        0x264           0x20          32  App's exec code 
.ARM.exidx                   0x284            0x8           8   
.text                        0x28c        0x18254       98900  App's exec code 
.rodata                    0x184e0         0x1b74        7028  Read-only const 
.text                      0x1a054         0x8426       33830  App's exec code 
.text                      0x2247a            0x2           2  App's exec code 
.text                      0x2247c         0x63e0       25568  App's exec code 
.rodata                    0x2885c          0xb90        2960  Read-only const 
.text                      0x293ec         0x1624        5668  App's exec code 
.rodata                    0x2aa10          0xacc        2764  Read-only const 
.text                      0x2b4dc         0x4584       17796  App's exec code 
.rodata                    0x2fa60          0x898        2200  Read-only const 
.text                      0x302f8          0x808        2056  App's exec code 
.rodata                    0x30b00          0x798        1944  Read-only const 
.text                      0x31298          0x770        1904  App's exec code 
.rodata                    0x31a08          0x738        1848  Read-only const 
.text                      0x32140          0xd30        3376  App's exec code 
.rodata                    0x32e70          0x600        1536  Read-only const 
.text                      0x33470          0x59c        1436  App's exec code 
.rodata                    0x33a0c          0x584        1412  Read-only const 
.text.__fmt_fp             0x33f90          0x4d0        1232   
.text                      0x34460          0x4be        1214  App's exec code 
.text.Dummy_Handler        0x3491e            0x2           2   
.text                      0x34920          0x4b4        1204  App's exec code 
.rodata                    0x34dd4            0x4           4  Read-only const 
.text.__fmt_a              0x34dd8          0x498        1176   
.rodata                    0x35270          0x484        1156  Read-only const 
.dinit                     0x356f4          0x480        1152   
.text.__intscan            0x35b74          0x408        1032   
.text                      0x35f7c          0x6b4        1716  App's exec code 
.rodata                    0x36630          0x310         784  Read-only const 
.text                      0x36940          0x304         772  App's exec code 
.text.__printf_core        0x36c44          0x2f4         756   
.text                      0x36f38          0xaa0        2720  App's exec code 
.text.__aeabi_dadd         0x379d8          0x240         576   
.text                      0x37c18          0x22c         556  App's exec code 
.rodata                    0x37e44          0x228         552  Read-only const 
.text                      0x3806c          0x21a         538  App's exec code 
.text                      0x38286            0x2           2  App's exec code 
.rodata                    0x38288          0x218         536  Read-only const 
.text                      0x384a0          0x1f4         500  App's exec code 
.text                      0x38694            0xc          12  App's exec code 
.text                      0x386a0          0x1f0         496  App's exec code 
.rodata                    0x38890          0x1c8         456  Read-only const 
.text.__secs_to_tm         0x38a58          0x1c8         456   
.text.__aeabi_ddiv         0x38c20          0x1c4         452   
.text.malloc               0x38de4          0x1b0         432   
.text                      0x38f94          0x650        1616  App's exec code 
.rodata                    0x395e4          0x180         384  Read-only const 
.text                      0x39764          0x158         344  App's exec code 
.rodata                    0x398bc          0x144         324  Read-only const 
.text                      0x39a00          0x138         312  App's exec code 
.rodata                    0x39b38          0x134         308  Read-only const 
.text                      0x39c6c          0x134         308  App's exec code 
.text.__aeabi_dmul         0x39da0          0x130         304   
.rodata                    0x39ed0          0x128         296  Read-only const 
.text                      0x39ff8          0x124         292  App's exec code 
.text.__fmt_x              0x3a11c          0x124         292   
.rodata                    0x3a240          0x10a         266  Read-only const 
.text.__dummy              0x3a34a            0x2           2   
.rodata                    0x3a34c          0x100         256  Read-only const 
.text.free                 0x3a44c           0xf8         248   
.text                      0x3a544           0xe8         232  App's exec code 
.text                      0x3a62c            0x4           4  App's exec code 
.text.floor                0x3a630           0xcc         204   
.text                      0x3a6fc           0xc2         194  App's exec code 
.text                      0x3a7c0          0x160         352  App's exec code 
.text.__fmt_d              0x3a920           0xa8         168   
.text                      0x3a9c8           0xa4         164  App's exec code 
.rodata                    0x3aa6c           0xa0         160  Read-only const 
.text                      0x3ab0c           0xa0         160  App's exec code 
.text.__pop_int            0x3abac           0xa0         160   
.text                      0x3ac4c           0xa0         160  App's exec code 
.text.__shgetc             0x3acec           0x92         146   
.text                      0x3ad7e           0x8a         138  App's exec code 
.text.Reset_Handler        0x3ae08           0x88         136   
.text.__pic32c_data_ini    0x3ae90           0x88         136   
.text.strspn               0x3af18           0x7e         126   
.text.__pad                0x3af96           0x7e         126   
.text                      0x3b014           0x7c         124  App's exec code 
.text.__pop_ptr            0x3b090           0x7c         124   
.rodata                    0x3b10c           0x78         120  Read-only const 
.text.__cvt_u              0x3b184           0x78         120   
.text.strcspn              0x3b1fc           0x76         118   
.text.__fmt_o              0x3b272           0x72         114   
.text                      0x3b2e4           0x60          96  App's exec code 
.rodata                    0x3b344           0xc0         192  Read-only const 
.text.vsnprintf            0x3b404           0x60          96   
.text.__strchrnul          0x3b464           0x60          96   
.text                      0x3b4c4           0x5c          92  App's exec code 
.text.__libc_start_init    0x3b520           0x5c          92   
.rodata                    0x3b57c           0x5c          92  Read-only const 
.text.unbin                0x3b5d8           0x58          88   
.text.__fmt_s              0x3b630           0x58          88   
.text.__fmt_u              0x3b688           0x56          86   
.text.strtox               0x3b6de           0x54          84   
.rodata                    0x3b734           0xa0         160  Read-only const 
.text.__aeabi_d2iz         0x3b7d4           0x4c          76   
.text.__toread             0x3b820           0x4a          74   
.text.strtok               0x3b86c           0x48          72   
.text.atoi                 0x3b8b4           0x46          70   
.rodata                    0x3b8fc           0x44          68  Read-only const 
.text                      0x3b940           0x84         132  App's exec code 
.rodata                    0x3b9c4           0x40          64  Read-only const 
.text.adjust_size          0x3ba04           0x40          64   
.text.__aeabi_dcmple       0x3ba44           0x3c          60   
.text                      0x3ba80           0x38          56  App's exec code 
.text.__aeabi_dcmpgt       0x3bab8           0x38          56   
.text.__aeabi_dcmplt       0x3baf0           0x38          56   
.text.bin_index            0x3bb28           0x38          56   
.text.__fmt_state          0x3bb60           0x38          56   
.text.__aeabi_dcmpeq       0x3bb98           0x34          52   
.text.memmove              0x3bbcc           0x34          52   
.text.__gmtime_r           0x3bc00           0x34          52   
.text.stpncpy              0x3bc34           0x34          52   
.text.alloc_rev            0x3bc68           0x30          48   
.text                      0x3bc98           0x30          48  App's exec code 
.text.trim                 0x3bcc8           0x2e          46   
.rodata                    0x3bcf8           0x2c          44  Read-only const 
.text.alloc_fwd            0x3bd24           0x2c          44   
.text.__clock_gettime      0x3bd50           0x2c          44   
.text.fma                  0x3bd7c           0x2c          44   
.text._sbrk                0x3bda8           0x2c          44   
.text.__pop_float          0x3bdd4           0x2a          42   
.rodata                    0x3be00           0x28          40  Read-only const 
.text                      0x3be28           0x28          40  App's exec code 
.text.__aeabi_i2d          0x3be50           0x28          40   
.text.__uflow              0x3be78           0x28          40   
.text.__shlim              0x3bea0           0x26          38   
.text.__string_out         0x3bec6           0x26          38   
.rodata                    0x3beec           0x24          36  Read-only const 
.text                      0x3bf10           0x24          36  App's exec code 
.text.__aeabi_d2uiz        0x3bf34           0x24          36   
.text.strncmp              0x3bf58           0x24          36   
.rodata                    0x3bf7c           0x20          32  Read-only const 
.text.lock_bin             0x3bf9c           0x20          32   
.text.__aeabi_ui2d         0x3bfbc           0x1c          28   
.text.isxdigit             0x3bfd8           0x1c          28   
.text.memcmp               0x3bff4           0x1c          28   
.text.vfprintf             0x3c010           0x1c          28   
.text.__memrchr            0x3c02c           0x1c          28   
.rodata                    0x3c048           0x1c          28  Read-only const 
.text.isalnum              0x3c064           0x1a          26   
.text.snprintf             0x3c07e           0x1a          26   
.text.sprintf              0x3c098           0x1a          26   
.text                      0x3c0b4           0x18          24  App's exec code 
.text.rand                 0x3c0cc           0x18          24   
.text.strcmp               0x3c0e4           0x18          24   
.text.strrchr              0x3c0fc           0x18          24   
.text.__syscall_ret        0x3c114           0x18          24   
.text.__expand_heap        0x3c12c           0x16          22   
.text.memcpy               0x3c142           0x16          22   
.text.time                 0x3c158           0x16          22   
.text.strtoul              0x3c16e           0x14          20   
.text.strtol               0x3c182           0x14          20   
.text.strchr               0x3c196           0x14          20   
.text.stpcpy               0x3c1aa           0x12          18   
.text.memset               0x3c1bc           0x10          16   
.text.strlen               0x3c1cc           0x10          16   
.rodata                    0x3c1dc           0x20          32  Read-only const 
.text                      0x3c1fc            0xe          14  App's exec code 
.text.tolower              0x3c20a            0xe          14   
.text.toupper              0x3c218            0xe          14   
.text.srand                0x3c228            0xc          12   
.text.vsprintf             0x3c234            0xc          12   
.text.strcpy               0x3c240            0xc          12   
.text.strncpy              0x3c24c            0xc          12   
.text.gmtime               0x3c258            0xc          12   
.rodata                    0x3c264           0x1c          28  Read-only const 
.text.__aeabi_dsub         0x3c280            0x8           8   
.rodata                    0x3c288            0x7           7  Read-only const 
.text.__gettimeofday       0x3c290            0x6           6   
      Total ROM used  :     0x3c285      246405  23.5% of 0x100000
        --------------------------------------------------------------------------
         Total Program Memory used  :     0x3c285      246405  23.5% of 0x100000
        --------------------------------------------------------------------------


RAM Data-Memory Usage
section                    address  length [bytes]      (dec)  Description
-------                 ----------  -------------------------  -----------
.bss                    0x20000000         0xcad9       51929  Uninitialized data 
.bss                    0x2000cadc          0xf00        3840  Uninitialized data 
.data                   0x2000d9dc            0x4           4  Initialized data 
.bss                    0x2000d9e0          0x20c         524  Uninitialized data 
.bss                    0x2000dbec            0x4           4  Uninitialized data 
.bss                    0x2000dbf0          0x334         820  Uninitialized data 
.data                   0x2000df24            0x4           4  Initialized data 
.bss                    0x2000df28          0x1bc         444  Uninitialized data 
.data                   0x2000e0e4           0xd5         213  Initialized data 
.data                   0x2000e1bc            0x4           4  Initialized data 
.bss                    0x2000e1c0          0x36a         874  Uninitialized data 
.bss                    0x2000e52a            0x2           2  Uninitialized data 
.bss                    0x2000e52c           0x4c          76  Uninitialized data 
.data                   0x2000e578           0x74         116  Initialized data 
.bss                    0x2000e5ec           0x60          96  Uninitialized data 
.data                   0x2000e64c           0x30          48  Initialized data 
.bss                    0x2000e67c           0x5c          92  Uninitialized data 
.data                   0x2000e6d8           0x28          40  Initialized data 
.bss                    0x2000e700           0x3e          62  Uninitialized data 
.data                   0x2000e73e            0x2           2  Initialized data 
.bss                    0x2000e740           0x51          81  Uninitialized data 
.bss                    0x2000e794           0x1c          28  Uninitialized data 
.data                   0x2000e7b0            0x8           8  Initialized data 
.bss                    0x2000e7b8           0x1f          31  Uninitialized data 
.data                   0x2000e7d8            0x6           6  Initialized data 
.bss                    0x2000e7e0           0x20          32  Uninitialized data 
.bss                    0x2000e800            0x1           1  Uninitialized data 
         Total RAM used  :      0xe7f5       59381  22.7% of 0x40000
        --------------------------------------------------------------------------
            Total Data Memory used  :      0xe7f5       59381  22.7% of 0x40000
        --------------------------------------------------------------------------


Dynamic Data-Memory Reservation
section                    address  length [bytes]      (dec)  Description
-------                 ----------  -------------------------  -----------
heap                    0x2000e808        0x17ac0       96960  Reserved for heap 
stack                   0x200262e0        0x19d10      105744  Reserved for stack 

        --------------------------------------------------------------------------

Discarded input sections

 .text          0x00000000        0x0 c:/program files/microchip/xc32/v4.10/bin/bin/../../lib/gcc/pic32c/8.3.1/thumb/v7e-m+fp/hard/crti.o
 .data          0x00000000        0x0 c:/program files/microchip/xc32/v4.10/bin/bin/../../lib/gcc/pic32c/8.3.1/thumb/v7e-m+fp/hard/crti.o
 .bss           0x00000000        0x0 c:/program files/microchip/xc32/v4.10/bin/bin/../../lib/gcc/pic32c/8.3.1/thumb/v7e-m+fp/hard/crti.o
 .xc_stack_usage.hdr
                0x00000000        0xe c:/program files/microchip/xc32/v4.10/bin/bin/../../lib/gcc/pic32c/8.3.1/thumb/v7e-m+fp/hard/crti.o
 .xc_stack_usage
                0x00000000       0x26 c:/program files/microchip/xc32/v4.10/bin/bin/../../lib/gcc/pic32c/8.3.1/thumb/v7e-m+fp/hard/crti.o
 .data          0x00000000        0x4 c:/program files/microchip/xc32/v4.10/bin/bin/../../lib/gcc/pic32c/8.3.1/thumb/v7e-m+fp/hard/crtbegin.o
 .xc_stack_usage
                0x00000000       0x3c c:/program files/microchip/xc32/v4.10/bin/bin/../../lib/gcc/pic32c/8.3.1/thumb/v7e-m+fp/hard/crtbegin.o
 .xc_stack_usage.hdr
                0x00000000        0xe c:/program files/microchip/xc32/v4.10/bin/bin/../../lib/gcc/pic32c/8.3.1/thumb/v7e-m+fp/hard/crtbegin.o
 .data          0x00000000        0x0 build/FreeRTOS/production/_ext/1609394304/crypto.o
 .bss           0x00000000        0x0 build/FreeRTOS/production/_ext/1609394304/crypto.o
 .data          0x00000000        0x0 build/FreeRTOS/production/_ext/1231519722/drv_ethphy.o
 .data          0x00000000        0x0 build/FreeRTOS/production/_ext/1231519722/drv_extphy_lan867x.o
 .data          0x00000000        0x0 build/FreeRTOS/production/_ext/41526634/drv_gmac_lib_samE5x.o
 .data          0x00000000        0x0 build/FreeRTOS/production/_ext/1149484450/drv_miim.o
 .data          0x00000000        0x0 build/FreeRTOS/production/_ext/540595297/helpers.o
 .bss           0x00000000        0x0 build/FreeRTOS/production/_ext/540595297/helpers.o
 .data          0x00000000        0x0 build/FreeRTOS/production/_ext/540595297/icmp.o
 .data          0x00000000        0x0 build/FreeRTOS/production/_ext/540595297/tcp.o
 .data          0x00000000        0x0 build/FreeRTOS/production/_ext/540595297/iperf.o
 .data          0x00000000        0x0 build/FreeRTOS/production/_ext/540595297/ipv4.o
 .data          0x00000000        0x0 build/FreeRTOS/production/_ext/540595297/tcpip_heap_alloc.o
 .bss           0x00000000        0x0 build/FreeRTOS/production/_ext/540595297/tcpip_heap_alloc.o
 .data          0x00000000        0x0 build/FreeRTOS/production/_ext/540595297/tcpip_heap_internal.o
 .bss           0x00000000        0x0 build/FreeRTOS/production/_ext/540595297/tcpip_heap_internal.o
 .data          0x00000000        0x0 build/FreeRTOS/production/_ext/540595297/dhcp.o
 .data          0x00000000        0x0 build/FreeRTOS/production/_ext/540595297/dns.o
 .data          0x00000000        0x0 build/FreeRTOS/production/_ext/540595297/hash_fnv.o
 .bss           0x00000000        0x0 build/FreeRTOS/production/_ext/540595297/hash_fnv.o
 .data          0x00000000        0x0 build/FreeRTOS/production/_ext/540595297/oahash.o
 .bss           0x00000000        0x0 build/FreeRTOS/production/_ext/540595297/oahash.o
 .bss           0x00000000        0x0 build/FreeRTOS/production/_ext/540595297/tcpip_helpers.o
 .data          0x00000000        0x0 build/FreeRTOS/production/_ext/540595297/tcpip_notify.o
 .bss           0x00000000        0x0 build/FreeRTOS/production/_ext/540595297/tcpip_notify.o
 .data          0x00000000        0x0 build/FreeRTOS/production/_ext/540595297/tcpip_packet.o
 .data          0x00000000        0x0 build/FreeRTOS/production/_ext/540595297/udp.o
 .data          0x00000000        0x0 build/FreeRTOS/production/_ext/891571577/osal_freertos.o
 .bss           0x00000000        0x0 build/FreeRTOS/production/_ext/891571577/osal_freertos.o
 .data          0x00000000        0x0 build/FreeRTOS/production/_ext/892004133/plib_clock.o
 .bss           0x00000000        0x0 build/FreeRTOS/production/_ext/892004133/plib_clock.o
 .text          0x00000000       0xd8 build/FreeRTOS/production/_ext/1495245741/plib_cmcc.o
 .data          0x00000000        0x0 build/FreeRTOS/production/_ext/1495245741/plib_cmcc.o
 .bss           0x00000000        0x0 build/FreeRTOS/production/_ext/1495245741/plib_cmcc.o
 .debug_info    0x00000000      0x52b build/FreeRTOS/production/_ext/1495245741/plib_cmcc.o
 .debug_abbrev  0x00000000       0x97 build/FreeRTOS/production/_ext/1495245741/plib_cmcc.o
 .debug_aranges
                0x00000000       0x20 build/FreeRTOS/production/_ext/1495245741/plib_cmcc.o
 .debug_line    0x00000000      0x1b9 build/FreeRTOS/production/_ext/1495245741/plib_cmcc.o
 .debug_str     0x00000000        0x0 build/FreeRTOS/production/_ext/1495245741/plib_cmcc.o
 .comment       0x00000000       0x2c build/FreeRTOS/production/_ext/1495245741/plib_cmcc.o
 .debug_frame   0x00000000       0x70 build/FreeRTOS/production/_ext/1495245741/plib_cmcc.o
 .ARM.attributes
                0x00000000       0x34 build/FreeRTOS/production/_ext/1495245741/plib_cmcc.o
 .data          0x00000000        0x0 build/FreeRTOS/production/_ext/894153619/plib_evsys.o
 .bss           0x00000000        0x0 build/FreeRTOS/production/_ext/894153619/plib_evsys.o
 .data          0x00000000        0x0 build/FreeRTOS/production/_ext/1494909205/plib_nvic.o
 .bss           0x00000000        0x0 build/FreeRTOS/production/_ext/1494909205/plib_nvic.o
 .data          0x00000000        0x0 build/FreeRTOS/production/_ext/320424729/plib_nvmctrl.o
 .data          0x00000000        0x0 build/FreeRTOS/production/_ext/1494856054/plib_port.o
 .bss           0x00000000        0x0 build/FreeRTOS/production/_ext/1494856054/plib_port.o
 .data          0x00000000        0x0 build/FreeRTOS/production/_ext/2092608928/plib_sercom1_usart.o
 .data          0x00000000        0x0 build/FreeRTOS/production/_ext/579449528/plib_tc0.o
 .data          0x00000000        0x0 build/FreeRTOS/production/_ext/1494734144/plib_trng.o
 .bss           0x00000000        0x0 build/FreeRTOS/production/_ext/1494734144/plib_trng.o
 .text          0x00000000        0xc build/FreeRTOS/production/_ext/1872641887/xc32_monitor.o
 .data          0x00000000        0x0 build/FreeRTOS/production/_ext/1872641887/xc32_monitor.o
 .bss           0x00000000        0x0 build/FreeRTOS/production/_ext/1872641887/xc32_monitor.o
 .debug_info    0x00000000      0x322 build/FreeRTOS/production/_ext/1872641887/xc32_monitor.o
 .debug_abbrev  0x00000000       0x94 build/FreeRTOS/production/_ext/1872641887/xc32_monitor.o
 .debug_loc     0x00000000       0x4a build/FreeRTOS/production/_ext/1872641887/xc32_monitor.o
 .debug_aranges
                0x00000000       0x20 build/FreeRTOS/production/_ext/1872641887/xc32_monitor.o
 .debug_line    0x00000000       0xbc build/FreeRTOS/production/_ext/1872641887/xc32_monitor.o
 .debug_str     0x00000000        0x0 build/FreeRTOS/production/_ext/1872641887/xc32_monitor.o
 .comment       0x00000000       0x2c build/FreeRTOS/production/_ext/1872641887/xc32_monitor.o
 .debug_frame   0x00000000       0x30 build/FreeRTOS/production/_ext/1872641887/xc32_monitor.o
 .ARM.attributes
                0x00000000       0x34 build/FreeRTOS/production/_ext/1872641887/xc32_monitor.o
 .text          0x00000000       0x1a build/FreeRTOS/production/_ext/1107142132/sys_cache.o
 .data          0x00000000        0x0 build/FreeRTOS/production/_ext/1107142132/sys_cache.o
 .bss           0x00000000        0x0 build/FreeRTOS/production/_ext/1107142132/sys_cache.o
 .debug_info    0x00000000      0x5cd build/FreeRTOS/production/_ext/1107142132/sys_cache.o
 .debug_abbrev  0x00000000       0x8d build/FreeRTOS/production/_ext/1107142132/sys_cache.o
 .debug_aranges
                0x00000000       0x20 build/FreeRTOS/production/_ext/1107142132/sys_cache.o
 .debug_line    0x00000000       0xc7 build/FreeRTOS/production/_ext/1107142132/sys_cache.o
 .debug_str     0x00000000        0x0 build/FreeRTOS/production/_ext/1107142132/sys_cache.o
 .comment       0x00000000       0x2c build/FreeRTOS/production/_ext/1107142132/sys_cache.o
 .debug_frame   0x00000000       0xe0 build/FreeRTOS/production/_ext/1107142132/sys_cache.o
 .ARM.attributes
                0x00000000       0x34 build/FreeRTOS/production/_ext/1107142132/sys_cache.o
 .data          0x00000000        0x0 build/FreeRTOS/production/_ext/1005353002/sys_command.o
 .data          0x00000000        0x0 build/FreeRTOS/production/_ext/548640822/sys_console_uart.o
 .data          0x00000000        0x0 build/FreeRTOS/production/_ext/548640822/sys_console.o
 .data          0x00000000        0x0 build/FreeRTOS/production/_ext/147610190/sys_debug.o
 .data          0x00000000        0x0 build/FreeRTOS/production/_ext/1690414130/sys_int.o
 .bss           0x00000000        0x0 build/FreeRTOS/production/_ext/1690414130/sys_int.o
 .data          0x00000000        0x0 build/FreeRTOS/production/_ext/1093154855/sys_reset.o
 .bss           0x00000000        0x0 build/FreeRTOS/production/_ext/1093154855/sys_reset.o
 .data          0x00000000        0x0 build/FreeRTOS/production/_ext/2072568807/sys_time_h2_adapter.o
 .data          0x00000000        0x0 build/FreeRTOS/production/_ext/2072568807/sys_random_h2_adapter.o
 .data          0x00000000        0x0 build/FreeRTOS/production/_ext/161576091/tasks.o
 .text          0x00000000        0x0 build/FreeRTOS/production/_ext/161576091/interrupts.o
 .data          0x00000000        0x0 build/FreeRTOS/production/_ext/161576091/interrupts.o
 .bss           0x00000000        0x0 build/FreeRTOS/production/_ext/161576091/interrupts.o
 .data          0x00000000        0x0 build/FreeRTOS/production/_ext/161576091/exceptions.o
 .bss           0x00000000        0x0 build/FreeRTOS/production/_ext/161576091/exceptions.o
 .data          0x00000000        0x0 build/FreeRTOS/production/_ext/161576091/startup_xc32.o
 .bss           0x00000000        0x0 build/FreeRTOS/production/_ext/161576091/startup_xc32.o
 .text          0x00000000        0x2 build/FreeRTOS/production/_ext/161576091/libc_syscalls.o
 .data          0x00000000        0x0 build/FreeRTOS/production/_ext/161576091/libc_syscalls.o
 .bss           0x00000000        0x0 build/FreeRTOS/production/_ext/161576091/libc_syscalls.o
 .debug_info    0x00000000      0x309 build/FreeRTOS/production/_ext/161576091/libc_syscalls.o
 .debug_abbrev  0x00000000       0x50 build/FreeRTOS/production/_ext/161576091/libc_syscalls.o
 .debug_loc     0x00000000       0x15 build/FreeRTOS/production/_ext/161576091/libc_syscalls.o
 .debug_aranges
                0x00000000       0x20 build/FreeRTOS/production/_ext/161576091/libc_syscalls.o
 .debug_line    0x00000000       0x5c build/FreeRTOS/production/_ext/161576091/libc_syscalls.o
 .debug_str     0x00000000        0x0 build/FreeRTOS/production/_ext/161576091/libc_syscalls.o
 .comment       0x00000000       0x2c build/FreeRTOS/production/_ext/161576091/libc_syscalls.o
 .debug_frame   0x00000000       0x20 build/FreeRTOS/production/_ext/161576091/libc_syscalls.o
 .ARM.attributes
                0x00000000       0x34 build/FreeRTOS/production/_ext/161576091/libc_syscalls.o
 .data          0x00000000        0x0 build/FreeRTOS/production/_ext/161576091/freertos_hooks.o
 .bss           0x00000000        0x0 build/FreeRTOS/production/_ext/161576091/freertos_hooks.o
 .bss           0x00000000        0x0 build/FreeRTOS/production/_ext/246609638/port.o
 .data          0x00000000        0x0 build/FreeRTOS/production/_ext/1665200909/heap_1.o
 .text          0x00000000        0x0 build/FreeRTOS/production/_ext/404212886/croutine.o
 .data          0x00000000        0x0 build/FreeRTOS/production/_ext/404212886/croutine.o
 .bss           0x00000000        0x0 build/FreeRTOS/production/_ext/404212886/croutine.o
 .debug_info    0x00000000      0x2eb build/FreeRTOS/production/_ext/404212886/croutine.o
 .debug_abbrev  0x00000000       0x1b build/FreeRTOS/production/_ext/404212886/croutine.o
 .debug_aranges
                0x00000000       0x18 build/FreeRTOS/production/_ext/404212886/croutine.o
 .debug_line    0x00000000       0x1d build/FreeRTOS/production/_ext/404212886/croutine.o
 .debug_str     0x00000000        0x0 build/FreeRTOS/production/_ext/404212886/croutine.o
 .comment       0x00000000       0x2c build/FreeRTOS/production/_ext/404212886/croutine.o
 .ARM.attributes
                0x00000000       0x39 build/FreeRTOS/production/_ext/404212886/croutine.o
 .data          0x00000000        0x0 build/FreeRTOS/production/_ext/404212886/list.o
 .bss           0x00000000        0x0 build/FreeRTOS/production/_ext/404212886/list.o
 .data          0x00000000        0x0 build/FreeRTOS/production/_ext/404212886/queue.o
 .bss           0x00000000        0x0 build/FreeRTOS/production/_ext/404212886/queue.o
 .text          0x00000000        0x0 build/FreeRTOS/production/_ext/404212886/timers.o
 .data          0x00000000        0x0 build/FreeRTOS/production/_ext/404212886/timers.o
 .bss           0x00000000        0x0 build/FreeRTOS/production/_ext/404212886/timers.o
 .debug_info    0x00000000      0x2e9 build/FreeRTOS/production/_ext/404212886/timers.o
 .debug_abbrev  0x00000000       0x1b build/FreeRTOS/production/_ext/404212886/timers.o
 .debug_aranges
                0x00000000       0x18 build/FreeRTOS/production/_ext/404212886/timers.o
 .debug_line    0x00000000       0x1d build/FreeRTOS/production/_ext/404212886/timers.o
 .debug_str     0x00000000        0x0 build/FreeRTOS/production/_ext/404212886/timers.o
 .comment       0x00000000       0x2c build/FreeRTOS/production/_ext/404212886/timers.o
 .ARM.attributes
                0x00000000       0x39 build/FreeRTOS/production/_ext/404212886/timers.o
 .text          0x00000000      0x240 build/FreeRTOS/production/_ext/404212886/event_groups.o
 .data          0x00000000        0x0 build/FreeRTOS/production/_ext/404212886/event_groups.o
 .bss           0x00000000        0x0 build/FreeRTOS/production/_ext/404212886/event_groups.o
 .debug_info    0x00000000      0xf66 build/FreeRTOS/production/_ext/404212886/event_groups.o
 .debug_abbrev  0x00000000      0x2ed build/FreeRTOS/production/_ext/404212886/event_groups.o
 .debug_loc     0x00000000      0xac5 build/FreeRTOS/production/_ext/404212886/event_groups.o
 .debug_aranges
                0x00000000       0x20 build/FreeRTOS/production/_ext/404212886/event_groups.o
 .debug_ranges  0x00000000       0x48 build/FreeRTOS/production/_ext/404212886/event_groups.o
 .debug_line    0x00000000      0x591 build/FreeRTOS/production/_ext/404212886/event_groups.o
 .debug_str     0x00000000      0x1ac build/FreeRTOS/production/_ext/404212886/event_groups.o
 .comment       0x00000000       0x2c build/FreeRTOS/production/_ext/404212886/event_groups.o
 .debug_frame   0x00000000      0x100 build/FreeRTOS/production/_ext/404212886/event_groups.o
 .ARM.attributes
                0x00000000       0x34 build/FreeRTOS/production/_ext/404212886/event_groups.o
 .text          0x00000000      0x544 build/FreeRTOS/production/_ext/404212886/stream_buffer.o
 .data          0x00000000        0x0 build/FreeRTOS/production/_ext/404212886/stream_buffer.o
 .bss           0x00000000        0x0 build/FreeRTOS/production/_ext/404212886/stream_buffer.o
 .debug_info    0x00000000     0x1d1d build/FreeRTOS/production/_ext/404212886/stream_buffer.o
 .debug_abbrev  0x00000000      0x316 build/FreeRTOS/production/_ext/404212886/stream_buffer.o
 .debug_loc     0x00000000     0x1a59 build/FreeRTOS/production/_ext/404212886/stream_buffer.o
 .debug_aranges
                0x00000000       0x20 build/FreeRTOS/production/_ext/404212886/stream_buffer.o
 .debug_ranges  0x00000000       0x28 build/FreeRTOS/production/_ext/404212886/stream_buffer.o
 .debug_line    0x00000000      0xa11 build/FreeRTOS/production/_ext/404212886/stream_buffer.o
 .debug_str     0x00000000      0x267 build/FreeRTOS/production/_ext/404212886/stream_buffer.o
 .comment       0x00000000       0x2c build/FreeRTOS/production/_ext/404212886/stream_buffer.o
 .debug_frame   0x00000000      0x27c build/FreeRTOS/production/_ext/404212886/stream_buffer.o
 .ARM.attributes
                0x00000000       0x34 build/FreeRTOS/production/_ext/404212886/stream_buffer.o
 .text          0x00000000        0x0 build/FreeRTOS/production/_ext/172253694/pic32mz-crypt.o
 .data          0x00000000        0x0 build/FreeRTOS/production/_ext/172253694/pic32mz-crypt.o
 .bss           0x00000000        0x0 build/FreeRTOS/production/_ext/172253694/pic32mz-crypt.o
 .debug_info    0x00000000      0x304 build/FreeRTOS/production/_ext/172253694/pic32mz-crypt.o
 .debug_abbrev  0x00000000       0x1b build/FreeRTOS/production/_ext/172253694/pic32mz-crypt.o
 .debug_aranges
                0x00000000       0x18 build/FreeRTOS/production/_ext/172253694/pic32mz-crypt.o
 .debug_line    0x00000000       0x1d build/FreeRTOS/production/_ext/172253694/pic32mz-crypt.o
 .debug_str     0x00000000        0x0 build/FreeRTOS/production/_ext/172253694/pic32mz-crypt.o
 .comment       0x00000000       0x2c build/FreeRTOS/production/_ext/172253694/pic32mz-crypt.o
 .ARM.attributes
                0x00000000       0x39 build/FreeRTOS/production/_ext/172253694/pic32mz-crypt.o
 .text          0x00000000        0x0 build/FreeRTOS/production/_ext/172253694/crypt_aes_sam6149.o
 .data          0x00000000        0x0 build/FreeRTOS/production/_ext/172253694/crypt_aes_sam6149.o
 .bss           0x00000000        0x0 build/FreeRTOS/production/_ext/172253694/crypt_aes_sam6149.o
 .debug_info    0x00000000      0x308 build/FreeRTOS/production/_ext/172253694/crypt_aes_sam6149.o
 .debug_abbrev  0x00000000       0x1b build/FreeRTOS/production/_ext/172253694/crypt_aes_sam6149.o
 .debug_aranges
                0x00000000       0x18 build/FreeRTOS/production/_ext/172253694/crypt_aes_sam6149.o
 .debug_line    0x00000000       0x1d build/FreeRTOS/production/_ext/172253694/crypt_aes_sam6149.o
 .debug_str     0x00000000        0x0 build/FreeRTOS/production/_ext/172253694/crypt_aes_sam6149.o
 .comment       0x00000000       0x2c build/FreeRTOS/production/_ext/172253694/crypt_aes_sam6149.o
 .ARM.attributes
                0x00000000       0x39 build/FreeRTOS/production/_ext/172253694/crypt_aes_sam6149.o
 .text          0x00000000        0x0 build/FreeRTOS/production/_ext/172253694/crypt_aes_u2238.o
 .data          0x00000000        0x0 build/FreeRTOS/production/_ext/172253694/crypt_aes_u2238.o
 .bss           0x00000000        0x0 build/FreeRTOS/production/_ext/172253694/crypt_aes_u2238.o
 .debug_info    0x00000000      0x306 build/FreeRTOS/production/_ext/172253694/crypt_aes_u2238.o
 .debug_abbrev  0x00000000       0x1b build/FreeRTOS/production/_ext/172253694/crypt_aes_u2238.o
 .debug_aranges
                0x00000000       0x18 build/FreeRTOS/production/_ext/172253694/crypt_aes_u2238.o
 .debug_line    0x00000000       0x1d build/FreeRTOS/production/_ext/172253694/crypt_aes_u2238.o
 .debug_str     0x00000000        0x0 build/FreeRTOS/production/_ext/172253694/crypt_aes_u2238.o
 .comment       0x00000000       0x2c build/FreeRTOS/production/_ext/172253694/crypt_aes_u2238.o
 .ARM.attributes
                0x00000000       0x39 build/FreeRTOS/production/_ext/172253694/crypt_aes_u2238.o
 .text          0x00000000        0x0 build/FreeRTOS/production/_ext/172253694/crypt_ecc_ba414e.o
 .data          0x00000000        0x0 build/FreeRTOS/production/_ext/172253694/crypt_ecc_ba414e.o
 .bss           0x00000000        0x0 build/FreeRTOS/production/_ext/172253694/crypt_ecc_ba414e.o
 .debug_info    0x00000000      0x2f8 build/FreeRTOS/production/_ext/172253694/crypt_ecc_ba414e.o
 .debug_abbrev  0x00000000       0x1b build/FreeRTOS/production/_ext/172253694/crypt_ecc_ba414e.o
 .debug_aranges
                0x00000000       0x18 build/FreeRTOS/production/_ext/172253694/crypt_ecc_ba414e.o
 .debug_line    0x00000000       0x1d build/FreeRTOS/production/_ext/172253694/crypt_ecc_ba414e.o
 .debug_str     0x00000000        0x0 build/FreeRTOS/production/_ext/172253694/crypt_ecc_ba414e.o
 .comment       0x00000000       0x2c build/FreeRTOS/production/_ext/172253694/crypt_ecc_ba414e.o
 .ARM.attributes
                0x00000000       0x39 build/FreeRTOS/production/_ext/172253694/crypt_ecc_ba414e.o
 .text          0x00000000        0x0 build/FreeRTOS/production/_ext/172253694/crypt_ecc_pukcl.o
 .data          0x00000000        0x0 build/FreeRTOS/production/_ext/172253694/crypt_ecc_pukcl.o
 .bss           0x00000000        0x0 build/FreeRTOS/production/_ext/172253694/crypt_ecc_pukcl.o
 .debug_info    0x00000000      0x306 build/FreeRTOS/production/_ext/172253694/crypt_ecc_pukcl.o
 .debug_abbrev  0x00000000       0x1b build/FreeRTOS/production/_ext/172253694/crypt_ecc_pukcl.o
 .debug_aranges
                0x00000000       0x18 build/FreeRTOS/production/_ext/172253694/crypt_ecc_pukcl.o
 .debug_line    0x00000000       0x1d build/FreeRTOS/production/_ext/172253694/crypt_ecc_pukcl.o
 .debug_str     0x00000000        0x0 build/FreeRTOS/production/_ext/172253694/crypt_ecc_pukcl.o
 .comment       0x00000000       0x2c build/FreeRTOS/production/_ext/172253694/crypt_ecc_pukcl.o
 .ARM.attributes
                0x00000000       0x39 build/FreeRTOS/production/_ext/172253694/crypt_ecc_pukcl.o
 .text          0x00000000       0xd0 build/FreeRTOS/production/_ext/172253694/crypt_pukcl_functions.o
 .data          0x00000000        0x0 build/FreeRTOS/production/_ext/172253694/crypt_pukcl_functions.o
 .bss           0x00000000       0x38 build/FreeRTOS/production/_ext/172253694/crypt_pukcl_functions.o
 .debug_info    0x00000000     0x2947 build/FreeRTOS/production/_ext/172253694/crypt_pukcl_functions.o
 .debug_abbrev  0x00000000      0x19e build/FreeRTOS/production/_ext/172253694/crypt_pukcl_functions.o
 .debug_loc     0x00000000      0x223 build/FreeRTOS/production/_ext/172253694/crypt_pukcl_functions.o
 .debug_aranges
                0x00000000       0x20 build/FreeRTOS/production/_ext/172253694/crypt_pukcl_functions.o
 .debug_line    0x00000000      0x547 build/FreeRTOS/production/_ext/172253694/crypt_pukcl_functions.o
 .debug_str     0x00000000      0x1fe build/FreeRTOS/production/_ext/172253694/crypt_pukcl_functions.o
 .comment       0x00000000       0x2c build/FreeRTOS/production/_ext/172253694/crypt_pukcl_functions.o
 .debug_frame   0x00000000       0x4c build/FreeRTOS/production/_ext/172253694/crypt_pukcl_functions.o
 .ARM.attributes
                0x00000000       0x34 build/FreeRTOS/production/_ext/172253694/crypt_pukcl_functions.o
 .text          0x00000000        0x0 build/FreeRTOS/production/_ext/172253694/crypt_rng_sam6334.o
 .data          0x00000000        0x0 build/FreeRTOS/production/_ext/172253694/crypt_rng_sam6334.o
 .bss           0x00000000        0x0 build/FreeRTOS/production/_ext/172253694/crypt_rng_sam6334.o
 .debug_info    0x00000000      0x308 build/FreeRTOS/production/_ext/172253694/crypt_rng_sam6334.o
 .debug_abbrev  0x00000000       0x1b build/FreeRTOS/production/_ext/172253694/crypt_rng_sam6334.o
 .debug_aranges
                0x00000000       0x18 build/FreeRTOS/production/_ext/172253694/crypt_rng_sam6334.o
 .debug_line    0x00000000       0x1d build/FreeRTOS/production/_ext/172253694/crypt_rng_sam6334.o
 .debug_str     0x00000000        0x0 build/FreeRTOS/production/_ext/172253694/crypt_rng_sam6334.o
 .comment       0x00000000       0x2c build/FreeRTOS/production/_ext/172253694/crypt_rng_sam6334.o
 .ARM.attributes
                0x00000000       0x39 build/FreeRTOS/production/_ext/172253694/crypt_rng_sam6334.o
 .text          0x00000000        0x0 build/FreeRTOS/production/_ext/172253694/crypt_rng_u2242.o
 .data          0x00000000        0x0 build/FreeRTOS/production/_ext/172253694/crypt_rng_u2242.o
 .bss           0x00000000        0x0 build/FreeRTOS/production/_ext/172253694/crypt_rng_u2242.o
 .debug_info    0x00000000      0x306 build/FreeRTOS/production/_ext/172253694/crypt_rng_u2242.o
 .debug_abbrev  0x00000000       0x1b build/FreeRTOS/production/_ext/172253694/crypt_rng_u2242.o
 .debug_aranges
                0x00000000       0x18 build/FreeRTOS/production/_ext/172253694/crypt_rng_u2242.o
 .debug_line    0x00000000       0x1d build/FreeRTOS/production/_ext/172253694/crypt_rng_u2242.o
 .debug_str     0x00000000        0x0 build/FreeRTOS/production/_ext/172253694/crypt_rng_u2242.o
 .comment       0x00000000       0x2c build/FreeRTOS/production/_ext/172253694/crypt_rng_u2242.o
 .ARM.attributes
                0x00000000       0x39 build/FreeRTOS/production/_ext/172253694/crypt_rng_u2242.o
 .text          0x00000000        0x0 build/FreeRTOS/production/_ext/172253694/crypt_rsa_pukcl.o
 .data          0x00000000        0x0 build/FreeRTOS/production/_ext/172253694/crypt_rsa_pukcl.o
 .bss           0x00000000        0x0 build/FreeRTOS/production/_ext/172253694/crypt_rsa_pukcl.o
 .debug_info    0x00000000      0x306 build/FreeRTOS/production/_ext/172253694/crypt_rsa_pukcl.o
 .debug_abbrev  0x00000000       0x1b build/FreeRTOS/production/_ext/172253694/crypt_rsa_pukcl.o
 .debug_aranges
                0x00000000       0x18 build/FreeRTOS/production/_ext/172253694/crypt_rsa_pukcl.o
 .debug_line    0x00000000       0x1d build/FreeRTOS/production/_ext/172253694/crypt_rsa_pukcl.o
 .debug_str     0x00000000        0x0 build/FreeRTOS/production/_ext/172253694/crypt_rsa_pukcl.o
 .comment       0x00000000       0x2c build/FreeRTOS/production/_ext/172253694/crypt_rsa_pukcl.o
 .ARM.attributes
                0x00000000       0x39 build/FreeRTOS/production/_ext/172253694/crypt_rsa_pukcl.o
 .text          0x00000000        0x0 build/FreeRTOS/production/_ext/172253694/crypt_sam_u2803.o
 .data          0x00000000        0x0 build/FreeRTOS/production/_ext/172253694/crypt_sam_u2803.o
 .bss           0x00000000        0x0 build/FreeRTOS/production/_ext/172253694/crypt_sam_u2803.o
 .debug_info    0x00000000      0x2f7 build/FreeRTOS/production/_ext/172253694/crypt_sam_u2803.o
 .debug_abbrev  0x00000000       0x1b build/FreeRTOS/production/_ext/172253694/crypt_sam_u2803.o
 .debug_aranges
                0x00000000       0x18 build/FreeRTOS/production/_ext/172253694/crypt_sam_u2803.o
 .debug_line    0x00000000       0x1d build/FreeRTOS/production/_ext/172253694/crypt_sam_u2803.o
 .debug_str     0x00000000        0x0 build/FreeRTOS/production/_ext/172253694/crypt_sam_u2803.o
 .comment       0x00000000       0x2c build/FreeRTOS/production/_ext/172253694/crypt_sam_u2803.o
 .ARM.attributes
                0x00000000       0x39 build/FreeRTOS/production/_ext/172253694/crypt_sam_u2803.o
 .text          0x00000000        0x0 build/FreeRTOS/production/_ext/172253694/crypt_sha1_sam11105.o
 .data          0x00000000        0x0 build/FreeRTOS/production/_ext/172253694/crypt_sha1_sam11105.o
 .bss           0x00000000        0x0 build/FreeRTOS/production/_ext/172253694/crypt_sha1_sam11105.o
 .debug_info    0x00000000      0x30a build/FreeRTOS/production/_ext/172253694/crypt_sha1_sam11105.o
 .debug_abbrev  0x00000000       0x1b build/FreeRTOS/production/_ext/172253694/crypt_sha1_sam11105.o
 .debug_aranges
                0x00000000       0x18 build/FreeRTOS/production/_ext/172253694/crypt_sha1_sam11105.o
 .debug_line    0x00000000       0x1d build/FreeRTOS/production/_ext/172253694/crypt_sha1_sam11105.o
 .debug_str     0x00000000        0x0 build/FreeRTOS/production/_ext/172253694/crypt_sha1_sam11105.o
 .comment       0x00000000       0x2c build/FreeRTOS/production/_ext/172253694/crypt_sha1_sam11105.o
 .ARM.attributes
                0x00000000       0x39 build/FreeRTOS/production/_ext/172253694/crypt_sha1_sam11105.o
 .text          0x00000000        0x0 build/FreeRTOS/production/_ext/172253694/crypt_sha1_sam6156.o
 .data          0x00000000        0x0 build/FreeRTOS/production/_ext/172253694/crypt_sha1_sam6156.o
 .bss           0x00000000        0x0 build/FreeRTOS/production/_ext/172253694/crypt_sha1_sam6156.o
 .debug_info    0x00000000      0x309 build/FreeRTOS/production/_ext/172253694/crypt_sha1_sam6156.o
 .debug_abbrev  0x00000000       0x1b build/FreeRTOS/production/_ext/172253694/crypt_sha1_sam6156.o
 .debug_aranges
                0x00000000       0x18 build/FreeRTOS/production/_ext/172253694/crypt_sha1_sam6156.o
 .debug_line    0x00000000       0x1d build/FreeRTOS/production/_ext/172253694/crypt_sha1_sam6156.o
 .debug_str     0x00000000        0x0 build/FreeRTOS/production/_ext/172253694/crypt_sha1_sam6156.o
 .comment       0x00000000       0x2c build/FreeRTOS/production/_ext/172253694/crypt_sha1_sam6156.o
 .ARM.attributes
                0x00000000       0x39 build/FreeRTOS/production/_ext/172253694/crypt_sha1_sam6156.o
 .text          0x00000000        0x0 build/FreeRTOS/production/_ext/172253694/crypt_sha224_sam11105.o
 .data          0x00000000        0x0 build/FreeRTOS/production/_ext/172253694/crypt_sha224_sam11105.o
 .bss           0x00000000        0x0 build/FreeRTOS/production/_ext/172253694/crypt_sha224_sam11105.o
 .debug_info    0x00000000      0x30c build/FreeRTOS/production/_ext/172253694/crypt_sha224_sam11105.o
 .debug_abbrev  0x00000000       0x1b build/FreeRTOS/production/_ext/172253694/crypt_sha224_sam11105.o
 .debug_aranges
                0x00000000       0x18 build/FreeRTOS/production/_ext/172253694/crypt_sha224_sam11105.o
 .debug_line    0x00000000       0x1d build/FreeRTOS/production/_ext/172253694/crypt_sha224_sam11105.o
 .debug_str     0x00000000        0x0 build/FreeRTOS/production/_ext/172253694/crypt_sha224_sam11105.o
 .comment       0x00000000       0x2c build/FreeRTOS/production/_ext/172253694/crypt_sha224_sam11105.o
 .ARM.attributes
                0x00000000       0x39 build/FreeRTOS/production/_ext/172253694/crypt_sha224_sam11105.o
 .text          0x00000000        0x0 build/FreeRTOS/production/_ext/172253694/crypt_sha224_sam6156.o
 .data          0x00000000        0x0 build/FreeRTOS/production/_ext/172253694/crypt_sha224_sam6156.o
 .bss           0x00000000        0x0 build/FreeRTOS/production/_ext/172253694/crypt_sha224_sam6156.o
 .debug_info    0x00000000      0x30b build/FreeRTOS/production/_ext/172253694/crypt_sha224_sam6156.o
 .debug_abbrev  0x00000000       0x1b build/FreeRTOS/production/_ext/172253694/crypt_sha224_sam6156.o
 .debug_aranges
                0x00000000       0x18 build/FreeRTOS/production/_ext/172253694/crypt_sha224_sam6156.o
 .debug_line    0x00000000       0x1d build/FreeRTOS/production/_ext/172253694/crypt_sha224_sam6156.o
 .debug_str     0x00000000        0x0 build/FreeRTOS/production/_ext/172253694/crypt_sha224_sam6156.o
 .comment       0x00000000       0x2c build/FreeRTOS/production/_ext/172253694/crypt_sha224_sam6156.o
 .ARM.attributes
                0x00000000       0x39 build/FreeRTOS/production/_ext/172253694/crypt_sha224_sam6156.o
 .text          0x00000000        0x0 build/FreeRTOS/production/_ext/172253694/crypt_sha256_sam11105.o
 .data          0x00000000        0x0 build/FreeRTOS/production/_ext/172253694/crypt_sha256_sam11105.o
 .bss           0x00000000        0x0 build/FreeRTOS/production/_ext/172253694/crypt_sha256_sam11105.o
 .debug_info    0x00000000      0x30c build/FreeRTOS/production/_ext/172253694/crypt_sha256_sam11105.o
 .debug_abbrev  0x00000000       0x1b build/FreeRTOS/production/_ext/172253694/crypt_sha256_sam11105.o
 .debug_aranges
                0x00000000       0x18 build/FreeRTOS/production/_ext/172253694/crypt_sha256_sam11105.o
 .debug_line    0x00000000       0x1d build/FreeRTOS/production/_ext/172253694/crypt_sha256_sam11105.o
 .debug_str     0x00000000        0x0 build/FreeRTOS/production/_ext/172253694/crypt_sha256_sam11105.o
 .comment       0x00000000       0x2c build/FreeRTOS/production/_ext/172253694/crypt_sha256_sam11105.o
 .ARM.attributes
                0x00000000       0x39 build/FreeRTOS/production/_ext/172253694/crypt_sha256_sam11105.o
 .text          0x00000000        0x0 build/FreeRTOS/production/_ext/172253694/crypt_sha256_sam6156.o
 .data          0x00000000        0x0 build/FreeRTOS/production/_ext/172253694/crypt_sha256_sam6156.o
 .bss           0x00000000        0x0 build/FreeRTOS/production/_ext/172253694/crypt_sha256_sam6156.o
 .debug_info    0x00000000      0x30b build/FreeRTOS/production/_ext/172253694/crypt_sha256_sam6156.o
 .debug_abbrev  0x00000000       0x1b build/FreeRTOS/production/_ext/172253694/crypt_sha256_sam6156.o
 .debug_aranges
                0x00000000       0x18 build/FreeRTOS/production/_ext/172253694/crypt_sha256_sam6156.o
 .debug_line    0x00000000       0x1d build/FreeRTOS/production/_ext/172253694/crypt_sha256_sam6156.o
 .debug_str     0x00000000        0x0 build/FreeRTOS/production/_ext/172253694/crypt_sha256_sam6156.o
 .comment       0x00000000       0x2c build/FreeRTOS/production/_ext/172253694/crypt_sha256_sam6156.o
 .ARM.attributes
                0x00000000       0x39 build/FreeRTOS/production/_ext/172253694/crypt_sha256_sam6156.o
 .text          0x00000000        0x0 build/FreeRTOS/production/_ext/172253694/crypt_sha384_sam6156.o
 .data          0x00000000        0x0 build/FreeRTOS/production/_ext/172253694/crypt_sha384_sam6156.o
 .bss           0x00000000        0x0 build/FreeRTOS/production/_ext/172253694/crypt_sha384_sam6156.o
 .debug_info    0x00000000      0x30b build/FreeRTOS/production/_ext/172253694/crypt_sha384_sam6156.o
 .debug_abbrev  0x00000000       0x1b build/FreeRTOS/production/_ext/172253694/crypt_sha384_sam6156.o
 .debug_aranges
                0x00000000       0x18 build/FreeRTOS/production/_ext/172253694/crypt_sha384_sam6156.o
 .debug_line    0x00000000       0x1d build/FreeRTOS/production/_ext/172253694/crypt_sha384_sam6156.o
 .debug_str     0x00000000        0x0 build/FreeRTOS/production/_ext/172253694/crypt_sha384_sam6156.o
 .comment       0x00000000       0x2c build/FreeRTOS/production/_ext/172253694/crypt_sha384_sam6156.o
 .ARM.attributes
                0x00000000       0x39 build/FreeRTOS/production/_ext/172253694/crypt_sha384_sam6156.o
 .text          0x00000000        0x0 build/FreeRTOS/production/_ext/172253694/crypt_sha512_sam6156.o
 .data          0x00000000        0x0 build/FreeRTOS/production/_ext/172253694/crypt_sha512_sam6156.o
 .bss           0x00000000        0x0 build/FreeRTOS/production/_ext/172253694/crypt_sha512_sam6156.o
 .debug_info    0x00000000      0x30b build/FreeRTOS/production/_ext/172253694/crypt_sha512_sam6156.o
 .debug_abbrev  0x00000000       0x1b build/FreeRTOS/production/_ext/172253694/crypt_sha512_sam6156.o
 .debug_aranges
                0x00000000       0x18 build/FreeRTOS/production/_ext/172253694/crypt_sha512_sam6156.o
 .debug_line    0x00000000       0x1d build/FreeRTOS/production/_ext/172253694/crypt_sha512_sam6156.o
 .debug_str     0x00000000        0x0 build/FreeRTOS/production/_ext/172253694/crypt_sha512_sam6156.o
 .comment       0x00000000       0x2c build/FreeRTOS/production/_ext/172253694/crypt_sha512_sam6156.o
 .ARM.attributes
                0x00000000       0x39 build/FreeRTOS/production/_ext/172253694/crypt_sha512_sam6156.o
 .text          0x00000000        0x0 build/FreeRTOS/production/_ext/172253694/crypt_tdes_sam6150.o
 .data          0x00000000        0x0 build/FreeRTOS/production/_ext/172253694/crypt_tdes_sam6150.o
 .bss           0x00000000        0x0 build/FreeRTOS/production/_ext/172253694/crypt_tdes_sam6150.o
 .debug_info    0x00000000      0x2fa build/FreeRTOS/production/_ext/172253694/crypt_tdes_sam6150.o
 .debug_abbrev  0x00000000       0x1b build/FreeRTOS/production/_ext/172253694/crypt_tdes_sam6150.o
 .debug_aranges
                0x00000000       0x18 build/FreeRTOS/production/_ext/172253694/crypt_tdes_sam6150.o
 .debug_line    0x00000000       0x1d build/FreeRTOS/production/_ext/172253694/crypt_tdes_sam6150.o
 .debug_str     0x00000000        0x0 build/FreeRTOS/production/_ext/172253694/crypt_tdes_sam6150.o
 .comment       0x00000000       0x2c build/FreeRTOS/production/_ext/172253694/crypt_tdes_sam6150.o
 .ARM.attributes
                0x00000000       0x39 build/FreeRTOS/production/_ext/172253694/crypt_tdes_sam6150.o
 .data          0x00000000        0x0 build/FreeRTOS/production/_ext/172253694/crypt_wolfcryptcb.o
 .bss           0x00000000        0x0 build/FreeRTOS/production/_ext/172253694/crypt_wolfcryptcb.o
 .text          0x00000000        0x0 build/FreeRTOS/production/_ext/1664057780/arc4.o
 .data          0x00000000        0x0 build/FreeRTOS/production/_ext/1664057780/arc4.o
 .bss           0x00000000        0x0 build/FreeRTOS/production/_ext/1664057780/arc4.o
 .debug_info    0x00000000      0x2f0 build/FreeRTOS/production/_ext/1664057780/arc4.o
 .debug_abbrev  0x00000000       0x1b build/FreeRTOS/production/_ext/1664057780/arc4.o
 .debug_aranges
                0x00000000       0x18 build/FreeRTOS/production/_ext/1664057780/arc4.o
 .debug_line    0x00000000       0x1d build/FreeRTOS/production/_ext/1664057780/arc4.o
 .debug_str     0x00000000        0x0 build/FreeRTOS/production/_ext/1664057780/arc4.o
 .comment       0x00000000       0x2c build/FreeRTOS/production/_ext/1664057780/arc4.o
 .ARM.attributes
                0x00000000       0x39 build/FreeRTOS/production/_ext/1664057780/arc4.o
 .text          0x00000000        0x0 build/FreeRTOS/production/_ext/1664057780/asm.o
 .data          0x00000000        0x0 build/FreeRTOS/production/_ext/1664057780/asm.o
 .bss           0x00000000        0x0 build/FreeRTOS/production/_ext/1664057780/asm.o
 .debug_info    0x00000000      0x2ef build/FreeRTOS/production/_ext/1664057780/asm.o
 .debug_abbrev  0x00000000       0x1b build/FreeRTOS/production/_ext/1664057780/asm.o
 .debug_aranges
                0x00000000       0x18 build/FreeRTOS/production/_ext/1664057780/asm.o
 .debug_line    0x00000000       0x1d build/FreeRTOS/production/_ext/1664057780/asm.o
 .debug_str     0x00000000        0x0 build/FreeRTOS/production/_ext/1664057780/asm.o
 .comment       0x00000000       0x2c build/FreeRTOS/production/_ext/1664057780/asm.o
 .ARM.attributes
                0x00000000       0x39 build/FreeRTOS/production/_ext/1664057780/asm.o
 .data          0x00000000        0x0 build/FreeRTOS/production/_ext/1664057780/asn.o
 .text          0x00000000        0x0 build/FreeRTOS/production/_ext/1664057780/blake2b.o
 .data          0x00000000        0x0 build/FreeRTOS/production/_ext/1664057780/blake2b.o
 .bss           0x00000000        0x0 build/FreeRTOS/production/_ext/1664057780/blake2b.o
 .debug_info    0x00000000      0x2f3 build/FreeRTOS/production/_ext/1664057780/blake2b.o
 .debug_abbrev  0x00000000       0x1b build/FreeRTOS/production/_ext/1664057780/blake2b.o
 .debug_aranges
                0x00000000       0x18 build/FreeRTOS/production/_ext/1664057780/blake2b.o
 .debug_line    0x00000000       0x1d build/FreeRTOS/production/_ext/1664057780/blake2b.o
 .debug_str     0x00000000        0x0 build/FreeRTOS/production/_ext/1664057780/blake2b.o
 .comment       0x00000000       0x2c build/FreeRTOS/production/_ext/1664057780/blake2b.o
 .ARM.attributes
                0x00000000       0x39 build/FreeRTOS/production/_ext/1664057780/blake2b.o
 .text          0x00000000        0x0 build/FreeRTOS/production/_ext/1664057780/blake2s.o
 .data          0x00000000        0x0 build/FreeRTOS/production/_ext/1664057780/blake2s.o
 .bss           0x00000000        0x0 build/FreeRTOS/production/_ext/1664057780/blake2s.o
 .debug_info    0x00000000      0x2f3 build/FreeRTOS/production/_ext/1664057780/blake2s.o
 .debug_abbrev  0x00000000       0x1b build/FreeRTOS/production/_ext/1664057780/blake2s.o
 .debug_aranges
                0x00000000       0x18 build/FreeRTOS/production/_ext/1664057780/blake2s.o
 .debug_line    0x00000000       0x1d build/FreeRTOS/production/_ext/1664057780/blake2s.o
 .debug_str     0x00000000        0x0 build/FreeRTOS/production/_ext/1664057780/blake2s.o
 .comment       0x00000000       0x2c build/FreeRTOS/production/_ext/1664057780/blake2s.o
 .ARM.attributes
                0x00000000       0x39 build/FreeRTOS/production/_ext/1664057780/blake2s.o
 .text          0x00000000        0x0 build/FreeRTOS/production/_ext/1664057780/camellia.o
 .data          0x00000000        0x0 build/FreeRTOS/production/_ext/1664057780/camellia.o
 .bss           0x00000000        0x0 build/FreeRTOS/production/_ext/1664057780/camellia.o
 .debug_info    0x00000000      0x2f4 build/FreeRTOS/production/_ext/1664057780/camellia.o
 .debug_abbrev  0x00000000       0x1b build/FreeRTOS/production/_ext/1664057780/camellia.o
 .debug_aranges
                0x00000000       0x18 build/FreeRTOS/production/_ext/1664057780/camellia.o
 .debug_line    0x00000000       0x1d build/FreeRTOS/production/_ext/1664057780/camellia.o
 .debug_str     0x00000000        0x0 build/FreeRTOS/production/_ext/1664057780/camellia.o
 .comment       0x00000000       0x2c build/FreeRTOS/production/_ext/1664057780/camellia.o
 .ARM.attributes
                0x00000000       0x39 build/FreeRTOS/production/_ext/1664057780/camellia.o
 .text          0x00000000        0x0 build/FreeRTOS/production/_ext/1664057780/chacha.o
 .data          0x00000000        0x0 build/FreeRTOS/production/_ext/1664057780/chacha.o
 .bss           0x00000000        0x0 build/FreeRTOS/production/_ext/1664057780/chacha.o
 .debug_info    0x00000000      0x2f2 build/FreeRTOS/production/_ext/1664057780/chacha.o
 .debug_abbrev  0x00000000       0x1b build/FreeRTOS/production/_ext/1664057780/chacha.o
 .debug_aranges
                0x00000000       0x18 build/FreeRTOS/production/_ext/1664057780/chacha.o
 .debug_line    0x00000000       0x1d build/FreeRTOS/production/_ext/1664057780/chacha.o
 .debug_str     0x00000000        0x0 build/FreeRTOS/production/_ext/1664057780/chacha.o
 .comment       0x00000000       0x2c build/FreeRTOS/production/_ext/1664057780/chacha.o
 .ARM.attributes
                0x00000000       0x39 build/FreeRTOS/production/_ext/1664057780/chacha.o
 .text          0x00000000        0x0 build/FreeRTOS/production/_ext/1664057780/chacha20_poly1305.o
 .data          0x00000000        0x0 build/FreeRTOS/production/_ext/1664057780/chacha20_poly1305.o
 .bss           0x00000000        0x0 build/FreeRTOS/production/_ext/1664057780/chacha20_poly1305.o
 .debug_info    0x00000000      0x2fd build/FreeRTOS/production/_ext/1664057780/chacha20_poly1305.o
 .debug_abbrev  0x00000000       0x1b build/FreeRTOS/production/_ext/1664057780/chacha20_poly1305.o
 .debug_aranges
                0x00000000       0x18 build/FreeRTOS/production/_ext/1664057780/chacha20_poly1305.o
 .debug_line    0x00000000       0x1d build/FreeRTOS/production/_ext/1664057780/chacha20_poly1305.o
 .debug_str     0x00000000        0x0 build/FreeRTOS/production/_ext/1664057780/chacha20_poly1305.o
 .comment       0x00000000       0x2c build/FreeRTOS/production/_ext/1664057780/chacha20_poly1305.o
 .ARM.attributes
                0x00000000       0x39 build/FreeRTOS/production/_ext/1664057780/chacha20_poly1305.o
 .text          0x00000000        0x0 build/FreeRTOS/production/_ext/1664057780/cmac.o
 .data          0x00000000        0x0 build/FreeRTOS/production/_ext/1664057780/cmac.o
 .bss           0x00000000        0x0 build/FreeRTOS/production/_ext/1664057780/cmac.o
 .debug_info    0x00000000      0x2f0 build/FreeRTOS/production/_ext/1664057780/cmac.o
 .debug_abbrev  0x00000000       0x1b build/FreeRTOS/production/_ext/1664057780/cmac.o
 .debug_aranges
                0x00000000       0x18 build/FreeRTOS/production/_ext/1664057780/cmac.o
 .debug_line    0x00000000       0x1d build/FreeRTOS/production/_ext/1664057780/cmac.o
 .debug_str     0x00000000        0x0 build/FreeRTOS/production/_ext/1664057780/cmac.o
 .comment       0x00000000       0x2c build/FreeRTOS/production/_ext/1664057780/cmac.o
 .ARM.attributes
                0x00000000       0x39 build/FreeRTOS/production/_ext/1664057780/cmac.o
 .data          0x00000000        0x0 build/FreeRTOS/production/_ext/1664057780/coding.o
 .bss           0x00000000        0x0 build/FreeRTOS/production/_ext/1664057780/coding.o
 .text          0x00000000        0x0 build/FreeRTOS/production/_ext/1664057780/compress.o
 .data          0x00000000        0x0 build/FreeRTOS/production/_ext/1664057780/compress.o
 .bss           0x00000000        0x0 build/FreeRTOS/production/_ext/1664057780/compress.o
 .debug_info    0x00000000      0x2f4 build/FreeRTOS/production/_ext/1664057780/compress.o
 .debug_abbrev  0x00000000       0x1b build/FreeRTOS/production/_ext/1664057780/compress.o
 .debug_aranges
                0x00000000       0x18 build/FreeRTOS/production/_ext/1664057780/compress.o
 .debug_line    0x00000000       0x1d build/FreeRTOS/production/_ext/1664057780/compress.o
 .debug_str     0x00000000        0x0 build/FreeRTOS/production/_ext/1664057780/compress.o
 .comment       0x00000000       0x2c build/FreeRTOS/production/_ext/1664057780/compress.o
 .ARM.attributes
                0x00000000       0x39 build/FreeRTOS/production/_ext/1664057780/compress.o
 .text          0x00000000        0x0 build/FreeRTOS/production/_ext/1664057780/cpuid.o
 .data          0x00000000        0x0 build/FreeRTOS/production/_ext/1664057780/cpuid.o
 .bss           0x00000000        0x0 build/FreeRTOS/production/_ext/1664057780/cpuid.o
 .debug_info    0x00000000      0x2f1 build/FreeRTOS/production/_ext/1664057780/cpuid.o
 .debug_abbrev  0x00000000       0x1b build/FreeRTOS/production/_ext/1664057780/cpuid.o
 .debug_aranges
                0x00000000       0x18 build/FreeRTOS/production/_ext/1664057780/cpuid.o
 .debug_line    0x00000000       0x1d build/FreeRTOS/production/_ext/1664057780/cpuid.o
 .debug_str     0x00000000        0x0 build/FreeRTOS/production/_ext/1664057780/cpuid.o
 .comment       0x00000000       0x2c build/FreeRTOS/production/_ext/1664057780/cpuid.o
 .ARM.attributes
                0x00000000       0x39 build/FreeRTOS/production/_ext/1664057780/cpuid.o
 .data          0x00000000        0x0 build/FreeRTOS/production/_ext/1664057780/cryptocb.o
 .text          0x00000000        0x0 build/FreeRTOS/production/_ext/1664057780/curve25519.o
 .data          0x00000000        0x0 build/FreeRTOS/production/_ext/1664057780/curve25519.o
 .bss           0x00000000        0x0 build/FreeRTOS/production/_ext/1664057780/curve25519.o
 .debug_info    0x00000000      0x2f6 build/FreeRTOS/production/_ext/1664057780/curve25519.o
 .debug_abbrev  0x00000000       0x1b build/FreeRTOS/production/_ext/1664057780/curve25519.o
 .debug_aranges
                0x00000000       0x18 build/FreeRTOS/production/_ext/1664057780/curve25519.o
 .debug_line    0x00000000       0x1d build/FreeRTOS/production/_ext/1664057780/curve25519.o
 .debug_str     0x00000000        0x0 build/FreeRTOS/production/_ext/1664057780/curve25519.o
 .comment       0x00000000       0x2c build/FreeRTOS/production/_ext/1664057780/curve25519.o
 .ARM.attributes
                0x00000000       0x39 build/FreeRTOS/production/_ext/1664057780/curve25519.o
 .text          0x00000000        0x0 build/FreeRTOS/production/_ext/1664057780/curve448.o
 .data          0x00000000        0x0 build/FreeRTOS/production/_ext/1664057780/curve448.o
 .bss           0x00000000        0x0 build/FreeRTOS/production/_ext/1664057780/curve448.o
 .debug_info    0x00000000      0x2f4 build/FreeRTOS/production/_ext/1664057780/curve448.o
 .debug_abbrev  0x00000000       0x1b build/FreeRTOS/production/_ext/1664057780/curve448.o
 .debug_aranges
                0x00000000       0x18 build/FreeRTOS/production/_ext/1664057780/curve448.o
 .debug_line    0x00000000       0x1d build/FreeRTOS/production/_ext/1664057780/curve448.o
 .debug_str     0x00000000        0x0 build/FreeRTOS/production/_ext/1664057780/curve448.o
 .comment       0x00000000       0x2c build/FreeRTOS/production/_ext/1664057780/curve448.o
 .ARM.attributes
                0x00000000       0x39 build/FreeRTOS/production/_ext/1664057780/curve448.o
 .text          0x00000000        0x0 build/FreeRTOS/production/_ext/1664057780/dh.o
 .data          0x00000000        0x0 build/FreeRTOS/production/_ext/1664057780/dh.o
 .bss           0x00000000        0x0 build/FreeRTOS/production/_ext/1664057780/dh.o
 .debug_info    0x00000000      0x2ee build/FreeRTOS/production/_ext/1664057780/dh.o
 .debug_abbrev  0x00000000       0x1b build/FreeRTOS/production/_ext/1664057780/dh.o
 .debug_aranges
                0x00000000       0x18 build/FreeRTOS/production/_ext/1664057780/dh.o
 .debug_line    0x00000000       0x1d build/FreeRTOS/production/_ext/1664057780/dh.o
 .debug_str     0x00000000        0x0 build/FreeRTOS/production/_ext/1664057780/dh.o
 .comment       0x00000000       0x2c build/FreeRTOS/production/_ext/1664057780/dh.o
 .ARM.attributes
                0x00000000       0x39 build/FreeRTOS/production/_ext/1664057780/dh.o
 .text          0x00000000        0x0 build/FreeRTOS/production/_ext/1664057780/dsa.o
 .data          0x00000000        0x0 build/FreeRTOS/production/_ext/1664057780/dsa.o
 .bss           0x00000000        0x0 build/FreeRTOS/production/_ext/1664057780/dsa.o
 .debug_info    0x00000000      0x2ef build/FreeRTOS/production/_ext/1664057780/dsa.o
 .debug_abbrev  0x00000000       0x1b build/FreeRTOS/production/_ext/1664057780/dsa.o
 .debug_aranges
                0x00000000       0x18 build/FreeRTOS/production/_ext/1664057780/dsa.o
 .debug_line    0x00000000       0x1d build/FreeRTOS/production/_ext/1664057780/dsa.o
 .debug_str     0x00000000        0x0 build/FreeRTOS/production/_ext/1664057780/dsa.o
 .comment       0x00000000       0x2c build/FreeRTOS/production/_ext/1664057780/dsa.o
 .ARM.attributes
                0x00000000       0x39 build/FreeRTOS/production/_ext/1664057780/dsa.o
 .text          0x00000000        0x0 build/FreeRTOS/production/_ext/1664057780/ecc_fp.o
 .data          0x00000000        0x0 build/FreeRTOS/production/_ext/1664057780/ecc_fp.o
 .bss           0x00000000        0x0 build/FreeRTOS/production/_ext/1664057780/ecc_fp.o
 .debug_line    0x00000000        0x0 build/FreeRTOS/production/_ext/1664057780/ecc_fp.o
 .debug_str     0x00000000        0x0 build/FreeRTOS/production/_ext/1664057780/ecc_fp.o
 .comment       0x00000000       0x2c build/FreeRTOS/production/_ext/1664057780/ecc_fp.o
 .ARM.attributes
                0x00000000       0x39 build/FreeRTOS/production/_ext/1664057780/ecc_fp.o
 .text          0x00000000        0x0 build/FreeRTOS/production/_ext/1664057780/ed25519.o
 .data          0x00000000        0x0 build/FreeRTOS/production/_ext/1664057780/ed25519.o
 .bss           0x00000000        0x0 build/FreeRTOS/production/_ext/1664057780/ed25519.o
 .debug_info    0x00000000      0x2f3 build/FreeRTOS/production/_ext/1664057780/ed25519.o
 .debug_abbrev  0x00000000       0x1b build/FreeRTOS/production/_ext/1664057780/ed25519.o
 .debug_aranges
                0x00000000       0x18 build/FreeRTOS/production/_ext/1664057780/ed25519.o
 .debug_line    0x00000000       0x1d build/FreeRTOS/production/_ext/1664057780/ed25519.o
 .debug_str     0x00000000        0x0 build/FreeRTOS/production/_ext/1664057780/ed25519.o
 .comment       0x00000000       0x2c build/FreeRTOS/production/_ext/1664057780/ed25519.o
 .ARM.attributes
                0x00000000       0x39 build/FreeRTOS/production/_ext/1664057780/ed25519.o
 .text          0x00000000        0x0 build/FreeRTOS/production/_ext/1664057780/ed448.o
 .data          0x00000000        0x0 build/FreeRTOS/production/_ext/1664057780/ed448.o
 .bss           0x00000000        0x0 build/FreeRTOS/production/_ext/1664057780/ed448.o
 .debug_info    0x00000000      0x2f1 build/FreeRTOS/production/_ext/1664057780/ed448.o
 .debug_abbrev  0x00000000       0x1b build/FreeRTOS/production/_ext/1664057780/ed448.o
 .debug_aranges
                0x00000000       0x18 build/FreeRTOS/production/_ext/1664057780/ed448.o
 .debug_line    0x00000000       0x1d build/FreeRTOS/production/_ext/1664057780/ed448.o
 .debug_str     0x00000000        0x0 build/FreeRTOS/production/_ext/1664057780/ed448.o
 .comment       0x00000000       0x2c build/FreeRTOS/production/_ext/1664057780/ed448.o
 .ARM.attributes
                0x00000000       0x39 build/FreeRTOS/production/_ext/1664057780/ed448.o
 .text          0x00000000        0x0 build/FreeRTOS/production/_ext/1664057780/error.o
 .data          0x00000000        0x0 build/FreeRTOS/production/_ext/1664057780/error.o
 .bss           0x00000000        0x0 build/FreeRTOS/production/_ext/1664057780/error.o
 .debug_info    0x00000000      0x2f1 build/FreeRTOS/production/_ext/1664057780/error.o
 .debug_abbrev  0x00000000       0x1b build/FreeRTOS/production/_ext/1664057780/error.o
 .debug_aranges
                0x00000000       0x18 build/FreeRTOS/production/_ext/1664057780/error.o
 .debug_line    0x00000000       0x1d build/FreeRTOS/production/_ext/1664057780/error.o
 .debug_str     0x00000000        0x0 build/FreeRTOS/production/_ext/1664057780/error.o
 .comment       0x00000000       0x2c build/FreeRTOS/production/_ext/1664057780/error.o
 .ARM.attributes
                0x00000000       0x39 build/FreeRTOS/production/_ext/1664057780/error.o
 .text          0x00000000        0x0 build/FreeRTOS/production/_ext/1664057780/fe_448.o
 .data          0x00000000        0x0 build/FreeRTOS/production/_ext/1664057780/fe_448.o
 .bss           0x00000000        0x0 build/FreeRTOS/production/_ext/1664057780/fe_448.o
 .debug_info    0x00000000      0x2f2 build/FreeRTOS/production/_ext/1664057780/fe_448.o
 .debug_abbrev  0x00000000       0x1b build/FreeRTOS/production/_ext/1664057780/fe_448.o
 .debug_aranges
                0x00000000       0x18 build/FreeRTOS/production/_ext/1664057780/fe_448.o
 .debug_line    0x00000000       0x1d build/FreeRTOS/production/_ext/1664057780/fe_448.o
 .debug_str     0x00000000        0x0 build/FreeRTOS/production/_ext/1664057780/fe_448.o
 .comment       0x00000000       0x2c build/FreeRTOS/production/_ext/1664057780/fe_448.o
 .ARM.attributes
                0x00000000       0x39 build/FreeRTOS/production/_ext/1664057780/fe_448.o
 .text          0x00000000        0x0 build/FreeRTOS/production/_ext/1664057780/fe_low_mem.o
 .data          0x00000000        0x0 build/FreeRTOS/production/_ext/1664057780/fe_low_mem.o
 .bss           0x00000000        0x0 build/FreeRTOS/production/_ext/1664057780/fe_low_mem.o
 .debug_info    0x00000000      0x2f6 build/FreeRTOS/production/_ext/1664057780/fe_low_mem.o
 .debug_abbrev  0x00000000       0x1b build/FreeRTOS/production/_ext/1664057780/fe_low_mem.o
 .debug_aranges
                0x00000000       0x18 build/FreeRTOS/production/_ext/1664057780/fe_low_mem.o
 .debug_line    0x00000000       0x1d build/FreeRTOS/production/_ext/1664057780/fe_low_mem.o
 .debug_str     0x00000000        0x0 build/FreeRTOS/production/_ext/1664057780/fe_low_mem.o
 .comment       0x00000000       0x2c build/FreeRTOS/production/_ext/1664057780/fe_low_mem.o
 .ARM.attributes
                0x00000000       0x39 build/FreeRTOS/production/_ext/1664057780/fe_low_mem.o
 .text          0x00000000        0x0 build/FreeRTOS/production/_ext/1664057780/fe_operations.o
 .data          0x00000000        0x0 build/FreeRTOS/production/_ext/1664057780/fe_operations.o
 .bss           0x00000000        0x0 build/FreeRTOS/production/_ext/1664057780/fe_operations.o
 .debug_info    0x00000000      0x2f9 build/FreeRTOS/production/_ext/1664057780/fe_operations.o
 .debug_abbrev  0x00000000       0x1b build/FreeRTOS/production/_ext/1664057780/fe_operations.o
 .debug_aranges
                0x00000000       0x18 build/FreeRTOS/production/_ext/1664057780/fe_operations.o
 .debug_line    0x00000000       0x1d build/FreeRTOS/production/_ext/1664057780/fe_operations.o
 .debug_str     0x00000000        0x0 build/FreeRTOS/production/_ext/1664057780/fe_operations.o
 .comment       0x00000000       0x2c build/FreeRTOS/production/_ext/1664057780/fe_operations.o
 .ARM.attributes
                0x00000000       0x39 build/FreeRTOS/production/_ext/1664057780/fe_operations.o
 .text          0x00000000        0x0 build/FreeRTOS/production/_ext/1664057780/ge_448.o
 .data          0x00000000        0x0 build/FreeRTOS/production/_ext/1664057780/ge_448.o
 .bss           0x00000000        0x0 build/FreeRTOS/production/_ext/1664057780/ge_448.o
 .debug_info    0x00000000      0x2f2 build/FreeRTOS/production/_ext/1664057780/ge_448.o
 .debug_abbrev  0x00000000       0x1b build/FreeRTOS/production/_ext/1664057780/ge_448.o
 .debug_aranges
                0x00000000       0x18 build/FreeRTOS/production/_ext/1664057780/ge_448.o
 .debug_line    0x00000000       0x1d build/FreeRTOS/production/_ext/1664057780/ge_448.o
 .debug_str     0x00000000        0x0 build/FreeRTOS/production/_ext/1664057780/ge_448.o
 .comment       0x00000000       0x2c build/FreeRTOS/production/_ext/1664057780/ge_448.o
 .ARM.attributes
                0x00000000       0x39 build/FreeRTOS/production/_ext/1664057780/ge_448.o
 .text          0x00000000        0x0 build/FreeRTOS/production/_ext/1664057780/ge_low_mem.o
 .data          0x00000000        0x0 build/FreeRTOS/production/_ext/1664057780/ge_low_mem.o
 .bss           0x00000000        0x0 build/FreeRTOS/production/_ext/1664057780/ge_low_mem.o
 .debug_info    0x00000000      0x2f6 build/FreeRTOS/production/_ext/1664057780/ge_low_mem.o
 .debug_abbrev  0x00000000       0x1b build/FreeRTOS/production/_ext/1664057780/ge_low_mem.o
 .debug_aranges
                0x00000000       0x18 build/FreeRTOS/production/_ext/1664057780/ge_low_mem.o
 .debug_line    0x00000000       0x1d build/FreeRTOS/production/_ext/1664057780/ge_low_mem.o
 .debug_str     0x00000000        0x0 build/FreeRTOS/production/_ext/1664057780/ge_low_mem.o
 .comment       0x00000000       0x2c build/FreeRTOS/production/_ext/1664057780/ge_low_mem.o
 .ARM.attributes
                0x00000000       0x39 build/FreeRTOS/production/_ext/1664057780/ge_low_mem.o
 .text          0x00000000        0x0 build/FreeRTOS/production/_ext/1664057780/ge_operations.o
 .data          0x00000000        0x0 build/FreeRTOS/production/_ext/1664057780/ge_operations.o
 .bss           0x00000000        0x0 build/FreeRTOS/production/_ext/1664057780/ge_operations.o
 .debug_info    0x00000000      0x2f9 build/FreeRTOS/production/_ext/1664057780/ge_operations.o
 .debug_abbrev  0x00000000       0x1b build/FreeRTOS/production/_ext/1664057780/ge_operations.o
 .debug_aranges
                0x00000000       0x18 build/FreeRTOS/production/_ext/1664057780/ge_operations.o
 .debug_line    0x00000000       0x1d build/FreeRTOS/production/_ext/1664057780/ge_operations.o
 .debug_str     0x00000000        0x0 build/FreeRTOS/production/_ext/1664057780/ge_operations.o
 .comment       0x00000000       0x2c build/FreeRTOS/production/_ext/1664057780/ge_operations.o
 .ARM.attributes
                0x00000000       0x39 build/FreeRTOS/production/_ext/1664057780/ge_operations.o
 .data          0x00000000        0x0 build/FreeRTOS/production/_ext/1664057780/hash.o
 .bss           0x00000000        0x0 build/FreeRTOS/production/_ext/1664057780/hash.o
 .data          0x00000000        0x0 build/FreeRTOS/production/_ext/1664057780/hmac.o
 .bss           0x00000000        0x0 build/FreeRTOS/production/_ext/1664057780/hmac.o
 .text          0x00000000        0x0 build/FreeRTOS/production/_ext/1664057780/integer.o
 .data          0x00000000        0x0 build/FreeRTOS/production/_ext/1664057780/integer.o
 .bss           0x00000000        0x0 build/FreeRTOS/production/_ext/1664057780/integer.o
 .debug_info    0x00000000      0x2f3 build/FreeRTOS/production/_ext/1664057780/integer.o
 .debug_abbrev  0x00000000       0x1b build/FreeRTOS/production/_ext/1664057780/integer.o
 .debug_aranges
                0x00000000       0x18 build/FreeRTOS/production/_ext/1664057780/integer.o
 .debug_line    0x00000000       0x1d build/FreeRTOS/production/_ext/1664057780/integer.o
 .debug_str     0x00000000        0x0 build/FreeRTOS/production/_ext/1664057780/integer.o
 .comment       0x00000000       0x2c build/FreeRTOS/production/_ext/1664057780/integer.o
 .ARM.attributes
                0x00000000       0x39 build/FreeRTOS/production/_ext/1664057780/integer.o
 .text          0x00000000       0x12 build/FreeRTOS/production/_ext/1664057780/logging.o
 .data          0x00000000        0x0 build/FreeRTOS/production/_ext/1664057780/logging.o
 .bss           0x00000000        0x0 build/FreeRTOS/production/_ext/1664057780/logging.o
 .debug_info    0x00000000     0x1042 build/FreeRTOS/production/_ext/1664057780/logging.o
 .debug_abbrev  0x00000000       0xd0 build/FreeRTOS/production/_ext/1664057780/logging.o
 .debug_loc     0x00000000       0x25 build/FreeRTOS/production/_ext/1664057780/logging.o
 .debug_aranges
                0x00000000       0x20 build/FreeRTOS/production/_ext/1664057780/logging.o
 .debug_line    0x00000000       0xdd build/FreeRTOS/production/_ext/1664057780/logging.o
 .debug_str     0x00000000        0x0 build/FreeRTOS/production/_ext/1664057780/logging.o
 .comment       0x00000000       0x2c build/FreeRTOS/production/_ext/1664057780/logging.o
 .debug_frame   0x00000000       0x50 build/FreeRTOS/production/_ext/1664057780/logging.o
 .ARM.attributes
                0x00000000       0x34 build/FreeRTOS/production/_ext/1664057780/logging.o
 .text          0x00000000        0x0 build/FreeRTOS/production/_ext/1664057780/md2.o
 .data          0x00000000        0x0 build/FreeRTOS/production/_ext/1664057780/md2.o
 .bss           0x00000000        0x0 build/FreeRTOS/production/_ext/1664057780/md2.o
 .debug_info    0x00000000      0x2ef build/FreeRTOS/production/_ext/1664057780/md2.o
 .debug_abbrev  0x00000000       0x1b build/FreeRTOS/production/_ext/1664057780/md2.o
 .debug_aranges
                0x00000000       0x18 build/FreeRTOS/production/_ext/1664057780/md2.o
 .debug_line    0x00000000       0x1d build/FreeRTOS/production/_ext/1664057780/md2.o
 .debug_str     0x00000000        0x0 build/FreeRTOS/production/_ext/1664057780/md2.o
 .comment       0x00000000       0x2c build/FreeRTOS/production/_ext/1664057780/md2.o
 .ARM.attributes
                0x00000000       0x39 build/FreeRTOS/production/_ext/1664057780/md2.o
 .text          0x00000000        0x0 build/FreeRTOS/production/_ext/1664057780/md4.o
 .data          0x00000000        0x0 build/FreeRTOS/production/_ext/1664057780/md4.o
 .bss           0x00000000        0x0 build/FreeRTOS/production/_ext/1664057780/md4.o
 .debug_info    0x00000000      0x2ef build/FreeRTOS/production/_ext/1664057780/md4.o
 .debug_abbrev  0x00000000       0x1b build/FreeRTOS/production/_ext/1664057780/md4.o
 .debug_aranges
                0x00000000       0x18 build/FreeRTOS/production/_ext/1664057780/md4.o
 .debug_line    0x00000000       0x1d build/FreeRTOS/production/_ext/1664057780/md4.o
 .debug_str     0x00000000        0x0 build/FreeRTOS/production/_ext/1664057780/md4.o
 .comment       0x00000000       0x2c build/FreeRTOS/production/_ext/1664057780/md4.o
 .ARM.attributes
                0x00000000       0x39 build/FreeRTOS/production/_ext/1664057780/md4.o
 .data          0x00000000        0x0 build/FreeRTOS/production/_ext/1664057780/md5.o
 .bss           0x00000000        0x0 build/FreeRTOS/production/_ext/1664057780/md5.o
 .text          0x00000000        0x0 build/FreeRTOS/production/_ext/1664057780/memory.o
 .data          0x00000000        0x0 build/FreeRTOS/production/_ext/1664057780/memory.o
 .bss           0x00000000        0x0 build/FreeRTOS/production/_ext/1664057780/memory.o
 .debug_info    0x00000000      0x2f2 build/FreeRTOS/production/_ext/1664057780/memory.o
 .debug_abbrev  0x00000000       0x1b build/FreeRTOS/production/_ext/1664057780/memory.o
 .debug_aranges
                0x00000000       0x18 build/FreeRTOS/production/_ext/1664057780/memory.o
 .debug_line    0x00000000       0x1d build/FreeRTOS/production/_ext/1664057780/memory.o
 .debug_str     0x00000000        0x0 build/FreeRTOS/production/_ext/1664057780/memory.o
 .comment       0x00000000       0x2c build/FreeRTOS/production/_ext/1664057780/memory.o
 .ARM.attributes
                0x00000000       0x39 build/FreeRTOS/production/_ext/1664057780/memory.o
 .text          0x00000000        0x0 build/FreeRTOS/production/_ext/1664057780/pkcs12.o
 .data          0x00000000        0x0 build/FreeRTOS/production/_ext/1664057780/pkcs12.o
 .bss           0x00000000        0x0 build/FreeRTOS/production/_ext/1664057780/pkcs12.o
 .debug_info    0x00000000      0x2f2 build/FreeRTOS/production/_ext/1664057780/pkcs12.o
 .debug_abbrev  0x00000000       0x1b build/FreeRTOS/production/_ext/1664057780/pkcs12.o
 .debug_aranges
                0x00000000       0x18 build/FreeRTOS/production/_ext/1664057780/pkcs12.o
 .debug_line    0x00000000       0x1d build/FreeRTOS/production/_ext/1664057780/pkcs12.o
 .debug_str     0x00000000        0x0 build/FreeRTOS/production/_ext/1664057780/pkcs12.o
 .comment       0x00000000       0x2c build/FreeRTOS/production/_ext/1664057780/pkcs12.o
 .ARM.attributes
                0x00000000       0x39 build/FreeRTOS/production/_ext/1664057780/pkcs12.o
 .text          0x00000000        0x0 build/FreeRTOS/production/_ext/1664057780/pkcs7.o
 .data          0x00000000        0x0 build/FreeRTOS/production/_ext/1664057780/pkcs7.o
 .bss           0x00000000        0x0 build/FreeRTOS/production/_ext/1664057780/pkcs7.o
 .debug_info    0x00000000      0x2f1 build/FreeRTOS/production/_ext/1664057780/pkcs7.o
 .debug_abbrev  0x00000000       0x1b build/FreeRTOS/production/_ext/1664057780/pkcs7.o
 .debug_aranges
                0x00000000       0x18 build/FreeRTOS/production/_ext/1664057780/pkcs7.o
 .debug_line    0x00000000       0x1d build/FreeRTOS/production/_ext/1664057780/pkcs7.o
 .debug_str     0x00000000        0x0 build/FreeRTOS/production/_ext/1664057780/pkcs7.o
 .comment       0x00000000       0x2c build/FreeRTOS/production/_ext/1664057780/pkcs7.o
 .ARM.attributes
                0x00000000       0x39 build/FreeRTOS/production/_ext/1664057780/pkcs7.o
 .text          0x00000000        0x0 build/FreeRTOS/production/_ext/1664057780/poly1305.o
 .data          0x00000000        0x0 build/FreeRTOS/production/_ext/1664057780/poly1305.o
 .bss           0x00000000        0x0 build/FreeRTOS/production/_ext/1664057780/poly1305.o
 .debug_info    0x00000000      0x2f4 build/FreeRTOS/production/_ext/1664057780/poly1305.o
 .debug_abbrev  0x00000000       0x1b build/FreeRTOS/production/_ext/1664057780/poly1305.o
 .debug_aranges
                0x00000000       0x18 build/FreeRTOS/production/_ext/1664057780/poly1305.o
 .debug_line    0x00000000       0x1d build/FreeRTOS/production/_ext/1664057780/poly1305.o
 .debug_str     0x00000000        0x0 build/FreeRTOS/production/_ext/1664057780/poly1305.o
 .comment       0x00000000       0x2c build/FreeRTOS/production/_ext/1664057780/poly1305.o
 .ARM.attributes
                0x00000000       0x39 build/FreeRTOS/production/_ext/1664057780/poly1305.o
 .text          0x00000000        0x0 build/FreeRTOS/production/_ext/1664057780/pwdbased.o
 .data          0x00000000        0x0 build/FreeRTOS/production/_ext/1664057780/pwdbased.o
 .bss           0x00000000        0x0 build/FreeRTOS/production/_ext/1664057780/pwdbased.o
 .debug_info    0x00000000      0x2f4 build/FreeRTOS/production/_ext/1664057780/pwdbased.o
 .debug_abbrev  0x00000000       0x1b build/FreeRTOS/production/_ext/1664057780/pwdbased.o
 .debug_aranges
                0x00000000       0x18 build/FreeRTOS/production/_ext/1664057780/pwdbased.o
 .debug_line    0x00000000       0x1d build/FreeRTOS/production/_ext/1664057780/pwdbased.o
 .debug_str     0x00000000        0x0 build/FreeRTOS/production/_ext/1664057780/pwdbased.o
 .comment       0x00000000       0x2c build/FreeRTOS/production/_ext/1664057780/pwdbased.o
 .ARM.attributes
                0x00000000       0x39 build/FreeRTOS/production/_ext/1664057780/pwdbased.o
 .text          0x00000000        0x0 build/FreeRTOS/production/_ext/1664057780/rc2.o
 .data          0x00000000        0x0 build/FreeRTOS/production/_ext/1664057780/rc2.o
 .bss           0x00000000        0x0 build/FreeRTOS/production/_ext/1664057780/rc2.o
 .debug_info    0x00000000      0x2ef build/FreeRTOS/production/_ext/1664057780/rc2.o
 .debug_abbrev  0x00000000       0x1b build/FreeRTOS/production/_ext/1664057780/rc2.o
 .debug_aranges
                0x00000000       0x18 build/FreeRTOS/production/_ext/1664057780/rc2.o
 .debug_line    0x00000000       0x1d build/FreeRTOS/production/_ext/1664057780/rc2.o
 .debug_str     0x00000000        0x0 build/FreeRTOS/production/_ext/1664057780/rc2.o
 .comment       0x00000000       0x2c build/FreeRTOS/production/_ext/1664057780/rc2.o
 .ARM.attributes
                0x00000000       0x39 build/FreeRTOS/production/_ext/1664057780/rc2.o
 .text          0x00000000        0x0 build/FreeRTOS/production/_ext/1664057780/ripemd.o
 .data          0x00000000        0x0 build/FreeRTOS/production/_ext/1664057780/ripemd.o
 .bss           0x00000000        0x0 build/FreeRTOS/production/_ext/1664057780/ripemd.o
 .debug_info    0x00000000      0x2f2 build/FreeRTOS/production/_ext/1664057780/ripemd.o
 .debug_abbrev  0x00000000       0x1b build/FreeRTOS/production/_ext/1664057780/ripemd.o
 .debug_aranges
                0x00000000       0x18 build/FreeRTOS/production/_ext/1664057780/ripemd.o
 .debug_line    0x00000000       0x1d build/FreeRTOS/production/_ext/1664057780/ripemd.o
 .debug_str     0x00000000        0x0 build/FreeRTOS/production/_ext/1664057780/ripemd.o
 .comment       0x00000000       0x2c build/FreeRTOS/production/_ext/1664057780/ripemd.o
 .ARM.attributes
                0x00000000       0x39 build/FreeRTOS/production/_ext/1664057780/ripemd.o
 .data          0x00000000        0x0 build/FreeRTOS/production/_ext/1664057780/rsa.o
 .bss           0x00000000        0x0 build/FreeRTOS/production/_ext/1664057780/rsa.o
 .text          0x00000000        0x0 build/FreeRTOS/production/_ext/1664057780/sha3.o
 .data          0x00000000        0x0 build/FreeRTOS/production/_ext/1664057780/sha3.o
 .bss           0x00000000        0x0 build/FreeRTOS/production/_ext/1664057780/sha3.o
 .debug_info    0x00000000      0x2f0 build/FreeRTOS/production/_ext/1664057780/sha3.o
 .debug_abbrev  0x00000000       0x1b build/FreeRTOS/production/_ext/1664057780/sha3.o
 .debug_aranges
                0x00000000       0x18 build/FreeRTOS/production/_ext/1664057780/sha3.o
 .debug_line    0x00000000       0x1d build/FreeRTOS/production/_ext/1664057780/sha3.o
 .debug_str     0x00000000        0x0 build/FreeRTOS/production/_ext/1664057780/sha3.o
 .comment       0x00000000       0x2c build/FreeRTOS/production/_ext/1664057780/sha3.o
 .ARM.attributes
                0x00000000       0x39 build/FreeRTOS/production/_ext/1664057780/sha3.o
 .text          0x00000000        0x0 build/FreeRTOS/production/_ext/1664057780/signature.o
 .data          0x00000000        0x0 build/FreeRTOS/production/_ext/1664057780/signature.o
 .bss           0x00000000        0x0 build/FreeRTOS/production/_ext/1664057780/signature.o
 .debug_info    0x00000000      0x2f5 build/FreeRTOS/production/_ext/1664057780/signature.o
 .debug_abbrev  0x00000000       0x1b build/FreeRTOS/production/_ext/1664057780/signature.o
 .debug_aranges
                0x00000000       0x18 build/FreeRTOS/production/_ext/1664057780/signature.o
 .debug_line    0x00000000       0x1d build/FreeRTOS/production/_ext/1664057780/signature.o
 .debug_str     0x00000000        0x0 build/FreeRTOS/production/_ext/1664057780/signature.o
 .comment       0x00000000       0x2c build/FreeRTOS/production/_ext/1664057780/signature.o
 .ARM.attributes
                0x00000000       0x39 build/FreeRTOS/production/_ext/1664057780/signature.o
 .text          0x00000000        0x0 build/FreeRTOS/production/_ext/1664057780/sp_arm32.o
 .data          0x00000000        0x0 build/FreeRTOS/production/_ext/1664057780/sp_arm32.o
 .bss           0x00000000        0x0 build/FreeRTOS/production/_ext/1664057780/sp_arm32.o
 .debug_info    0x00000000      0x2f4 build/FreeRTOS/production/_ext/1664057780/sp_arm32.o
 .debug_abbrev  0x00000000       0x1b build/FreeRTOS/production/_ext/1664057780/sp_arm32.o
 .debug_aranges
                0x00000000       0x18 build/FreeRTOS/production/_ext/1664057780/sp_arm32.o
 .debug_line    0x00000000       0x1d build/FreeRTOS/production/_ext/1664057780/sp_arm32.o
 .debug_str     0x00000000        0x0 build/FreeRTOS/production/_ext/1664057780/sp_arm32.o
 .comment       0x00000000       0x2c build/FreeRTOS/production/_ext/1664057780/sp_arm32.o
 .ARM.attributes
                0x00000000       0x39 build/FreeRTOS/production/_ext/1664057780/sp_arm32.o
 .text          0x00000000        0x0 build/FreeRTOS/production/_ext/1664057780/sp_arm64.o
 .data          0x00000000        0x0 build/FreeRTOS/production/_ext/1664057780/sp_arm64.o
 .bss           0x00000000        0x0 build/FreeRTOS/production/_ext/1664057780/sp_arm64.o
 .debug_info    0x00000000      0x2f4 build/FreeRTOS/production/_ext/1664057780/sp_arm64.o
 .debug_abbrev  0x00000000       0x1b build/FreeRTOS/production/_ext/1664057780/sp_arm64.o
 .debug_aranges
                0x00000000       0x18 build/FreeRTOS/production/_ext/1664057780/sp_arm64.o
 .debug_line    0x00000000       0x1d build/FreeRTOS/production/_ext/1664057780/sp_arm64.o
 .debug_str     0x00000000        0x0 build/FreeRTOS/production/_ext/1664057780/sp_arm64.o
 .comment       0x00000000       0x2c build/FreeRTOS/production/_ext/1664057780/sp_arm64.o
 .ARM.attributes
                0x00000000       0x39 build/FreeRTOS/production/_ext/1664057780/sp_arm64.o
 .text          0x00000000        0x0 build/FreeRTOS/production/_ext/1664057780/sp_armthumb.o
 .data          0x00000000        0x0 build/FreeRTOS/production/_ext/1664057780/sp_armthumb.o
 .bss           0x00000000        0x0 build/FreeRTOS/production/_ext/1664057780/sp_armthumb.o
 .debug_info    0x00000000      0x2f7 build/FreeRTOS/production/_ext/1664057780/sp_armthumb.o
 .debug_abbrev  0x00000000       0x1b build/FreeRTOS/production/_ext/1664057780/sp_armthumb.o
 .debug_aranges
                0x00000000       0x18 build/FreeRTOS/production/_ext/1664057780/sp_armthumb.o
 .debug_line    0x00000000       0x1d build/FreeRTOS/production/_ext/1664057780/sp_armthumb.o
 .debug_str     0x00000000        0x0 build/FreeRTOS/production/_ext/1664057780/sp_armthumb.o
 .comment       0x00000000       0x2c build/FreeRTOS/production/_ext/1664057780/sp_armthumb.o
 .ARM.attributes
                0x00000000       0x39 build/FreeRTOS/production/_ext/1664057780/sp_armthumb.o
 .text          0x00000000        0x0 build/FreeRTOS/production/_ext/1664057780/sp_c32.o
 .data          0x00000000        0x0 build/FreeRTOS/production/_ext/1664057780/sp_c32.o
 .bss           0x00000000        0x0 build/FreeRTOS/production/_ext/1664057780/sp_c32.o
 .debug_info    0x00000000      0x2f2 build/FreeRTOS/production/_ext/1664057780/sp_c32.o
 .debug_abbrev  0x00000000       0x1b build/FreeRTOS/production/_ext/1664057780/sp_c32.o
 .debug_aranges
                0x00000000       0x18 build/FreeRTOS/production/_ext/1664057780/sp_c32.o
 .debug_line    0x00000000       0x1d build/FreeRTOS/production/_ext/1664057780/sp_c32.o
 .debug_str     0x00000000        0x0 build/FreeRTOS/production/_ext/1664057780/sp_c32.o
 .comment       0x00000000       0x2c build/FreeRTOS/production/_ext/1664057780/sp_c32.o
 .ARM.attributes
                0x00000000       0x39 build/FreeRTOS/production/_ext/1664057780/sp_c32.o
 .text          0x00000000        0x0 build/FreeRTOS/production/_ext/1664057780/sp_c64.o
 .data          0x00000000        0x0 build/FreeRTOS/production/_ext/1664057780/sp_c64.o
 .bss           0x00000000        0x0 build/FreeRTOS/production/_ext/1664057780/sp_c64.o
 .debug_info    0x00000000      0x2f2 build/FreeRTOS/production/_ext/1664057780/sp_c64.o
 .debug_abbrev  0x00000000       0x1b build/FreeRTOS/production/_ext/1664057780/sp_c64.o
 .debug_aranges
                0x00000000       0x18 build/FreeRTOS/production/_ext/1664057780/sp_c64.o
 .debug_line    0x00000000       0x1d build/FreeRTOS/production/_ext/1664057780/sp_c64.o
 .debug_str     0x00000000        0x0 build/FreeRTOS/production/_ext/1664057780/sp_c64.o
 .comment       0x00000000       0x2c build/FreeRTOS/production/_ext/1664057780/sp_c64.o
 .ARM.attributes
                0x00000000       0x39 build/FreeRTOS/production/_ext/1664057780/sp_c64.o
 .text          0x00000000        0x0 build/FreeRTOS/production/_ext/1664057780/sp_cortexm.o
 .data          0x00000000        0x0 build/FreeRTOS/production/_ext/1664057780/sp_cortexm.o
 .bss           0x00000000        0x0 build/FreeRTOS/production/_ext/1664057780/sp_cortexm.o
 .debug_info    0x00000000      0x2f6 build/FreeRTOS/production/_ext/1664057780/sp_cortexm.o
 .debug_abbrev  0x00000000       0x1b build/FreeRTOS/production/_ext/1664057780/sp_cortexm.o
 .debug_aranges
                0x00000000       0x18 build/FreeRTOS/production/_ext/1664057780/sp_cortexm.o
 .debug_line    0x00000000       0x1d build/FreeRTOS/production/_ext/1664057780/sp_cortexm.o
 .debug_str     0x00000000        0x0 build/FreeRTOS/production/_ext/1664057780/sp_cortexm.o
 .comment       0x00000000       0x2c build/FreeRTOS/production/_ext/1664057780/sp_cortexm.o
 .ARM.attributes
                0x00000000       0x39 build/FreeRTOS/production/_ext/1664057780/sp_cortexm.o
 .text          0x00000000        0x0 build/FreeRTOS/production/_ext/1664057780/sp_dsp32.o
 .data          0x00000000        0x0 build/FreeRTOS/production/_ext/1664057780/sp_dsp32.o
 .bss           0x00000000        0x0 build/FreeRTOS/production/_ext/1664057780/sp_dsp32.o
 .debug_info    0x00000000      0x2f4 build/FreeRTOS/production/_ext/1664057780/sp_dsp32.o
 .debug_abbrev  0x00000000       0x1b build/FreeRTOS/production/_ext/1664057780/sp_dsp32.o
 .debug_aranges
                0x00000000       0x18 build/FreeRTOS/production/_ext/1664057780/sp_dsp32.o
 .debug_line    0x00000000       0x1d build/FreeRTOS/production/_ext/1664057780/sp_dsp32.o
 .debug_str     0x00000000        0x0 build/FreeRTOS/production/_ext/1664057780/sp_dsp32.o
 .comment       0x00000000       0x2c build/FreeRTOS/production/_ext/1664057780/sp_dsp32.o
 .ARM.attributes
                0x00000000       0x39 build/FreeRTOS/production/_ext/1664057780/sp_dsp32.o
 .text          0x00000000        0x0 build/FreeRTOS/production/_ext/1664057780/sp_int.o
 .data          0x00000000        0x0 build/FreeRTOS/production/_ext/1664057780/sp_int.o
 .bss           0x00000000        0x0 build/FreeRTOS/production/_ext/1664057780/sp_int.o
 .debug_info    0x00000000      0x2f2 build/FreeRTOS/production/_ext/1664057780/sp_int.o
 .debug_abbrev  0x00000000       0x1b build/FreeRTOS/production/_ext/1664057780/sp_int.o
 .debug_aranges
                0x00000000       0x18 build/FreeRTOS/production/_ext/1664057780/sp_int.o
 .debug_line    0x00000000       0x1d build/FreeRTOS/production/_ext/1664057780/sp_int.o
 .debug_str     0x00000000        0x0 build/FreeRTOS/production/_ext/1664057780/sp_int.o
 .comment       0x00000000       0x2c build/FreeRTOS/production/_ext/1664057780/sp_int.o
 .ARM.attributes
                0x00000000       0x39 build/FreeRTOS/production/_ext/1664057780/sp_int.o
 .text          0x00000000        0x0 build/FreeRTOS/production/_ext/1664057780/sp_x86_64.o
 .data          0x00000000        0x0 build/FreeRTOS/production/_ext/1664057780/sp_x86_64.o
 .bss           0x00000000        0x0 build/FreeRTOS/production/_ext/1664057780/sp_x86_64.o
 .debug_info    0x00000000      0x2f5 build/FreeRTOS/production/_ext/1664057780/sp_x86_64.o
 .debug_abbrev  0x00000000       0x1b build/FreeRTOS/production/_ext/1664057780/sp_x86_64.o
 .debug_aranges
                0x00000000       0x18 build/FreeRTOS/production/_ext/1664057780/sp_x86_64.o
 .debug_line    0x00000000       0x1d build/FreeRTOS/production/_ext/1664057780/sp_x86_64.o
 .debug_str     0x00000000        0x0 build/FreeRTOS/production/_ext/1664057780/sp_x86_64.o
 .comment       0x00000000       0x2c build/FreeRTOS/production/_ext/1664057780/sp_x86_64.o
 .ARM.attributes
                0x00000000       0x39 build/FreeRTOS/production/_ext/1664057780/sp_x86_64.o
 .text          0x00000000        0x0 build/FreeRTOS/production/_ext/1664057780/srp.o
 .data          0x00000000        0x0 build/FreeRTOS/production/_ext/1664057780/srp.o
 .bss           0x00000000        0x0 build/FreeRTOS/production/_ext/1664057780/srp.o
 .debug_info    0x00000000      0x2ef build/FreeRTOS/production/_ext/1664057780/srp.o
 .debug_abbrev  0x00000000       0x1b build/FreeRTOS/production/_ext/1664057780/srp.o
 .debug_aranges
                0x00000000       0x18 build/FreeRTOS/production/_ext/1664057780/srp.o
 .debug_line    0x00000000       0x1d build/FreeRTOS/production/_ext/1664057780/srp.o
 .debug_str     0x00000000        0x0 build/FreeRTOS/production/_ext/1664057780/srp.o
 .comment       0x00000000       0x2c build/FreeRTOS/production/_ext/1664057780/srp.o
 .ARM.attributes
                0x00000000       0x39 build/FreeRTOS/production/_ext/1664057780/srp.o
 .data          0x00000000        0x0 build/FreeRTOS/production/_ext/1664057780/tfm.o
 .bss           0x00000000        0x0 build/FreeRTOS/production/_ext/1664057780/tfm.o
 .text          0x00000000        0x0 build/FreeRTOS/production/_ext/1664057780/wc_dsp.o
 .data          0x00000000        0x0 build/FreeRTOS/production/_ext/1664057780/wc_dsp.o
 .bss           0x00000000        0x0 build/FreeRTOS/production/_ext/1664057780/wc_dsp.o
 .debug_info    0x00000000      0x2f2 build/FreeRTOS/production/_ext/1664057780/wc_dsp.o
 .debug_abbrev  0x00000000       0x1b build/FreeRTOS/production/_ext/1664057780/wc_dsp.o
 .debug_aranges
                0x00000000       0x18 build/FreeRTOS/production/_ext/1664057780/wc_dsp.o
 .debug_line    0x00000000       0x1d build/FreeRTOS/production/_ext/1664057780/wc_dsp.o
 .debug_str     0x00000000        0x0 build/FreeRTOS/production/_ext/1664057780/wc_dsp.o
 .comment       0x00000000       0x2c build/FreeRTOS/production/_ext/1664057780/wc_dsp.o
 .ARM.attributes
                0x00000000       0x39 build/FreeRTOS/production/_ext/1664057780/wc_dsp.o
 .text          0x00000000      0x1c2 build/FreeRTOS/production/_ext/1664057780/wc_encrypt.o
 .data          0x00000000        0x0 build/FreeRTOS/production/_ext/1664057780/wc_encrypt.o
 .bss           0x00000000        0x0 build/FreeRTOS/production/_ext/1664057780/wc_encrypt.o
 .debug_info    0x00000000     0x1bd9 build/FreeRTOS/production/_ext/1664057780/wc_encrypt.o
 .debug_abbrev  0x00000000      0x172 build/FreeRTOS/production/_ext/1664057780/wc_encrypt.o
 .debug_loc     0x00000000      0x97d build/FreeRTOS/production/_ext/1664057780/wc_encrypt.o
 .debug_aranges
                0x00000000       0x20 build/FreeRTOS/production/_ext/1664057780/wc_encrypt.o
 .debug_line    0x00000000      0x29a build/FreeRTOS/production/_ext/1664057780/wc_encrypt.o
 .debug_str     0x00000000       0xc4 build/FreeRTOS/production/_ext/1664057780/wc_encrypt.o
 .comment       0x00000000       0x2c build/FreeRTOS/production/_ext/1664057780/wc_encrypt.o
 .debug_frame   0x00000000      0x110 build/FreeRTOS/production/_ext/1664057780/wc_encrypt.o
 .ARM.attributes
                0x00000000       0x34 build/FreeRTOS/production/_ext/1664057780/wc_encrypt.o
 .text          0x00000000        0x0 build/FreeRTOS/production/_ext/1664057780/wc_pkcs11.o
 .data          0x00000000        0x0 build/FreeRTOS/production/_ext/1664057780/wc_pkcs11.o
 .bss           0x00000000        0x0 build/FreeRTOS/production/_ext/1664057780/wc_pkcs11.o
 .debug_info    0x00000000      0x2f5 build/FreeRTOS/production/_ext/1664057780/wc_pkcs11.o
 .debug_abbrev  0x00000000       0x1b build/FreeRTOS/production/_ext/1664057780/wc_pkcs11.o
 .debug_aranges
                0x00000000       0x18 build/FreeRTOS/production/_ext/1664057780/wc_pkcs11.o
 .debug_line    0x00000000       0x1d build/FreeRTOS/production/_ext/1664057780/wc_pkcs11.o
 .debug_str     0x00000000        0x0 build/FreeRTOS/production/_ext/1664057780/wc_pkcs11.o
 .comment       0x00000000       0x2c build/FreeRTOS/production/_ext/1664057780/wc_pkcs11.o
 .ARM.attributes
                0x00000000       0x39 build/FreeRTOS/production/_ext/1664057780/wc_pkcs11.o
 .data          0x00000000        0x0 build/FreeRTOS/production/_ext/1664057780/wc_port.o
 .text          0x00000000        0x0 build/FreeRTOS/production/_ext/1664057780/wolfevent.o
 .data          0x00000000        0x0 build/FreeRTOS/production/_ext/1664057780/wolfevent.o
 .bss           0x00000000        0x0 build/FreeRTOS/production/_ext/1664057780/wolfevent.o
 .debug_info    0x00000000      0x2f5 build/FreeRTOS/production/_ext/1664057780/wolfevent.o
 .debug_abbrev  0x00000000       0x1b build/FreeRTOS/production/_ext/1664057780/wolfevent.o
 .debug_aranges
                0x00000000       0x18 build/FreeRTOS/production/_ext/1664057780/wolfevent.o
 .debug_line    0x00000000       0x1d build/FreeRTOS/production/_ext/1664057780/wolfevent.o
 .debug_str     0x00000000        0x0 build/FreeRTOS/production/_ext/1664057780/wolfevent.o
 .comment       0x00000000       0x2c build/FreeRTOS/production/_ext/1664057780/wolfevent.o
 .ARM.attributes
                0x00000000       0x39 build/FreeRTOS/production/_ext/1664057780/wolfevent.o
 .data          0x00000000        0x0 build/FreeRTOS/production/_ext/1664057780/wolfmath.o
 .bss           0x00000000        0x0 build/FreeRTOS/production/_ext/1664057780/wolfmath.o
 .data          0x00000000        0x0 build/FreeRTOS/production/_ext/1664057780/aes.o
 .bss           0x00000000        0x0 build/FreeRTOS/production/_ext/1664057780/aes.o
 .data          0x00000000        0x0 build/FreeRTOS/production/_ext/1664057780/des3.o
 .bss           0x00000000        0x0 build/FreeRTOS/production/_ext/1664057780/des3.o
 .data          0x00000000        0x0 build/FreeRTOS/production/_ext/1664057780/random.o
 .bss           0x00000000        0x0 build/FreeRTOS/production/_ext/1664057780/random.o
 .data          0x00000000        0x0 build/FreeRTOS/production/_ext/1664057780/sha.o
 .bss           0x00000000        0x0 build/FreeRTOS/production/_ext/1664057780/sha.o
 .data          0x00000000        0x0 build/FreeRTOS/production/_ext/1664057780/sha256.o
 .bss           0x00000000        0x0 build/FreeRTOS/production/_ext/1664057780/sha256.o
 .text          0x00000000        0x0 build/FreeRTOS/production/_ext/1664057780/sha512.o
 .data          0x00000000        0x0 build/FreeRTOS/production/_ext/1664057780/sha512.o
 .bss           0x00000000        0x0 build/FreeRTOS/production/_ext/1664057780/sha512.o
 .debug_info    0x00000000      0x2f2 build/FreeRTOS/production/_ext/1664057780/sha512.o
 .debug_abbrev  0x00000000       0x1b build/FreeRTOS/production/_ext/1664057780/sha512.o
 .debug_aranges
                0x00000000       0x18 build/FreeRTOS/production/_ext/1664057780/sha512.o
 .debug_line    0x00000000       0x1d build/FreeRTOS/production/_ext/1664057780/sha512.o
 .debug_str     0x00000000        0x0 build/FreeRTOS/production/_ext/1664057780/sha512.o
 .comment       0x00000000       0x2c build/FreeRTOS/production/_ext/1664057780/sha512.o
 .ARM.attributes
                0x00000000       0x39 build/FreeRTOS/production/_ext/1664057780/sha512.o
 .data          0x00000000        0x0 build/FreeRTOS/production/_ext/1664057780/ecc.o
 .bss           0x00000000        0x0 build/FreeRTOS/production/_ext/1664057780/ecc.o
 .text          0x00000000        0x0 build/FreeRTOS/production/_ext/1664057780/kdf.o
 .data          0x00000000        0x0 build/FreeRTOS/production/_ext/1664057780/kdf.o
 .bss           0x00000000        0x0 build/FreeRTOS/production/_ext/1664057780/kdf.o
 .debug_info    0x00000000      0x2ef build/FreeRTOS/production/_ext/1664057780/kdf.o
 .debug_abbrev  0x00000000       0x1b build/FreeRTOS/production/_ext/1664057780/kdf.o
 .debug_aranges
                0x00000000       0x18 build/FreeRTOS/production/_ext/1664057780/kdf.o
 .debug_line    0x00000000       0x1d build/FreeRTOS/production/_ext/1664057780/kdf.o
 .debug_str     0x00000000        0x0 build/FreeRTOS/production/_ext/1664057780/kdf.o
 .comment       0x00000000       0x2c build/FreeRTOS/production/_ext/1664057780/kdf.o
 .ARM.attributes
                0x00000000       0x39 build/FreeRTOS/production/_ext/1664057780/kdf.o
 .text          0x00000000        0x0 build/FreeRTOS/production/_ext/1664057780/siphash.o
 .data          0x00000000        0x0 build/FreeRTOS/production/_ext/1664057780/siphash.o
 .bss           0x00000000        0x0 build/FreeRTOS/production/_ext/1664057780/siphash.o
 .debug_info    0x00000000      0x2f3 build/FreeRTOS/production/_ext/1664057780/siphash.o
 .debug_abbrev  0x00000000       0x1b build/FreeRTOS/production/_ext/1664057780/siphash.o
 .debug_aranges
                0x00000000       0x18 build/FreeRTOS/production/_ext/1664057780/siphash.o
 .debug_line    0x00000000       0x1d build/FreeRTOS/production/_ext/1664057780/siphash.o
 .debug_str     0x00000000        0x0 build/FreeRTOS/production/_ext/1664057780/siphash.o
 .comment       0x00000000       0x2c build/FreeRTOS/production/_ext/1664057780/siphash.o
 .ARM.attributes
                0x00000000       0x39 build/FreeRTOS/production/_ext/1664057780/siphash.o
 .text          0x00000000        0x0 build/FreeRTOS/production/_ext/1664057780/falcon.o
 .data          0x00000000        0x0 build/FreeRTOS/production/_ext/1664057780/falcon.o
 .bss           0x00000000        0x0 build/FreeRTOS/production/_ext/1664057780/falcon.o
 .debug_info    0x00000000      0x2f2 build/FreeRTOS/production/_ext/1664057780/falcon.o
 .debug_abbrev  0x00000000       0x1b build/FreeRTOS/production/_ext/1664057780/falcon.o
 .debug_aranges
                0x00000000       0x18 build/FreeRTOS/production/_ext/1664057780/falcon.o
 .debug_line    0x00000000       0x1d build/FreeRTOS/production/_ext/1664057780/falcon.o
 .debug_str     0x00000000        0x0 build/FreeRTOS/production/_ext/1664057780/falcon.o
 .comment       0x00000000       0x2c build/FreeRTOS/production/_ext/1664057780/falcon.o
 .ARM.attributes
                0x00000000       0x39 build/FreeRTOS/production/_ext/1664057780/falcon.o
 .text          0x00000000        0x0 build/FreeRTOS/production/_ext/1664057780/eccsi.o
 .data          0x00000000        0x0 build/FreeRTOS/production/_ext/1664057780/eccsi.o
 .bss           0x00000000        0x0 build/FreeRTOS/production/_ext/1664057780/eccsi.o
 .debug_info    0x00000000      0x2f1 build/FreeRTOS/production/_ext/1664057780/eccsi.o
 .debug_abbrev  0x00000000       0x1b build/FreeRTOS/production/_ext/1664057780/eccsi.o
 .debug_aranges
                0x00000000       0x18 build/FreeRTOS/production/_ext/1664057780/eccsi.o
 .debug_line    0x00000000       0x1d build/FreeRTOS/production/_ext/1664057780/eccsi.o
 .debug_str     0x00000000        0x0 build/FreeRTOS/production/_ext/1664057780/eccsi.o
 .comment       0x00000000       0x2c build/FreeRTOS/production/_ext/1664057780/eccsi.o
 .ARM.attributes
                0x00000000       0x39 build/FreeRTOS/production/_ext/1664057780/eccsi.o
 .text          0x00000000        0x0 build/FreeRTOS/production/_ext/1664057780/sakke.o
 .data          0x00000000        0x0 build/FreeRTOS/production/_ext/1664057780/sakke.o
 .bss           0x00000000        0x0 build/FreeRTOS/production/_ext/1664057780/sakke.o
 .debug_info    0x00000000      0x2f1 build/FreeRTOS/production/_ext/1664057780/sakke.o
 .debug_abbrev  0x00000000       0x1b build/FreeRTOS/production/_ext/1664057780/sakke.o
 .debug_aranges
                0x00000000       0x18 build/FreeRTOS/production/_ext/1664057780/sakke.o
 .debug_line    0x00000000       0x1d build/FreeRTOS/production/_ext/1664057780/sakke.o
 .debug_str     0x00000000        0x0 build/FreeRTOS/production/_ext/1664057780/sakke.o
 .comment       0x00000000       0x2c build/FreeRTOS/production/_ext/1664057780/sakke.o
 .ARM.attributes
                0x00000000       0x39 build/FreeRTOS/production/_ext/1664057780/sakke.o
 .data          0x00000000        0x0 build/FreeRTOS/production/_ext/1360937237/app.o
 .data          0x00000000        0x0 build/FreeRTOS/production/_ext/1360937237/main.o
 .bss           0x00000000        0x0 build/FreeRTOS/production/_ext/1360937237/main.o
 .text          0x00000000        0x0 build/FreeRTOS/production/_ext/1664057780/misc.o
 .data          0x00000000        0x0 build/FreeRTOS/production/_ext/1664057780/misc.o
 .bss           0x00000000        0x0 build/FreeRTOS/production/_ext/1664057780/misc.o
 .debug_info    0x00000000      0x2f0 build/FreeRTOS/production/_ext/1664057780/misc.o
 .debug_abbrev  0x00000000       0x1b build/FreeRTOS/production/_ext/1664057780/misc.o
 .debug_aranges
                0x00000000       0x18 build/FreeRTOS/production/_ext/1664057780/misc.o
 .debug_line    0x00000000       0x1d build/FreeRTOS/production/_ext/1664057780/misc.o
 .debug_str     0x00000000        0x0 build/FreeRTOS/production/_ext/1664057780/misc.o
 .comment       0x00000000       0x2c build/FreeRTOS/production/_ext/1664057780/misc.o
 .ARM.attributes
                0x00000000       0x39 build/FreeRTOS/production/_ext/1664057780/misc.o
 .text          0x00000000        0x0 build/FreeRTOS/production/_ext/1664057780/evp.o
 .data          0x00000000        0x0 build/FreeRTOS/production/_ext/1664057780/evp.o
 .bss           0x00000000        0x0 build/FreeRTOS/production/_ext/1664057780/evp.o
 .debug_info    0x00000000      0x2ef build/FreeRTOS/production/_ext/1664057780/evp.o
 .debug_abbrev  0x00000000       0x1b build/FreeRTOS/production/_ext/1664057780/evp.o
 .debug_aranges
                0x00000000       0x18 build/FreeRTOS/production/_ext/1664057780/evp.o
 .debug_line    0x00000000       0x1d build/FreeRTOS/production/_ext/1664057780/evp.o
 .debug_str     0x00000000        0x0 build/FreeRTOS/production/_ext/1664057780/evp.o
 .comment       0x00000000       0x2c build/FreeRTOS/production/_ext/1664057780/evp.o
 .ARM.attributes
                0x00000000       0x39 build/FreeRTOS/production/_ext/1664057780/evp.o
 .text          0x00000000        0x0 c:/program files/microchip/xc32/v4.10/bin/bin/../../lib/gcc/pic32c/8.3.1/../../../../pic32c/lib/thumb/v7e-m+fp/hard\libpic32c.a(data_init.o)
 .data          0x00000000        0x0 c:/program files/microchip/xc32/v4.10/bin/bin/../../lib/gcc/pic32c/8.3.1/../../../../pic32c/lib/thumb/v7e-m+fp/hard\libpic32c.a(data_init.o)
 .xc_stack_usage
                0x00000000       0x2a c:/program files/microchip/xc32/v4.10/bin/bin/../../lib/gcc/pic32c/8.3.1/../../../../pic32c/lib/thumb/v7e-m+fp/hard\libpic32c.a(data_init.o)
 .xc_stack_usage.hdr
                0x00000000        0xe c:/program files/microchip/xc32/v4.10/bin/bin/../../lib/gcc/pic32c/8.3.1/../../../../pic32c/lib/thumb/v7e-m+fp/hard\libpic32c.a(data_init.o)
 .text          0x00000000        0x0 c:/program files/microchip/xc32/v4.10/bin/bin/../../lib/gcc/pic32c/8.3.1/../../../../pic32c/lib/thumb/v7e-m+fp/hard\libm-emfloat.a(floatasmops_arm.o)
 .data          0x00000000        0x0 c:/program files/microchip/xc32/v4.10/bin/bin/../../lib/gcc/pic32c/8.3.1/../../../../pic32c/lib/thumb/v7e-m+fp/hard\libm-emfloat.a(floatasmops_arm.o)
 .bss           0x00000000        0x0 c:/program files/microchip/xc32/v4.10/bin/bin/../../lib/gcc/pic32c/8.3.1/../../../../pic32c/lib/thumb/v7e-m+fp/hard\libm-emfloat.a(floatasmops_arm.o)
 .rodata.__aeabi_ddiv_reciprocal_table
                0x00000000      0x180 c:/program files/microchip/xc32/v4.10/bin/bin/../../lib/gcc/pic32c/8.3.1/../../../../pic32c/lib/thumb/v7e-m+fp/hard\libm-emfloat.a(floatasmops_arm.o)
 .text.__aeabi_fadd
                0x00000000       0x14 c:/program files/microchip/xc32/v4.10/bin/bin/../../lib/gcc/pic32c/8.3.1/../../../../pic32c/lib/thumb/v7e-m+fp/hard\libm-emfloat.a(floatasmops_arm.o)
 .text.__aeabi_fsub
                0x00000000       0x14 c:/program files/microchip/xc32/v4.10/bin/bin/../../lib/gcc/pic32c/8.3.1/../../../../pic32c/lib/thumb/v7e-m+fp/hard\libm-emfloat.a(floatasmops_arm.o)
 .text.__aeabi_frsub
                0x00000000       0x14 c:/program files/microchip/xc32/v4.10/bin/bin/../../lib/gcc/pic32c/8.3.1/../../../../pic32c/lib/thumb/v7e-m+fp/hard\libm-emfloat.a(floatasmops_arm.o)
 .text.__aeabi_drsub
                0x00000000        0x8 c:/program files/microchip/xc32/v4.10/bin/bin/../../lib/gcc/pic32c/8.3.1/../../../../pic32c/lib/thumb/v7e-m+fp/hard\libm-emfloat.a(floatasmops_arm.o)
 .text.__aeabi_fmul
                0x00000000       0x14 c:/program files/microchip/xc32/v4.10/bin/bin/../../lib/gcc/pic32c/8.3.1/../../../../pic32c/lib/thumb/v7e-m+fp/hard\libm-emfloat.a(floatasmops_arm.o)
 .text.__aeabi_fdiv
                0x00000000       0x14 c:/program files/microchip/xc32/v4.10/bin/bin/../../lib/gcc/pic32c/8.3.1/../../../../pic32c/lib/thumb/v7e-m+fp/hard\libm-emfloat.a(floatasmops_arm.o)
 .text.__aeabi_fcmple
                0x00000000       0x18 c:/program files/microchip/xc32/v4.10/bin/bin/../../lib/gcc/pic32c/8.3.1/../../../../pic32c/lib/thumb/v7e-m+fp/hard\libm-emfloat.a(floatasmops_arm.o)
 .text.__aeabi_fcmpeq
                0x00000000       0x18 c:/program files/microchip/xc32/v4.10/bin/bin/../../lib/gcc/pic32c/8.3.1/../../../../pic32c/lib/thumb/v7e-m+fp/hard\libm-emfloat.a(floatasmops_arm.o)
 .text.__aeabi_fcmpge
                0x00000000       0x18 c:/program files/microchip/xc32/v4.10/bin/bin/../../lib/gcc/pic32c/8.3.1/../../../../pic32c/lib/thumb/v7e-m+fp/hard\libm-emfloat.a(floatasmops_arm.o)
 .text.__aeabi_dcmpge
                0x00000000       0x3c c:/program files/microchip/xc32/v4.10/bin/bin/../../lib/gcc/pic32c/8.3.1/../../../../pic32c/lib/thumb/v7e-m+fp/hard\libm-emfloat.a(floatasmops_arm.o)
 .text.__aeabi_fcmpgt
                0x00000000       0x18 c:/program files/microchip/xc32/v4.10/bin/bin/../../lib/gcc/pic32c/8.3.1/../../../../pic32c/lib/thumb/v7e-m+fp/hard\libm-emfloat.a(floatasmops_arm.o)
 .text.__aeabi_fcmplt
                0x00000000       0x18 c:/program files/microchip/xc32/v4.10/bin/bin/../../lib/gcc/pic32c/8.3.1/../../../../pic32c/lib/thumb/v7e-m+fp/hard\libm-emfloat.a(floatasmops_arm.o)
 .text.__aeabi_fcmpun
                0x00000000       0x18 c:/program files/microchip/xc32/v4.10/bin/bin/../../lib/gcc/pic32c/8.3.1/../../../../pic32c/lib/thumb/v7e-m+fp/hard\libm-emfloat.a(floatasmops_arm.o)
 .text.__aeabi_dcmpun
                0x00000000       0x28 c:/program files/microchip/xc32/v4.10/bin/bin/../../lib/gcc/pic32c/8.3.1/../../../../pic32c/lib/thumb/v7e-m+fp/hard\libm-emfloat.a(floatasmops_arm.o)
 .text.__aeabi_cfcmpeq
                0x00000000       0x28 c:/program files/microchip/xc32/v4.10/bin/bin/../../lib/gcc/pic32c/8.3.1/../../../../pic32c/lib/thumb/v7e-m+fp/hard\libm-emfloat.a(floatasmops_arm.o)
 .text.__aeabi_cdcmpeq
                0x00000000       0x10 c:/program files/microchip/xc32/v4.10/bin/bin/../../lib/gcc/pic32c/8.3.1/../../../../pic32c/lib/thumb/v7e-m+fp/hard\libm-emfloat.a(floatasmops_arm.o)
 .text.__aeabi_cfcmple
                0x00000000       0x14 c:/program files/microchip/xc32/v4.10/bin/bin/../../lib/gcc/pic32c/8.3.1/../../../../pic32c/lib/thumb/v7e-m+fp/hard\libm-emfloat.a(floatasmops_arm.o)
 .text.__aeabi_cdcmple
                0x00000000       0x10 c:/program files/microchip/xc32/v4.10/bin/bin/../../lib/gcc/pic32c/8.3.1/../../../../pic32c/lib/thumb/v7e-m+fp/hard\libm-emfloat.a(floatasmops_arm.o)
 .text.__aeabi_cfrcmple
                0x00000000       0x14 c:/program files/microchip/xc32/v4.10/bin/bin/../../lib/gcc/pic32c/8.3.1/../../../../pic32c/lib/thumb/v7e-m+fp/hard\libm-emfloat.a(floatasmops_arm.o)
 .text.__aeabi_cdrcmple
                0x00000000       0x1c c:/program files/microchip/xc32/v4.10/bin/bin/../../lib/gcc/pic32c/8.3.1/../../../../pic32c/lib/thumb/v7e-m+fp/hard\libm-emfloat.a(floatasmops_arm.o)
 .text.__aeabi_cfcmp_impl
                0x00000000       0x22 c:/program files/microchip/xc32/v4.10/bin/bin/../../lib/gcc/pic32c/8.3.1/../../../../pic32c/lib/thumb/v7e-m+fp/hard\libm-emfloat.a(floatasmops_arm.o)
 .text.__aeabi_cdcmp_impl
                0x00000000       0x64 c:/program files/microchip/xc32/v4.10/bin/bin/../../lib/gcc/pic32c/8.3.1/../../../../pic32c/lib/thumb/v7e-m+fp/hard\libm-emfloat.a(floatasmops_arm.o)
 .text.__aeabi_f2iz
                0x00000000       0x10 c:/program files/microchip/xc32/v4.10/bin/bin/../../lib/gcc/pic32c/8.3.1/../../../../pic32c/lib/thumb/v7e-m+fp/hard\libm-emfloat.a(floatasmops_arm.o)
 .text.__aeabi_f2lz
                0x00000000       0x74 c:/program files/microchip/xc32/v4.10/bin/bin/../../lib/gcc/pic32c/8.3.1/../../../../pic32c/lib/thumb/v7e-m+fp/hard\libm-emfloat.a(floatasmops_arm.o)
 .text.__aeabi_d2lz
                0x00000000       0x80 c:/program files/microchip/xc32/v4.10/bin/bin/../../lib/gcc/pic32c/8.3.1/../../../../pic32c/lib/thumb/v7e-m+fp/hard\libm-emfloat.a(floatasmops_arm.o)
 .text.__aeabi_f2uiz
                0x00000000       0x10 c:/program files/microchip/xc32/v4.10/bin/bin/../../lib/gcc/pic32c/8.3.1/../../../../pic32c/lib/thumb/v7e-m+fp/hard\libm-emfloat.a(floatasmops_arm.o)
 .text.__aeabi_f2ulz
                0x00000000       0x40 c:/program files/microchip/xc32/v4.10/bin/bin/../../lib/gcc/pic32c/8.3.1/../../../../pic32c/lib/thumb/v7e-m+fp/hard\libm-emfloat.a(floatasmops_arm.o)
 .text.__aeabi_d2ulz
                0x00000000       0x40 c:/program files/microchip/xc32/v4.10/bin/bin/../../lib/gcc/pic32c/8.3.1/../../../../pic32c/lib/thumb/v7e-m+fp/hard\libm-emfloat.a(floatasmops_arm.o)
 .text.__aeabi_i2f
                0x00000000       0x10 c:/program files/microchip/xc32/v4.10/bin/bin/../../lib/gcc/pic32c/8.3.1/../../../../pic32c/lib/thumb/v7e-m+fp/hard\libm-emfloat.a(floatasmops_arm.o)
 .text.__aeabi_l2f
                0x00000000       0x64 c:/program files/microchip/xc32/v4.10/bin/bin/../../lib/gcc/pic32c/8.3.1/../../../../pic32c/lib/thumb/v7e-m+fp/hard\libm-emfloat.a(floatasmops_arm.o)
 .text.__aeabi_l2d
                0x00000000       0x68 c:/program files/microchip/xc32/v4.10/bin/bin/../../lib/gcc/pic32c/8.3.1/../../../../pic32c/lib/thumb/v7e-m+fp/hard\libm-emfloat.a(floatasmops_arm.o)
 .text.__aeabi_ui2f
                0x00000000       0x10 c:/program files/microchip/xc32/v4.10/bin/bin/../../lib/gcc/pic32c/8.3.1/../../../../pic32c/lib/thumb/v7e-m+fp/hard\libm-emfloat.a(floatasmops_arm.o)
 .text.__aeabi_ul2f
                0x00000000       0x54 c:/program files/microchip/xc32/v4.10/bin/bin/../../lib/gcc/pic32c/8.3.1/../../../../pic32c/lib/thumb/v7e-m+fp/hard\libm-emfloat.a(floatasmops_arm.o)
 .text.__aeabi_ul2d
                0x00000000       0x5c c:/program files/microchip/xc32/v4.10/bin/bin/../../lib/gcc/pic32c/8.3.1/../../../../pic32c/lib/thumb/v7e-m+fp/hard\libm-emfloat.a(floatasmops_arm.o)
 .text.__aeabi_f2d
                0x00000000       0x34 c:/program files/microchip/xc32/v4.10/bin/bin/../../lib/gcc/pic32c/8.3.1/../../../../pic32c/lib/thumb/v7e-m+fp/hard\libm-emfloat.a(floatasmops_arm.o)
 .text.__aeabi_d2f
                0x00000000       0x4c c:/program files/microchip/xc32/v4.10/bin/bin/../../lib/gcc/pic32c/8.3.1/../../../../pic32c/lib/thumb/v7e-m+fp/hard\libm-emfloat.a(floatasmops_arm.o)
 .xc_stack_usage.hdr
                0x00000000        0xe c:/program files/microchip/xc32/v4.10/bin/bin/../../lib/gcc/pic32c/8.3.1/../../../../pic32c/lib/thumb/v7e-m+fp/hard\libm-emfloat.a(floatasmops_arm.o)
 .xc_stack_usage
                0x00000000      0x518 c:/program files/microchip/xc32/v4.10/bin/bin/../../lib/gcc/pic32c/8.3.1/../../../../pic32c/lib/thumb/v7e-m+fp/hard\libm-emfloat.a(floatasmops_arm.o)
 .text          0x00000000        0x0 c:/program files/microchip/xc32/v4.10/bin/bin/../../lib/gcc/pic32c/8.3.1/../../../../pic32c/lib/thumb/v7e-m+fp/hard\libc-musl.a(isalnum.o)
 .data          0x00000000        0x0 c:/program files/microchip/xc32/v4.10/bin/bin/../../lib/gcc/pic32c/8.3.1/../../../../pic32c/lib/thumb/v7e-m+fp/hard\libc-musl.a(isalnum.o)
 .bss           0x00000000        0x0 c:/program files/microchip/xc32/v4.10/bin/bin/../../lib/gcc/pic32c/8.3.1/../../../../pic32c/lib/thumb/v7e-m+fp/hard\libc-musl.a(isalnum.o)
 .xc_stack_usage
                0x00000000       0x2e c:/program files/microchip/xc32/v4.10/bin/bin/../../lib/gcc/pic32c/8.3.1/../../../../pic32c/lib/thumb/v7e-m+fp/hard\libc-musl.a(isalnum.o)
 .text.__isalnum_l
                0x00000000        0x4 c:/program files/microchip/xc32/v4.10/bin/bin/../../lib/gcc/pic32c/8.3.1/../../../../pic32c/lib/thumb/v7e-m+fp/hard\libc-musl.a(isalnum.o)
 .xc_stack_usage.hdr
                0x00000000        0xe c:/program files/microchip/xc32/v4.10/bin/bin/../../lib/gcc/pic32c/8.3.1/../../../../pic32c/lib/thumb/v7e-m+fp/hard\libc-musl.a(isalnum.o)
 .text          0x00000000        0x0 c:/program files/microchip/xc32/v4.10/bin/bin/../../lib/gcc/pic32c/8.3.1/../../../../pic32c/lib/thumb/v7e-m+fp/hard\libc-musl.a(isxdigit.o)
 .data          0x00000000        0x0 c:/program files/microchip/xc32/v4.10/bin/bin/../../lib/gcc/pic32c/8.3.1/../../../../pic32c/lib/thumb/v7e-m+fp/hard\libc-musl.a(isxdigit.o)
 .bss           0x00000000        0x0 c:/program files/microchip/xc32/v4.10/bin/bin/../../lib/gcc/pic32c/8.3.1/../../../../pic32c/lib/thumb/v7e-m+fp/hard\libc-musl.a(isxdigit.o)
 .xc_stack_usage
                0x00000000       0x30 c:/program files/microchip/xc32/v4.10/bin/bin/../../lib/gcc/pic32c/8.3.1/../../../../pic32c/lib/thumb/v7e-m+fp/hard\libc-musl.a(isxdigit.o)
 .text.__isxdigit_l
                0x00000000        0x4 c:/program files/microchip/xc32/v4.10/bin/bin/../../lib/gcc/pic32c/8.3.1/../../../../pic32c/lib/thumb/v7e-m+fp/hard\libc-musl.a(isxdigit.o)
 .xc_stack_usage.hdr
                0x00000000        0xe c:/program files/microchip/xc32/v4.10/bin/bin/../../lib/gcc/pic32c/8.3.1/../../../../pic32c/lib/thumb/v7e-m+fp/hard\libc-musl.a(isxdigit.o)
 .text          0x00000000        0x0 c:/program files/microchip/xc32/v4.10/bin/bin/../../lib/gcc/pic32c/8.3.1/../../../../pic32c/lib/thumb/v7e-m+fp/hard\libc-musl.a(tolower.o)
 .data          0x00000000        0x0 c:/program files/microchip/xc32/v4.10/bin/bin/../../lib/gcc/pic32c/8.3.1/../../../../pic32c/lib/thumb/v7e-m+fp/hard\libc-musl.a(tolower.o)
 .bss           0x00000000        0x0 c:/program files/microchip/xc32/v4.10/bin/bin/../../lib/gcc/pic32c/8.3.1/../../../../pic32c/lib/thumb/v7e-m+fp/hard\libc-musl.a(tolower.o)
 .xc_stack_usage
                0x00000000       0x2e c:/program files/microchip/xc32/v4.10/bin/bin/../../lib/gcc/pic32c/8.3.1/../../../../pic32c/lib/thumb/v7e-m+fp/hard\libc-musl.a(tolower.o)
 .text.__tolower_l
                0x00000000        0x4 c:/program files/microchip/xc32/v4.10/bin/bin/../../lib/gcc/pic32c/8.3.1/../../../../pic32c/lib/thumb/v7e-m+fp/hard\libc-musl.a(tolower.o)
 .xc_stack_usage.hdr
                0x00000000        0xe c:/program files/microchip/xc32/v4.10/bin/bin/../../lib/gcc/pic32c/8.3.1/../../../../pic32c/lib/thumb/v7e-m+fp/hard\libc-musl.a(tolower.o)
 .text          0x00000000        0x0 c:/program files/microchip/xc32/v4.10/bin/bin/../../lib/gcc/pic32c/8.3.1/../../../../pic32c/lib/thumb/v7e-m+fp/hard\libc-musl.a(toupper.o)
 .data          0x00000000        0x0 c:/program files/microchip/xc32/v4.10/bin/bin/../../lib/gcc/pic32c/8.3.1/../../../../pic32c/lib/thumb/v7e-m+fp/hard\libc-musl.a(toupper.o)
 .bss           0x00000000        0x0 c:/program files/microchip/xc32/v4.10/bin/bin/../../lib/gcc/pic32c/8.3.1/../../../../pic32c/lib/thumb/v7e-m+fp/hard\libc-musl.a(toupper.o)
 .xc_stack_usage
                0x00000000       0x2e c:/program files/microchip/xc32/v4.10/bin/bin/../../lib/gcc/pic32c/8.3.1/../../../../pic32c/lib/thumb/v7e-m+fp/hard\libc-musl.a(toupper.o)
 .text.__toupper_l
                0x00000000        0x4 c:/program files/microchip/xc32/v4.10/bin/bin/../../lib/gcc/pic32c/8.3.1/../../../../pic32c/lib/thumb/v7e-m+fp/hard\libc-musl.a(toupper.o)
 .xc_stack_usage.hdr
                0x00000000        0xe c:/program files/microchip/xc32/v4.10/bin/bin/../../lib/gcc/pic32c/8.3.1/../../../../pic32c/lib/thumb/v7e-m+fp/hard\libc-musl.a(toupper.o)
 .text          0x00000000        0x0 c:/program files/microchip/xc32/v4.10/bin/bin/../../lib/gcc/pic32c/8.3.1/../../../../pic32c/lib/thumb/v7e-m+fp/hard\libc-musl.a(__libc_start_main.o)
 .data          0x00000000        0x0 c:/program files/microchip/xc32/v4.10/bin/bin/../../lib/gcc/pic32c/8.3.1/../../../../pic32c/lib/thumb/v7e-m+fp/hard\libc-musl.a(__libc_start_main.o)
 .bss           0x00000000        0x0 c:/program files/microchip/xc32/v4.10/bin/bin/../../lib/gcc/pic32c/8.3.1/../../../../pic32c/lib/thumb/v7e-m+fp/hard\libc-musl.a(__libc_start_main.o)
 .xc_stack_usage
                0x00000000       0x34 c:/program files/microchip/xc32/v4.10/bin/bin/../../lib/gcc/pic32c/8.3.1/../../../../pic32c/lib/thumb/v7e-m+fp/hard\libc-musl.a(__libc_start_main.o)
 .xc_stack_usage.hdr
                0x00000000        0xe c:/program files/microchip/xc32/v4.10/bin/bin/../../lib/gcc/pic32c/8.3.1/../../../../pic32c/lib/thumb/v7e-m+fp/hard\libc-musl.a(__libc_start_main.o)
 .text          0x00000000        0x0 c:/program files/microchip/xc32/v4.10/bin/bin/../../lib/gcc/pic32c/8.3.1/../../../../pic32c/lib/thumb/v7e-m+fp/hard\libc-musl.a(libc.o)
 .data          0x00000000        0x0 c:/program files/microchip/xc32/v4.10/bin/bin/../../lib/gcc/pic32c/8.3.1/../../../../pic32c/lib/thumb/v7e-m+fp/hard\libc-musl.a(libc.o)
 .xc_stack_usage.hdr
                0x00000000        0xe c:/program files/microchip/xc32/v4.10/bin/bin/../../lib/gcc/pic32c/8.3.1/../../../../pic32c/lib/thumb/v7e-m+fp/hard\libc-musl.a(libc.o)
 .text          0x00000000        0x0 c:/program files/microchip/xc32/v4.10/bin/bin/../../lib/gcc/pic32c/8.3.1/../../../../pic32c/lib/thumb/v7e-m+fp/hard\libc-musl.a(malloc.o)
 .data          0x00000000        0x0 c:/program files/microchip/xc32/v4.10/bin/bin/../../lib/gcc/pic32c/8.3.1/../../../../pic32c/lib/thumb/v7e-m+fp/hard\libc-musl.a(malloc.o)
 .xc_stack_usage
                0x00000000       0xeb c:/program files/microchip/xc32/v4.10/bin/bin/../../lib/gcc/pic32c/8.3.1/../../../../pic32c/lib/thumb/v7e-m+fp/hard\libc-musl.a(malloc.o)
 .text.__malloc0
                0x00000000       0x26 c:/program files/microchip/xc32/v4.10/bin/bin/../../lib/gcc/pic32c/8.3.1/../../../../pic32c/lib/thumb/v7e-m+fp/hard\libc-musl.a(malloc.o)
 .text.realloc  0x00000000       0x90 c:/program files/microchip/xc32/v4.10/bin/bin/../../lib/gcc/pic32c/8.3.1/../../../../pic32c/lib/thumb/v7e-m+fp/hard\libc-musl.a(malloc.o)
 .xc_stack_usage.hdr
                0x00000000        0xe c:/program files/microchip/xc32/v4.10/bin/bin/../../lib/gcc/pic32c/8.3.1/../../../../pic32c/lib/thumb/v7e-m+fp/hard\libc-musl.a(malloc.o)
 .text          0x00000000        0x0 c:/program files/microchip/xc32/v4.10/bin/bin/../../lib/gcc/pic32c/8.3.1/../../../../pic32c/lib/thumb/v7e-m+fp/hard\libc-musl.a(expand_heap.o)
 .data          0x00000000        0x0 c:/program files/microchip/xc32/v4.10/bin/bin/../../lib/gcc/pic32c/8.3.1/../../../../pic32c/lib/thumb/v7e-m+fp/hard\libc-musl.a(expand_heap.o)
 .bss           0x00000000        0x0 c:/program files/microchip/xc32/v4.10/bin/bin/../../lib/gcc/pic32c/8.3.1/../../../../pic32c/lib/thumb/v7e-m+fp/hard\libc-musl.a(expand_heap.o)
 .xc_stack_usage
                0x00000000       0x1b c:/program files/microchip/xc32/v4.10/bin/bin/../../lib/gcc/pic32c/8.3.1/../../../../pic32c/lib/thumb/v7e-m+fp/hard\libc-musl.a(expand_heap.o)
 .xc_stack_usage.hdr
                0x00000000        0xe c:/program files/microchip/xc32/v4.10/bin/bin/../../lib/gcc/pic32c/8.3.1/../../../../pic32c/lib/thumb/v7e-m+fp/hard\libc-musl.a(expand_heap.o)
 .text          0x00000000        0x0 c:/program files/microchip/xc32/v4.10/bin/bin/../../lib/gcc/pic32c/8.3.1/../../../../pic32c/lib/thumb/v7e-m+fp/hard\libc-musl.a(rand.o)
 .data          0x00000000        0x0 c:/program files/microchip/xc32/v4.10/bin/bin/../../lib/gcc/pic32c/8.3.1/../../../../pic32c/lib/thumb/v7e-m+fp/hard\libc-musl.a(rand.o)
 .xc_stack_usage
                0x00000000       0x25 c:/program files/microchip/xc32/v4.10/bin/bin/../../lib/gcc/pic32c/8.3.1/../../../../pic32c/lib/thumb/v7e-m+fp/hard\libc-musl.a(rand.o)
 .xc_stack_usage.hdr
                0x00000000        0xe c:/program files/microchip/xc32/v4.10/bin/bin/../../lib/gcc/pic32c/8.3.1/../../../../pic32c/lib/thumb/v7e-m+fp/hard\libc-musl.a(rand.o)
 .text          0x00000000        0x0 c:/program files/microchip/xc32/v4.10/bin/bin/../../lib/gcc/pic32c/8.3.1/../../../../pic32c/lib/thumb/v7e-m+fp/hard\libc-musl.a(vsnprintf.o)
 .data          0x00000000        0x0 c:/program files/microchip/xc32/v4.10/bin/bin/../../lib/gcc/pic32c/8.3.1/../../../../pic32c/lib/thumb/v7e-m+fp/hard\libc-musl.a(vsnprintf.o)
 .bss           0x00000000        0x0 c:/program files/microchip/xc32/v4.10/bin/bin/../../lib/gcc/pic32c/8.3.1/../../../../pic32c/lib/thumb/v7e-m+fp/hard\libc-musl.a(vsnprintf.o)
 .xc_stack_usage
                0x00000000       0x17 c:/program files/microchip/xc32/v4.10/bin/bin/../../lib/gcc/pic32c/8.3.1/../../../../pic32c/lib/thumb/v7e-m+fp/hard\libc-musl.a(vsnprintf.o)
 .xc_stack_usage.hdr
                0x00000000        0xe c:/program files/microchip/xc32/v4.10/bin/bin/../../lib/gcc/pic32c/8.3.1/../../../../pic32c/lib/thumb/v7e-m+fp/hard\libc-musl.a(vsnprintf.o)
 .text          0x00000000        0x0 c:/program files/microchip/xc32/v4.10/bin/bin/../../lib/gcc/pic32c/8.3.1/../../../../pic32c/lib/thumb/v7e-m+fp/hard\libc-musl.a(snprintf.o)
 .data          0x00000000        0x0 c:/program files/microchip/xc32/v4.10/bin/bin/../../lib/gcc/pic32c/8.3.1/../../../../pic32c/lib/thumb/v7e-m+fp/hard\libc-musl.a(snprintf.o)
 .bss           0x00000000        0x0 c:/program files/microchip/xc32/v4.10/bin/bin/../../lib/gcc/pic32c/8.3.1/../../../../pic32c/lib/thumb/v7e-m+fp/hard\libc-musl.a(snprintf.o)
 .xc_stack_usage
                0x00000000       0x16 c:/program files/microchip/xc32/v4.10/bin/bin/../../lib/gcc/pic32c/8.3.1/../../../../pic32c/lib/thumb/v7e-m+fp/hard\libc-musl.a(snprintf.o)
 .xc_stack_usage.hdr
                0x00000000        0xe c:/program files/microchip/xc32/v4.10/bin/bin/../../lib/gcc/pic32c/8.3.1/../../../../pic32c/lib/thumb/v7e-m+fp/hard\libc-musl.a(snprintf.o)
 .text          0x00000000        0x0 c:/program files/microchip/xc32/v4.10/bin/bin/../../lib/gcc/pic32c/8.3.1/../../../../pic32c/lib/thumb/v7e-m+fp/hard\libc-musl.a(sprintf.o)
 .data          0x00000000        0x0 c:/program files/microchip/xc32/v4.10/bin/bin/../../lib/gcc/pic32c/8.3.1/../../../../pic32c/lib/thumb/v7e-m+fp/hard\libc-musl.a(sprintf.o)
 .bss           0x00000000        0x0 c:/program files/microchip/xc32/v4.10/bin/bin/../../lib/gcc/pic32c/8.3.1/../../../../pic32c/lib/thumb/v7e-m+fp/hard\libc-musl.a(sprintf.o)
 .xc_stack_usage
                0x00000000       0x15 c:/program files/microchip/xc32/v4.10/bin/bin/../../lib/gcc/pic32c/8.3.1/../../../../pic32c/lib/thumb/v7e-m+fp/hard\libc-musl.a(sprintf.o)
 .xc_stack_usage.hdr
                0x00000000        0xe c:/program files/microchip/xc32/v4.10/bin/bin/../../lib/gcc/pic32c/8.3.1/../../../../pic32c/lib/thumb/v7e-m+fp/hard\libc-musl.a(sprintf.o)
 .text          0x00000000        0x0 c:/program files/microchip/xc32/v4.10/bin/bin/../../lib/gcc/pic32c/8.3.1/../../../../pic32c/lib/thumb/v7e-m+fp/hard\libc-musl.a(vsprintf.o)
 .data          0x00000000        0x0 c:/program files/microchip/xc32/v4.10/bin/bin/../../lib/gcc/pic32c/8.3.1/../../../../pic32c/lib/thumb/v7e-m+fp/hard\libc-musl.a(vsprintf.o)
 .bss           0x00000000        0x0 c:/program files/microchip/xc32/v4.10/bin/bin/../../lib/gcc/pic32c/8.3.1/../../../../pic32c/lib/thumb/v7e-m+fp/hard\libc-musl.a(vsprintf.o)
 .xc_stack_usage
                0x00000000       0x16 c:/program files/microchip/xc32/v4.10/bin/bin/../../lib/gcc/pic32c/8.3.1/../../../../pic32c/lib/thumb/v7e-m+fp/hard\libc-musl.a(vsprintf.o)
 .xc_stack_usage.hdr
                0x00000000        0xe c:/program files/microchip/xc32/v4.10/bin/bin/../../lib/gcc/pic32c/8.3.1/../../../../pic32c/lib/thumb/v7e-m+fp/hard\libc-musl.a(vsprintf.o)
 .text          0x00000000        0x0 c:/program files/microchip/xc32/v4.10/bin/bin/../../lib/gcc/pic32c/8.3.1/../../../../pic32c/lib/thumb/v7e-m+fp/hard\libc-musl.a(atoi.o)
 .data          0x00000000        0x0 c:/program files/microchip/xc32/v4.10/bin/bin/../../lib/gcc/pic32c/8.3.1/../../../../pic32c/lib/thumb/v7e-m+fp/hard\libc-musl.a(atoi.o)
 .bss           0x00000000        0x0 c:/program files/microchip/xc32/v4.10/bin/bin/../../lib/gcc/pic32c/8.3.1/../../../../pic32c/lib/thumb/v7e-m+fp/hard\libc-musl.a(atoi.o)
 .xc_stack_usage
                0x00000000       0x12 c:/program files/microchip/xc32/v4.10/bin/bin/../../lib/gcc/pic32c/8.3.1/../../../../pic32c/lib/thumb/v7e-m+fp/hard\libc-musl.a(atoi.o)
 .xc_stack_usage.hdr
                0x00000000        0xe c:/program files/microchip/xc32/v4.10/bin/bin/../../lib/gcc/pic32c/8.3.1/../../../../pic32c/lib/thumb/v7e-m+fp/hard\libc-musl.a(atoi.o)
 .text          0x00000000        0x0 c:/program files/microchip/xc32/v4.10/bin/bin/../../lib/gcc/pic32c/8.3.1/../../../../pic32c/lib/thumb/v7e-m+fp/hard\libc-musl.a(strtol.o)
 .data          0x00000000        0x0 c:/program files/microchip/xc32/v4.10/bin/bin/../../lib/gcc/pic32c/8.3.1/../../../../pic32c/lib/thumb/v7e-m+fp/hard\libc-musl.a(strtol.o)
 .bss           0x00000000        0x0 c:/program files/microchip/xc32/v4.10/bin/bin/../../lib/gcc/pic32c/8.3.1/../../../../pic32c/lib/thumb/v7e-m+fp/hard\libc-musl.a(strtol.o)
 .xc_stack_usage
                0x00000000       0x96 c:/program files/microchip/xc32/v4.10/bin/bin/../../lib/gcc/pic32c/8.3.1/../../../../pic32c/lib/thumb/v7e-m+fp/hard\libc-musl.a(strtol.o)
 .text.strtoull
                0x00000000       0x16 c:/program files/microchip/xc32/v4.10/bin/bin/../../lib/gcc/pic32c/8.3.1/../../../../pic32c/lib/thumb/v7e-m+fp/hard\libc-musl.a(strtol.o)
 .text.strtoll  0x00000000       0x14 c:/program files/microchip/xc32/v4.10/bin/bin/../../lib/gcc/pic32c/8.3.1/../../../../pic32c/lib/thumb/v7e-m+fp/hard\libc-musl.a(strtol.o)
 .text.strtoimax
                0x00000000        0x4 c:/program files/microchip/xc32/v4.10/bin/bin/../../lib/gcc/pic32c/8.3.1/../../../../pic32c/lib/thumb/v7e-m+fp/hard\libc-musl.a(strtol.o)
 .text.strtoumax
                0x00000000        0x4 c:/program files/microchip/xc32/v4.10/bin/bin/../../lib/gcc/pic32c/8.3.1/../../../../pic32c/lib/thumb/v7e-m+fp/hard\libc-musl.a(strtol.o)
 .xc_stack_usage.hdr
                0x00000000        0xe c:/program files/microchip/xc32/v4.10/bin/bin/../../lib/gcc/pic32c/8.3.1/../../../../pic32c/lib/thumb/v7e-m+fp/hard\libc-musl.a(strtol.o)
 .text          0x00000000        0x0 c:/program files/microchip/xc32/v4.10/bin/bin/../../lib/gcc/pic32c/8.3.1/../../../../pic32c/lib/thumb/v7e-m+fp/hard\libc-musl.a(memcmp.o)
 .data          0x00000000        0x0 c:/program files/microchip/xc32/v4.10/bin/bin/../../lib/gcc/pic32c/8.3.1/../../../../pic32c/lib/thumb/v7e-m+fp/hard\libc-musl.a(memcmp.o)
 .bss           0x00000000        0x0 c:/program files/microchip/xc32/v4.10/bin/bin/../../lib/gcc/pic32c/8.3.1/../../../../pic32c/lib/thumb/v7e-m+fp/hard\libc-musl.a(memcmp.o)
 .xc_stack_usage
                0x00000000       0x14 c:/program files/microchip/xc32/v4.10/bin/bin/../../lib/gcc/pic32c/8.3.1/../../../../pic32c/lib/thumb/v7e-m+fp/hard\libc-musl.a(memcmp.o)
 .xc_stack_usage.hdr
                0x00000000        0xe c:/program files/microchip/xc32/v4.10/bin/bin/../../lib/gcc/pic32c/8.3.1/../../../../pic32c/lib/thumb/v7e-m+fp/hard\libc-musl.a(memcmp.o)
 .text          0x00000000        0x0 c:/program files/microchip/xc32/v4.10/bin/bin/../../lib/gcc/pic32c/8.3.1/../../../../pic32c/lib/thumb/v7e-m+fp/hard\libc-musl.a(memcpy.o)
 .data          0x00000000        0x0 c:/program files/microchip/xc32/v4.10/bin/bin/../../lib/gcc/pic32c/8.3.1/../../../../pic32c/lib/thumb/v7e-m+fp/hard\libc-musl.a(memcpy.o)
 .bss           0x00000000        0x0 c:/program files/microchip/xc32/v4.10/bin/bin/../../lib/gcc/pic32c/8.3.1/../../../../pic32c/lib/thumb/v7e-m+fp/hard\libc-musl.a(memcpy.o)
 .xc_stack_usage
                0x00000000       0x14 c:/program files/microchip/xc32/v4.10/bin/bin/../../lib/gcc/pic32c/8.3.1/../../../../pic32c/lib/thumb/v7e-m+fp/hard\libc-musl.a(memcpy.o)
 .xc_stack_usage.hdr
                0x00000000        0xe c:/program files/microchip/xc32/v4.10/bin/bin/../../lib/gcc/pic32c/8.3.1/../../../../pic32c/lib/thumb/v7e-m+fp/hard\libc-musl.a(memcpy.o)
 .text          0x00000000        0x0 c:/program files/microchip/xc32/v4.10/bin/bin/../../lib/gcc/pic32c/8.3.1/../../../../pic32c/lib/thumb/v7e-m+fp/hard\libc-musl.a(memmove.o)
 .data          0x00000000        0x0 c:/program files/microchip/xc32/v4.10/bin/bin/../../lib/gcc/pic32c/8.3.1/../../../../pic32c/lib/thumb/v7e-m+fp/hard\libc-musl.a(memmove.o)
 .bss           0x00000000        0x0 c:/program files/microchip/xc32/v4.10/bin/bin/../../lib/gcc/pic32c/8.3.1/../../../../pic32c/lib/thumb/v7e-m+fp/hard\libc-musl.a(memmove.o)
 .xc_stack_usage
                0x00000000       0x15 c:/program files/microchip/xc32/v4.10/bin/bin/../../lib/gcc/pic32c/8.3.1/../../../../pic32c/lib/thumb/v7e-m+fp/hard\libc-musl.a(memmove.o)
 .xc_stack_usage.hdr
                0x00000000        0xe c:/program files/microchip/xc32/v4.10/bin/bin/../../lib/gcc/pic32c/8.3.1/../../../../pic32c/lib/thumb/v7e-m+fp/hard\libc-musl.a(memmove.o)
 .text          0x00000000        0x0 c:/program files/microchip/xc32/v4.10/bin/bin/../../lib/gcc/pic32c/8.3.1/../../../../pic32c/lib/thumb/v7e-m+fp/hard\libc-musl.a(memset.o)
 .data          0x00000000        0x0 c:/program files/microchip/xc32/v4.10/bin/bin/../../lib/gcc/pic32c/8.3.1/../../../../pic32c/lib/thumb/v7e-m+fp/hard\libc-musl.a(memset.o)
 .bss           0x00000000        0x0 c:/program files/microchip/xc32/v4.10/bin/bin/../../lib/gcc/pic32c/8.3.1/../../../../pic32c/lib/thumb/v7e-m+fp/hard\libc-musl.a(memset.o)
 .xc_stack_usage
                0x00000000       0x14 c:/program files/microchip/xc32/v4.10/bin/bin/../../lib/gcc/pic32c/8.3.1/../../../../pic32c/lib/thumb/v7e-m+fp/hard\libc-musl.a(memset.o)
 .xc_stack_usage.hdr
                0x00000000        0xe c:/program files/microchip/xc32/v4.10/bin/bin/../../lib/gcc/pic32c/8.3.1/../../../../pic32c/lib/thumb/v7e-m+fp/hard\libc-musl.a(memset.o)
 .text          0x00000000        0x0 c:/program files/microchip/xc32/v4.10/bin/bin/../../lib/gcc/pic32c/8.3.1/../../../../pic32c/lib/thumb/v7e-m+fp/hard\libc-musl.a(strlen.o)
 .data          0x00000000        0x0 c:/program files/microchip/xc32/v4.10/bin/bin/../../lib/gcc/pic32c/8.3.1/../../../../pic32c/lib/thumb/v7e-m+fp/hard\libc-musl.a(strlen.o)
 .bss           0x00000000        0x0 c:/program files/microchip/xc32/v4.10/bin/bin/../../lib/gcc/pic32c/8.3.1/../../../../pic32c/lib/thumb/v7e-m+fp/hard\libc-musl.a(strlen.o)
 .xc_stack_usage
                0x00000000       0x14 c:/program files/microchip/xc32/v4.10/bin/bin/../../lib/gcc/pic32c/8.3.1/../../../../pic32c/lib/thumb/v7e-m+fp/hard\libc-musl.a(strlen.o)
 .xc_stack_usage.hdr
                0x00000000        0xe c:/program files/microchip/xc32/v4.10/bin/bin/../../lib/gcc/pic32c/8.3.1/../../../../pic32c/lib/thumb/v7e-m+fp/hard\libc-musl.a(strlen.o)
 .text          0x00000000        0x0 c:/program files/microchip/xc32/v4.10/bin/bin/../../lib/gcc/pic32c/8.3.1/../../../../pic32c/lib/thumb/v7e-m+fp/hard\libc-musl.a(strchr.o)
 .data          0x00000000        0x0 c:/program files/microchip/xc32/v4.10/bin/bin/../../lib/gcc/pic32c/8.3.1/../../../../pic32c/lib/thumb/v7e-m+fp/hard\libc-musl.a(strchr.o)
 .bss           0x00000000        0x0 c:/program files/microchip/xc32/v4.10/bin/bin/../../lib/gcc/pic32c/8.3.1/../../../../pic32c/lib/thumb/v7e-m+fp/hard\libc-musl.a(strchr.o)
 .xc_stack_usage
                0x00000000       0x14 c:/program files/microchip/xc32/v4.10/bin/bin/../../lib/gcc/pic32c/8.3.1/../../../../pic32c/lib/thumb/v7e-m+fp/hard\libc-musl.a(strchr.o)
 .xc_stack_usage.hdr
                0x00000000        0xe c:/program files/microchip/xc32/v4.10/bin/bin/../../lib/gcc/pic32c/8.3.1/../../../../pic32c/lib/thumb/v7e-m+fp/hard\libc-musl.a(strchr.o)
 .text          0x00000000        0x0 c:/program files/microchip/xc32/v4.10/bin/bin/../../lib/gcc/pic32c/8.3.1/../../../../pic32c/lib/thumb/v7e-m+fp/hard\libc-musl.a(strchrnul.o)
 .data          0x00000000        0x0 c:/program files/microchip/xc32/v4.10/bin/bin/../../lib/gcc/pic32c/8.3.1/../../../../pic32c/lib/thumb/v7e-m+fp/hard\libc-musl.a(strchrnul.o)
 .bss           0x00000000        0x0 c:/program files/microchip/xc32/v4.10/bin/bin/../../lib/gcc/pic32c/8.3.1/../../../../pic32c/lib/thumb/v7e-m+fp/hard\libc-musl.a(strchrnul.o)
 .xc_stack_usage
                0x00000000       0x19 c:/program files/microchip/xc32/v4.10/bin/bin/../../lib/gcc/pic32c/8.3.1/../../../../pic32c/lib/thumb/v7e-m+fp/hard\libc-musl.a(strchrnul.o)
 .xc_stack_usage.hdr
                0x00000000        0xe c:/program files/microchip/xc32/v4.10/bin/bin/../../lib/gcc/pic32c/8.3.1/../../../../pic32c/lib/thumb/v7e-m+fp/hard\libc-musl.a(strchrnul.o)
 .text          0x00000000        0x0 c:/program files/microchip/xc32/v4.10/bin/bin/../../lib/gcc/pic32c/8.3.1/../../../../pic32c/lib/thumb/v7e-m+fp/hard\libc-musl.a(strcmp.o)
 .data          0x00000000        0x0 c:/program files/microchip/xc32/v4.10/bin/bin/../../lib/gcc/pic32c/8.3.1/../../../../pic32c/lib/thumb/v7e-m+fp/hard\libc-musl.a(strcmp.o)
 .bss           0x00000000        0x0 c:/program files/microchip/xc32/v4.10/bin/bin/../../lib/gcc/pic32c/8.3.1/../../../../pic32c/lib/thumb/v7e-m+fp/hard\libc-musl.a(strcmp.o)
 .xc_stack_usage
                0x00000000       0x14 c:/program files/microchip/xc32/v4.10/bin/bin/../../lib/gcc/pic32c/8.3.1/../../../../pic32c/lib/thumb/v7e-m+fp/hard\libc-musl.a(strcmp.o)
 .xc_stack_usage.hdr
                0x00000000        0xe c:/program files/microchip/xc32/v4.10/bin/bin/../../lib/gcc/pic32c/8.3.1/../../../../pic32c/lib/thumb/v7e-m+fp/hard\libc-musl.a(strcmp.o)
 .text          0x00000000        0x0 c:/program files/microchip/xc32/v4.10/bin/bin/../../lib/gcc/pic32c/8.3.1/../../../../pic32c/lib/thumb/v7e-m+fp/hard\libc-musl.a(strcpy.o)
 .data          0x00000000        0x0 c:/program files/microchip/xc32/v4.10/bin/bin/../../lib/gcc/pic32c/8.3.1/../../../../pic32c/lib/thumb/v7e-m+fp/hard\libc-musl.a(strcpy.o)
 .bss           0x00000000        0x0 c:/program files/microchip/xc32/v4.10/bin/bin/../../lib/gcc/pic32c/8.3.1/../../../../pic32c/lib/thumb/v7e-m+fp/hard\libc-musl.a(strcpy.o)
 .xc_stack_usage
                0x00000000       0x14 c:/program files/microchip/xc32/v4.10/bin/bin/../../lib/gcc/pic32c/8.3.1/../../../../pic32c/lib/thumb/v7e-m+fp/hard\libc-musl.a(strcpy.o)
 .xc_stack_usage.hdr
                0x00000000        0xe c:/program files/microchip/xc32/v4.10/bin/bin/../../lib/gcc/pic32c/8.3.1/../../../../pic32c/lib/thumb/v7e-m+fp/hard\libc-musl.a(strcpy.o)
 .text          0x00000000        0x0 c:/program files/microchip/xc32/v4.10/bin/bin/../../lib/gcc/pic32c/8.3.1/../../../../pic32c/lib/thumb/v7e-m+fp/hard\libc-musl.a(strncmp.o)
 .data          0x00000000        0x0 c:/program files/microchip/xc32/v4.10/bin/bin/../../lib/gcc/pic32c/8.3.1/../../../../pic32c/lib/thumb/v7e-m+fp/hard\libc-musl.a(strncmp.o)
 .bss           0x00000000        0x0 c:/program files/microchip/xc32/v4.10/bin/bin/../../lib/gcc/pic32c/8.3.1/../../../../pic32c/lib/thumb/v7e-m+fp/hard\libc-musl.a(strncmp.o)
 .xc_stack_usage
                0x00000000       0x15 c:/program files/microchip/xc32/v4.10/bin/bin/../../lib/gcc/pic32c/8.3.1/../../../../pic32c/lib/thumb/v7e-m+fp/hard\libc-musl.a(strncmp.o)
 .xc_stack_usage.hdr
                0x00000000        0xe c:/program files/microchip/xc32/v4.10/bin/bin/../../lib/gcc/pic32c/8.3.1/../../../../pic32c/lib/thumb/v7e-m+fp/hard\libc-musl.a(strncmp.o)
 .text          0x00000000        0x0 c:/program files/microchip/xc32/v4.10/bin/bin/../../lib/gcc/pic32c/8.3.1/../../../../pic32c/lib/thumb/v7e-m+fp/hard\libc-musl.a(strncpy.o)
 .data          0x00000000        0x0 c:/program files/microchip/xc32/v4.10/bin/bin/../../lib/gcc/pic32c/8.3.1/../../../../pic32c/lib/thumb/v7e-m+fp/hard\libc-musl.a(strncpy.o)
 .bss           0x00000000        0x0 c:/program files/microchip/xc32/v4.10/bin/bin/../../lib/gcc/pic32c/8.3.1/../../../../pic32c/lib/thumb/v7e-m+fp/hard\libc-musl.a(strncpy.o)
 .xc_stack_usage
                0x00000000       0x15 c:/program files/microchip/xc32/v4.10/bin/bin/../../lib/gcc/pic32c/8.3.1/../../../../pic32c/lib/thumb/v7e-m+fp/hard\libc-musl.a(strncpy.o)
 .xc_stack_usage.hdr
                0x00000000        0xe c:/program files/microchip/xc32/v4.10/bin/bin/../../lib/gcc/pic32c/8.3.1/../../../../pic32c/lib/thumb/v7e-m+fp/hard\libc-musl.a(strncpy.o)
 .text          0x00000000        0x0 c:/program files/microchip/xc32/v4.10/bin/bin/../../lib/gcc/pic32c/8.3.1/../../../../pic32c/lib/thumb/v7e-m+fp/hard\libc-musl.a(strrchr.o)
 .data          0x00000000        0x0 c:/program files/microchip/xc32/v4.10/bin/bin/../../lib/gcc/pic32c/8.3.1/../../../../pic32c/lib/thumb/v7e-m+fp/hard\libc-musl.a(strrchr.o)
 .bss           0x00000000        0x0 c:/program files/microchip/xc32/v4.10/bin/bin/../../lib/gcc/pic32c/8.3.1/../../../../pic32c/lib/thumb/v7e-m+fp/hard\libc-musl.a(strrchr.o)
 .xc_stack_usage
                0x00000000       0x15 c:/program files/microchip/xc32/v4.10/bin/bin/../../lib/gcc/pic32c/8.3.1/../../../../pic32c/lib/thumb/v7e-m+fp/hard\libc-musl.a(strrchr.o)
 .xc_stack_usage.hdr
                0x00000000        0xe c:/program files/microchip/xc32/v4.10/bin/bin/../../lib/gcc/pic32c/8.3.1/../../../../pic32c/lib/thumb/v7e-m+fp/hard\libc-musl.a(strrchr.o)
 .text          0x00000000        0x0 c:/program files/microchip/xc32/v4.10/bin/bin/../../lib/gcc/pic32c/8.3.1/../../../../pic32c/lib/thumb/v7e-m+fp/hard\libc-musl.a(strtok.o)
 .data          0x00000000        0x0 c:/program files/microchip/xc32/v4.10/bin/bin/../../lib/gcc/pic32c/8.3.1/../../../../pic32c/lib/thumb/v7e-m+fp/hard\libc-musl.a(strtok.o)
 .xc_stack_usage
                0x00000000       0x14 c:/program files/microchip/xc32/v4.10/bin/bin/../../lib/gcc/pic32c/8.3.1/../../../../pic32c/lib/thumb/v7e-m+fp/hard\libc-musl.a(strtok.o)
 .xc_stack_usage.hdr
                0x00000000        0xe c:/program files/microchip/xc32/v4.10/bin/bin/../../lib/gcc/pic32c/8.3.1/../../../../pic32c/lib/thumb/v7e-m+fp/hard\libc-musl.a(strtok.o)
 .text          0x00000000        0x0 c:/program files/microchip/xc32/v4.10/bin/bin/../../lib/gcc/pic32c/8.3.1/../../../../pic32c/lib/thumb/v7e-m+fp/hard\libc-musl.a(gmtime.o)
 .data          0x00000000        0x0 c:/program files/microchip/xc32/v4.10/bin/bin/../../lib/gcc/pic32c/8.3.1/../../../../pic32c/lib/thumb/v7e-m+fp/hard\libc-musl.a(gmtime.o)
 .xc_stack_usage
                0x00000000       0x14 c:/program files/microchip/xc32/v4.10/bin/bin/../../lib/gcc/pic32c/8.3.1/../../../../pic32c/lib/thumb/v7e-m+fp/hard\libc-musl.a(gmtime.o)
 .xc_stack_usage.hdr
                0x00000000        0xe c:/program files/microchip/xc32/v4.10/bin/bin/../../lib/gcc/pic32c/8.3.1/../../../../pic32c/lib/thumb/v7e-m+fp/hard\libc-musl.a(gmtime.o)
 .text          0x00000000        0x0 c:/program files/microchip/xc32/v4.10/bin/bin/../../lib/gcc/pic32c/8.3.1/../../../../pic32c/lib/thumb/v7e-m+fp/hard\libc-musl.a(gmtime_r.o)
 .data          0x00000000        0x0 c:/program files/microchip/xc32/v4.10/bin/bin/../../lib/gcc/pic32c/8.3.1/../../../../pic32c/lib/thumb/v7e-m+fp/hard\libc-musl.a(gmtime_r.o)
 .bss           0x00000000        0x0 c:/program files/microchip/xc32/v4.10/bin/bin/../../lib/gcc/pic32c/8.3.1/../../../../pic32c/lib/thumb/v7e-m+fp/hard\libc-musl.a(gmtime_r.o)
 .xc_stack_usage
                0x00000000       0x18 c:/program files/microchip/xc32/v4.10/bin/bin/../../lib/gcc/pic32c/8.3.1/../../../../pic32c/lib/thumb/v7e-m+fp/hard\libc-musl.a(gmtime_r.o)
 .xc_stack_usage.hdr
                0x00000000        0xe c:/program files/microchip/xc32/v4.10/bin/bin/../../lib/gcc/pic32c/8.3.1/../../../../pic32c/lib/thumb/v7e-m+fp/hard\libc-musl.a(gmtime_r.o)
 .text          0x00000000        0x0 c:/program files/microchip/xc32/v4.10/bin/bin/../../lib/gcc/pic32c/8.3.1/../../../../pic32c/lib/thumb/v7e-m+fp/hard\libc-musl.a(time.o)
 .data          0x00000000        0x0 c:/program files/microchip/xc32/v4.10/bin/bin/../../lib/gcc/pic32c/8.3.1/../../../../pic32c/lib/thumb/v7e-m+fp/hard\libc-musl.a(time.o)
 .bss           0x00000000        0x0 c:/program files/microchip/xc32/v4.10/bin/bin/../../lib/gcc/pic32c/8.3.1/../../../../pic32c/lib/thumb/v7e-m+fp/hard\libc-musl.a(time.o)
 .xc_stack_usage
                0x00000000       0x12 c:/program files/microchip/xc32/v4.10/bin/bin/../../lib/gcc/pic32c/8.3.1/../../../../pic32c/lib/thumb/v7e-m+fp/hard\libc-musl.a(time.o)
 .xc_stack_usage.hdr
                0x00000000        0xe c:/program files/microchip/xc32/v4.10/bin/bin/../../lib/gcc/pic32c/8.3.1/../../../../pic32c/lib/thumb/v7e-m+fp/hard\libc-musl.a(time.o)
 .text          0x00000000        0x0 c:/program files/microchip/xc32/v4.10/bin/bin/../../lib/gcc/pic32c/8.3.1/../../../../pic32c/lib/thumb/v7e-m+fp/hard\libc-musl.a(__environ.o)
 .data          0x00000000        0x0 c:/program files/microchip/xc32/v4.10/bin/bin/../../lib/gcc/pic32c/8.3.1/../../../../pic32c/lib/thumb/v7e-m+fp/hard\libc-musl.a(__environ.o)
 .xc_stack_usage.hdr
                0x00000000        0xe c:/program files/microchip/xc32/v4.10/bin/bin/../../lib/gcc/pic32c/8.3.1/../../../../pic32c/lib/thumb/v7e-m+fp/hard\libc-musl.a(__environ.o)
 .text          0x00000000        0x0 c:/program files/microchip/xc32/v4.10/bin/bin/../../lib/gcc/pic32c/8.3.1/../../../../pic32c/lib/thumb/v7e-m+fp/hard\libc-musl.a(__errno_location.o)
 .data          0x00000000        0x0 c:/program files/microchip/xc32/v4.10/bin/bin/../../lib/gcc/pic32c/8.3.1/../../../../pic32c/lib/thumb/v7e-m+fp/hard\libc-musl.a(__errno_location.o)
 .xc_stack_usage.hdr
                0x00000000        0xe c:/program files/microchip/xc32/v4.10/bin/bin/../../lib/gcc/pic32c/8.3.1/../../../../pic32c/lib/thumb/v7e-m+fp/hard\libc-musl.a(__errno_location.o)
 .text          0x00000000        0x0 c:/program files/microchip/xc32/v4.10/bin/bin/../../lib/gcc/pic32c/8.3.1/../../../../pic32c/lib/thumb/v7e-m+fp/hard\libc-musl.a(intscan.o)
 .data          0x00000000        0x0 c:/program files/microchip/xc32/v4.10/bin/bin/../../lib/gcc/pic32c/8.3.1/../../../../pic32c/lib/thumb/v7e-m+fp/hard\libc-musl.a(intscan.o)
 .bss           0x00000000        0x0 c:/program files/microchip/xc32/v4.10/bin/bin/../../lib/gcc/pic32c/8.3.1/../../../../pic32c/lib/thumb/v7e-m+fp/hard\libc-musl.a(intscan.o)
 .xc_stack_usage
                0x00000000       0x17 c:/program files/microchip/xc32/v4.10/bin/bin/../../lib/gcc/pic32c/8.3.1/../../../../pic32c/lib/thumb/v7e-m+fp/hard\libc-musl.a(intscan.o)
 .xc_stack_usage.hdr
                0x00000000        0xe c:/program files/microchip/xc32/v4.10/bin/bin/../../lib/gcc/pic32c/8.3.1/../../../../pic32c/lib/thumb/v7e-m+fp/hard\libc-musl.a(intscan.o)
 .text          0x00000000        0x0 c:/program files/microchip/xc32/v4.10/bin/bin/../../lib/gcc/pic32c/8.3.1/../../../../pic32c/lib/thumb/v7e-m+fp/hard\libc-musl.a(shgetc.o)
 .data          0x00000000        0x0 c:/program files/microchip/xc32/v4.10/bin/bin/../../lib/gcc/pic32c/8.3.1/../../../../pic32c/lib/thumb/v7e-m+fp/hard\libc-musl.a(shgetc.o)
 .bss           0x00000000        0x0 c:/program files/microchip/xc32/v4.10/bin/bin/../../lib/gcc/pic32c/8.3.1/../../../../pic32c/lib/thumb/v7e-m+fp/hard\libc-musl.a(shgetc.o)
 .xc_stack_usage
                0x00000000       0x2b c:/program files/microchip/xc32/v4.10/bin/bin/../../lib/gcc/pic32c/8.3.1/../../../../pic32c/lib/thumb/v7e-m+fp/hard\libc-musl.a(shgetc.o)
 .xc_stack_usage.hdr
                0x00000000        0xe c:/program files/microchip/xc32/v4.10/bin/bin/../../lib/gcc/pic32c/8.3.1/../../../../pic32c/lib/thumb/v7e-m+fp/hard\libc-musl.a(shgetc.o)
 .text          0x00000000        0x0 c:/program files/microchip/xc32/v4.10/bin/bin/../../lib/gcc/pic32c/8.3.1/../../../../pic32c/lib/thumb/v7e-m+fp/hard\libc-musl.a(__uflow.o)
 .data          0x00000000        0x0 c:/program files/microchip/xc32/v4.10/bin/bin/../../lib/gcc/pic32c/8.3.1/../../../../pic32c/lib/thumb/v7e-m+fp/hard\libc-musl.a(__uflow.o)
 .bss           0x00000000        0x0 c:/program files/microchip/xc32/v4.10/bin/bin/../../lib/gcc/pic32c/8.3.1/../../../../pic32c/lib/thumb/v7e-m+fp/hard\libc-musl.a(__uflow.o)
 .xc_stack_usage
                0x00000000       0x15 c:/program files/microchip/xc32/v4.10/bin/bin/../../lib/gcc/pic32c/8.3.1/../../../../pic32c/lib/thumb/v7e-m+fp/hard\libc-musl.a(__uflow.o)
 .xc_stack_usage.hdr
                0x00000000        0xe c:/program files/microchip/xc32/v4.10/bin/bin/../../lib/gcc/pic32c/8.3.1/../../../../pic32c/lib/thumb/v7e-m+fp/hard\libc-musl.a(__uflow.o)
 .text          0x00000000        0x0 c:/program files/microchip/xc32/v4.10/bin/bin/../../lib/gcc/pic32c/8.3.1/../../../../pic32c/lib/thumb/v7e-m+fp/hard\libc-musl.a(vfprintf.o)
 .data          0x00000000        0x0 c:/program files/microchip/xc32/v4.10/bin/bin/../../lib/gcc/pic32c/8.3.1/../../../../pic32c/lib/thumb/v7e-m+fp/hard\libc-musl.a(vfprintf.o)
 .bss           0x00000000        0x0 c:/program files/microchip/xc32/v4.10/bin/bin/../../lib/gcc/pic32c/8.3.1/../../../../pic32c/lib/thumb/v7e-m+fp/hard\libc-musl.a(vfprintf.o)
 .xc_stack_usage
                0x00000000       0x38 c:/program files/microchip/xc32/v4.10/bin/bin/../../lib/gcc/pic32c/8.3.1/../../../../pic32c/lib/thumb/v7e-m+fp/hard\libc-musl.a(vfprintf.o)
 .xc_stack_usage.hdr
                0x00000000        0xe c:/program files/microchip/xc32/v4.10/bin/bin/../../lib/gcc/pic32c/8.3.1/../../../../pic32c/lib/thumb/v7e-m+fp/hard\libc-musl.a(vfprintf.o)
 .text          0x00000000        0x0 c:/program files/microchip/xc32/v4.10/bin/bin/../../lib/gcc/pic32c/8.3.1/../../../../pic32c/lib/thumb/v7e-m+fp/hard\libc-musl.a(memrchr.o)
 .data          0x00000000        0x0 c:/program files/microchip/xc32/v4.10/bin/bin/../../lib/gcc/pic32c/8.3.1/../../../../pic32c/lib/thumb/v7e-m+fp/hard\libc-musl.a(memrchr.o)
 .bss           0x00000000        0x0 c:/program files/microchip/xc32/v4.10/bin/bin/../../lib/gcc/pic32c/8.3.1/../../../../pic32c/lib/thumb/v7e-m+fp/hard\libc-musl.a(memrchr.o)
 .xc_stack_usage
                0x00000000       0x17 c:/program files/microchip/xc32/v4.10/bin/bin/../../lib/gcc/pic32c/8.3.1/../../../../pic32c/lib/thumb/v7e-m+fp/hard\libc-musl.a(memrchr.o)
 .xc_stack_usage.hdr
                0x00000000        0xe c:/program files/microchip/xc32/v4.10/bin/bin/../../lib/gcc/pic32c/8.3.1/../../../../pic32c/lib/thumb/v7e-m+fp/hard\libc-musl.a(memrchr.o)
 .text          0x00000000        0x0 c:/program files/microchip/xc32/v4.10/bin/bin/../../lib/gcc/pic32c/8.3.1/../../../../pic32c/lib/thumb/v7e-m+fp/hard\libc-musl.a(stpcpy.o)
 .data          0x00000000        0x0 c:/program files/microchip/xc32/v4.10/bin/bin/../../lib/gcc/pic32c/8.3.1/../../../../pic32c/lib/thumb/v7e-m+fp/hard\libc-musl.a(stpcpy.o)
 .bss           0x00000000        0x0 c:/program files/microchip/xc32/v4.10/bin/bin/../../lib/gcc/pic32c/8.3.1/../../../../pic32c/lib/thumb/v7e-m+fp/hard\libc-musl.a(stpcpy.o)
 .xc_stack_usage
                0x00000000       0x14 c:/program files/microchip/xc32/v4.10/bin/bin/../../lib/gcc/pic32c/8.3.1/../../../../pic32c/lib/thumb/v7e-m+fp/hard\libc-musl.a(stpcpy.o)
 .xc_stack_usage.hdr
                0x00000000        0xe c:/program files/microchip/xc32/v4.10/bin/bin/../../lib/gcc/pic32c/8.3.1/../../../../pic32c/lib/thumb/v7e-m+fp/hard\libc-musl.a(stpcpy.o)
 .text          0x00000000        0x0 c:/program files/microchip/xc32/v4.10/bin/bin/../../lib/gcc/pic32c/8.3.1/../../../../pic32c/lib/thumb/v7e-m+fp/hard\libc-musl.a(stpncpy.o)
 .data          0x00000000        0x0 c:/program files/microchip/xc32/v4.10/bin/bin/../../lib/gcc/pic32c/8.3.1/../../../../pic32c/lib/thumb/v7e-m+fp/hard\libc-musl.a(stpncpy.o)
 .bss           0x00000000        0x0 c:/program files/microchip/xc32/v4.10/bin/bin/../../lib/gcc/pic32c/8.3.1/../../../../pic32c/lib/thumb/v7e-m+fp/hard\libc-musl.a(stpncpy.o)
 .xc_stack_usage
                0x00000000       0x15 c:/program files/microchip/xc32/v4.10/bin/bin/../../lib/gcc/pic32c/8.3.1/../../../../pic32c/lib/thumb/v7e-m+fp/hard\libc-musl.a(stpncpy.o)
 .xc_stack_usage.hdr
                0x00000000        0xe c:/program files/microchip/xc32/v4.10/bin/bin/../../lib/gcc/pic32c/8.3.1/../../../../pic32c/lib/thumb/v7e-m+fp/hard\libc-musl.a(stpncpy.o)
 .text          0x00000000        0x0 c:/program files/microchip/xc32/v4.10/bin/bin/../../lib/gcc/pic32c/8.3.1/../../../../pic32c/lib/thumb/v7e-m+fp/hard\libc-musl.a(strcspn.o)
 .data          0x00000000        0x0 c:/program files/microchip/xc32/v4.10/bin/bin/../../lib/gcc/pic32c/8.3.1/../../../../pic32c/lib/thumb/v7e-m+fp/hard\libc-musl.a(strcspn.o)
 .bss           0x00000000        0x0 c:/program files/microchip/xc32/v4.10/bin/bin/../../lib/gcc/pic32c/8.3.1/../../../../pic32c/lib/thumb/v7e-m+fp/hard\libc-musl.a(strcspn.o)
 .xc_stack_usage
                0x00000000       0x15 c:/program files/microchip/xc32/v4.10/bin/bin/../../lib/gcc/pic32c/8.3.1/../../../../pic32c/lib/thumb/v7e-m+fp/hard\libc-musl.a(strcspn.o)
 .xc_stack_usage.hdr
                0x00000000        0xe c:/program files/microchip/xc32/v4.10/bin/bin/../../lib/gcc/pic32c/8.3.1/../../../../pic32c/lib/thumb/v7e-m+fp/hard\libc-musl.a(strcspn.o)
 .text          0x00000000        0x0 c:/program files/microchip/xc32/v4.10/bin/bin/../../lib/gcc/pic32c/8.3.1/../../../../pic32c/lib/thumb/v7e-m+fp/hard\libc-musl.a(strspn.o)
 .data          0x00000000        0x0 c:/program files/microchip/xc32/v4.10/bin/bin/../../lib/gcc/pic32c/8.3.1/../../../../pic32c/lib/thumb/v7e-m+fp/hard\libc-musl.a(strspn.o)
 .bss           0x00000000        0x0 c:/program files/microchip/xc32/v4.10/bin/bin/../../lib/gcc/pic32c/8.3.1/../../../../pic32c/lib/thumb/v7e-m+fp/hard\libc-musl.a(strspn.o)
 .xc_stack_usage
                0x00000000       0x14 c:/program files/microchip/xc32/v4.10/bin/bin/../../lib/gcc/pic32c/8.3.1/../../../../pic32c/lib/thumb/v7e-m+fp/hard\libc-musl.a(strspn.o)
 .xc_stack_usage.hdr
                0x00000000        0xe c:/program files/microchip/xc32/v4.10/bin/bin/../../lib/gcc/pic32c/8.3.1/../../../../pic32c/lib/thumb/v7e-m+fp/hard\libc-musl.a(strspn.o)
 .text          0x00000000        0x0 c:/program files/microchip/xc32/v4.10/bin/bin/../../lib/gcc/pic32c/8.3.1/../../../../pic32c/lib/thumb/v7e-m+fp/hard\libc-musl.a(__secs_to_tm.o)
 .data          0x00000000        0x0 c:/program files/microchip/xc32/v4.10/bin/bin/../../lib/gcc/pic32c/8.3.1/../../../../pic32c/lib/thumb/v7e-m+fp/hard\libc-musl.a(__secs_to_tm.o)
 .bss           0x00000000        0x0 c:/program files/microchip/xc32/v4.10/bin/bin/../../lib/gcc/pic32c/8.3.1/../../../../pic32c/lib/thumb/v7e-m+fp/hard\libc-musl.a(__secs_to_tm.o)
 .xc_stack_usage
                0x00000000       0x1a c:/program files/microchip/xc32/v4.10/bin/bin/../../lib/gcc/pic32c/8.3.1/../../../../pic32c/lib/thumb/v7e-m+fp/hard\libc-musl.a(__secs_to_tm.o)
 .xc_stack_usage.hdr
                0x00000000        0xe c:/program files/microchip/xc32/v4.10/bin/bin/../../lib/gcc/pic32c/8.3.1/../../../../pic32c/lib/thumb/v7e-m+fp/hard\libc-musl.a(__secs_to_tm.o)
 .text          0x00000000        0x0 c:/program files/microchip/xc32/v4.10/bin/bin/../../lib/gcc/pic32c/8.3.1/../../../../pic32c/lib/thumb/v7e-m+fp/hard\libc-musl.a(clock_gettime.o)
 .data          0x00000000        0x0 c:/program files/microchip/xc32/v4.10/bin/bin/../../lib/gcc/pic32c/8.3.1/../../../../pic32c/lib/thumb/v7e-m+fp/hard\libc-musl.a(clock_gettime.o)
 .bss           0x00000000        0x0 c:/program files/microchip/xc32/v4.10/bin/bin/../../lib/gcc/pic32c/8.3.1/../../../../pic32c/lib/thumb/v7e-m+fp/hard\libc-musl.a(clock_gettime.o)
 .xc_stack_usage
                0x00000000       0x1d c:/program files/microchip/xc32/v4.10/bin/bin/../../lib/gcc/pic32c/8.3.1/../../../../pic32c/lib/thumb/v7e-m+fp/hard\libc-musl.a(clock_gettime.o)
 .xc_stack_usage.hdr
                0x00000000        0xe c:/program files/microchip/xc32/v4.10/bin/bin/../../lib/gcc/pic32c/8.3.1/../../../../pic32c/lib/thumb/v7e-m+fp/hard\libc-musl.a(clock_gettime.o)
 .text          0x00000000        0x0 c:/program files/microchip/xc32/v4.10/bin/bin/../../lib/gcc/pic32c/8.3.1/../../../../pic32c/lib/thumb/v7e-m+fp/hard\libc-musl.a(gettimeofday.o)
 .data          0x00000000        0x0 c:/program files/microchip/xc32/v4.10/bin/bin/../../lib/gcc/pic32c/8.3.1/../../../../pic32c/lib/thumb/v7e-m+fp/hard\libc-musl.a(gettimeofday.o)
 .bss           0x00000000        0x0 c:/program files/microchip/xc32/v4.10/bin/bin/../../lib/gcc/pic32c/8.3.1/../../../../pic32c/lib/thumb/v7e-m+fp/hard\libc-musl.a(gettimeofday.o)
 .xc_stack_usage
                0x00000000       0x1c c:/program files/microchip/xc32/v4.10/bin/bin/../../lib/gcc/pic32c/8.3.1/../../../../pic32c/lib/thumb/v7e-m+fp/hard\libc-musl.a(gettimeofday.o)
 .xc_stack_usage.hdr
                0x00000000        0xe c:/program files/microchip/xc32/v4.10/bin/bin/../../lib/gcc/pic32c/8.3.1/../../../../pic32c/lib/thumb/v7e-m+fp/hard\libc-musl.a(gettimeofday.o)
 .text          0x00000000        0x0 c:/program files/microchip/xc32/v4.10/bin/bin/../../lib/gcc/pic32c/8.3.1/../../../../pic32c/lib/thumb/v7e-m+fp/hard\libc-musl.a(syscall_ret.o)
 .data          0x00000000        0x0 c:/program files/microchip/xc32/v4.10/bin/bin/../../lib/gcc/pic32c/8.3.1/../../../../pic32c/lib/thumb/v7e-m+fp/hard\libc-musl.a(syscall_ret.o)
 .bss           0x00000000        0x0 c:/program files/microchip/xc32/v4.10/bin/bin/../../lib/gcc/pic32c/8.3.1/../../../../pic32c/lib/thumb/v7e-m+fp/hard\libc-musl.a(syscall_ret.o)
 .xc_stack_usage
                0x00000000       0x1b c:/program files/microchip/xc32/v4.10/bin/bin/../../lib/gcc/pic32c/8.3.1/../../../../pic32c/lib/thumb/v7e-m+fp/hard\libc-musl.a(syscall_ret.o)
 .xc_stack_usage.hdr
                0x00000000        0xe c:/program files/microchip/xc32/v4.10/bin/bin/../../lib/gcc/pic32c/8.3.1/../../../../pic32c/lib/thumb/v7e-m+fp/hard\libc-musl.a(syscall_ret.o)
 .text          0x00000000        0x0 c:/program files/microchip/xc32/v4.10/bin/bin/../../lib/gcc/pic32c/8.3.1/../../../../pic32c/lib/thumb/v7e-m+fp/hard\libc-musl.a(__toread.o)
 .data          0x00000000        0x0 c:/program files/microchip/xc32/v4.10/bin/bin/../../lib/gcc/pic32c/8.3.1/../../../../pic32c/lib/thumb/v7e-m+fp/hard\libc-musl.a(__toread.o)
 .bss           0x00000000        0x0 c:/program files/microchip/xc32/v4.10/bin/bin/../../lib/gcc/pic32c/8.3.1/../../../../pic32c/lib/thumb/v7e-m+fp/hard\libc-musl.a(__toread.o)
 .xc_stack_usage
                0x00000000       0x3d c:/program files/microchip/xc32/v4.10/bin/bin/../../lib/gcc/pic32c/8.3.1/../../../../pic32c/lib/thumb/v7e-m+fp/hard\libc-musl.a(__toread.o)
 .text.__toread_needs_stdio_exit
                0x00000000        0x4 c:/program files/microchip/xc32/v4.10/bin/bin/../../lib/gcc/pic32c/8.3.1/../../../../pic32c/lib/thumb/v7e-m+fp/hard\libc-musl.a(__toread.o)
 .xc_stack_usage.hdr
                0x00000000        0xe c:/program files/microchip/xc32/v4.10/bin/bin/../../lib/gcc/pic32c/8.3.1/../../../../pic32c/lib/thumb/v7e-m+fp/hard\libc-musl.a(__toread.o)
 .text          0x00000000        0x0 c:/program files/microchip/xc32/v4.10/bin/bin/../../lib/gcc/pic32c/8.3.1/../../../../pic32c/lib/thumb/v7e-m+fp/hard\libc-musl.a(__io_fmt_needed.o)
 .data          0x00000000        0x0 c:/program files/microchip/xc32/v4.10/bin/bin/../../lib/gcc/pic32c/8.3.1/../../../../pic32c/lib/thumb/v7e-m+fp/hard\libc-musl.a(__io_fmt_needed.o)
 .bss           0x00000000        0x0 c:/program files/microchip/xc32/v4.10/bin/bin/../../lib/gcc/pic32c/8.3.1/../../../../pic32c/lib/thumb/v7e-m+fp/hard\libc-musl.a(__io_fmt_needed.o)
 .xc_stack_usage
                0x00000000       0x1d c:/program files/microchip/xc32/v4.10/bin/bin/../../lib/gcc/pic32c/8.3.1/../../../../pic32c/lib/thumb/v7e-m+fp/hard\libc-musl.a(__io_fmt_needed.o)
 .xc_stack_usage.hdr
                0x00000000        0xe c:/program files/microchip/xc32/v4.10/bin/bin/../../lib/gcc/pic32c/8.3.1/../../../../pic32c/lib/thumb/v7e-m+fp/hard\libc-musl.a(__io_fmt_needed.o)
 .debug_info    0x00000000      0x3b2 c:/program files/microchip/xc32/v4.10/bin/bin/../../lib/gcc/pic32c/8.3.1/../../../../pic32c/lib/thumb/v7e-m+fp/hard\libc-musl.a(__io_fmt_needed.o)
 .debug_abbrev  0x00000000       0x6a c:/program files/microchip/xc32/v4.10/bin/bin/../../lib/gcc/pic32c/8.3.1/../../../../pic32c/lib/thumb/v7e-m+fp/hard\libc-musl.a(__io_fmt_needed.o)
 .debug_loc     0x00000000       0x2c c:/program files/microchip/xc32/v4.10/bin/bin/../../lib/gcc/pic32c/8.3.1/../../../../pic32c/lib/thumb/v7e-m+fp/hard\libc-musl.a(__io_fmt_needed.o)
 .debug_aranges
                0x00000000       0x20 c:/program files/microchip/xc32/v4.10/bin/bin/../../lib/gcc/pic32c/8.3.1/../../../../pic32c/lib/thumb/v7e-m+fp/hard\libc-musl.a(__io_fmt_needed.o)
 .debug_ranges  0x00000000       0x10 c:/program files/microchip/xc32/v4.10/bin/bin/../../lib/gcc/pic32c/8.3.1/../../../../pic32c/lib/thumb/v7e-m+fp/hard\libc-musl.a(__io_fmt_needed.o)
 .debug_line    0x00000000       0xcc c:/program files/microchip/xc32/v4.10/bin/bin/../../lib/gcc/pic32c/8.3.1/../../../../pic32c/lib/thumb/v7e-m+fp/hard\libc-musl.a(__io_fmt_needed.o)
 .debug_str     0x00000000       0x69 c:/program files/microchip/xc32/v4.10/bin/bin/../../lib/gcc/pic32c/8.3.1/../../../../pic32c/lib/thumb/v7e-m+fp/hard\libc-musl.a(__io_fmt_needed.o)
 .comment       0x00000000       0x2c c:/program files/microchip/xc32/v4.10/bin/bin/../../lib/gcc/pic32c/8.3.1/../../../../pic32c/lib/thumb/v7e-m+fp/hard\libc-musl.a(__io_fmt_needed.o)
 .note.GNU-stack
                0x00000000        0x0 c:/program files/microchip/xc32/v4.10/bin/bin/../../lib/gcc/pic32c/8.3.1/../../../../pic32c/lib/thumb/v7e-m+fp/hard\libc-musl.a(__io_fmt_needed.o)
 .debug_frame   0x00000000       0x2c c:/program files/microchip/xc32/v4.10/bin/bin/../../lib/gcc/pic32c/8.3.1/../../../../pic32c/lib/thumb/v7e-m+fp/hard\libc-musl.a(__io_fmt_needed.o)
 .ARM.attributes
                0x00000000       0x36 c:/program files/microchip/xc32/v4.10/bin/bin/../../lib/gcc/pic32c/8.3.1/../../../../pic32c/lib/thumb/v7e-m+fp/hard\libc-musl.a(__io_fmt_needed.o)
 .text          0x00000000        0x0 c:/program files/microchip/xc32/v4.10/bin/bin/../../lib/gcc/pic32c/8.3.1/../../../../pic32c/lib/thumb/v7e-m+fp/hard\libc-musl.a(__printf_core.o)
 .data          0x00000000        0x0 c:/program files/microchip/xc32/v4.10/bin/bin/../../lib/gcc/pic32c/8.3.1/../../../../pic32c/lib/thumb/v7e-m+fp/hard\libc-musl.a(__printf_core.o)
 .bss           0x00000000        0x0 c:/program files/microchip/xc32/v4.10/bin/bin/../../lib/gcc/pic32c/8.3.1/../../../../pic32c/lib/thumb/v7e-m+fp/hard\libc-musl.a(__printf_core.o)
 .xc_stack_usage
                0x00000000       0xaf c:/program files/microchip/xc32/v4.10/bin/bin/../../lib/gcc/pic32c/8.3.1/../../../../pic32c/lib/thumb/v7e-m+fp/hard\libc-musl.a(__printf_core.o)
 .text.__dummy_fmt3
                0x00000000        0x4 c:/program files/microchip/xc32/v4.10/bin/bin/../../lib/gcc/pic32c/8.3.1/../../../../pic32c/lib/thumb/v7e-m+fp/hard\libc-musl.a(__printf_core.o)
 .text.__dummy_fmt4
                0x00000000        0x4 c:/program files/microchip/xc32/v4.10/bin/bin/../../lib/gcc/pic32c/8.3.1/../../../../pic32c/lib/thumb/v7e-m+fp/hard\libc-musl.a(__printf_core.o)
 .text.__dummy_fmts
                0x00000000        0x4 c:/program files/microchip/xc32/v4.10/bin/bin/../../lib/gcc/pic32c/8.3.1/../../../../pic32c/lib/thumb/v7e-m+fp/hard\libc-musl.a(__printf_core.o)
 .xc_stack_usage.hdr
                0x00000000        0xe c:/program files/microchip/xc32/v4.10/bin/bin/../../lib/gcc/pic32c/8.3.1/../../../../pic32c/lib/thumb/v7e-m+fp/hard\libc-musl.a(__printf_core.o)
 .text          0x00000000        0x0 c:/program files/microchip/xc32/v4.10/bin/bin/../../lib/gcc/pic32c/8.3.1/../../../../pic32c/lib/thumb/v7e-m+fp/hard\libc-musl.a(__stdio_exit.o)
 .data          0x00000000        0x0 c:/program files/microchip/xc32/v4.10/bin/bin/../../lib/gcc/pic32c/8.3.1/../../../../pic32c/lib/thumb/v7e-m+fp/hard\libc-musl.a(__stdio_exit.o)
 .bss           0x00000000        0x4 c:/program files/microchip/xc32/v4.10/bin/bin/../../lib/gcc/pic32c/8.3.1/../../../../pic32c/lib/thumb/v7e-m+fp/hard\libc-musl.a(__stdio_exit.o)
 .xc_stack_usage
                0x00000000       0x45 c:/program files/microchip/xc32/v4.10/bin/bin/../../lib/gcc/pic32c/8.3.1/../../../../pic32c/lib/thumb/v7e-m+fp/hard\libc-musl.a(__stdio_exit.o)
 .text.__dummy  0x00000000        0x2 c:/program files/microchip/xc32/v4.10/bin/bin/../../lib/gcc/pic32c/8.3.1/../../../../pic32c/lib/thumb/v7e-m+fp/hard\libc-musl.a(__stdio_exit.o)
 .text.__dummy1
                0x00000000        0x4 c:/program files/microchip/xc32/v4.10/bin/bin/../../lib/gcc/pic32c/8.3.1/../../../../pic32c/lib/thumb/v7e-m+fp/hard\libc-musl.a(__stdio_exit.o)
 .text.__stdio_exit
                0x00000000       0x34 c:/program files/microchip/xc32/v4.10/bin/bin/../../lib/gcc/pic32c/8.3.1/../../../../pic32c/lib/thumb/v7e-m+fp/hard\libc-musl.a(__stdio_exit.o)
 .xc_stack_usage.hdr
                0x00000000        0xe c:/program files/microchip/xc32/v4.10/bin/bin/../../lib/gcc/pic32c/8.3.1/../../../../pic32c/lib/thumb/v7e-m+fp/hard\libc-musl.a(__stdio_exit.o)
 .debug_info    0x00000000      0x593 c:/program files/microchip/xc32/v4.10/bin/bin/../../lib/gcc/pic32c/8.3.1/../../../../pic32c/lib/thumb/v7e-m+fp/hard\libc-musl.a(__stdio_exit.o)
 .debug_abbrev  0x00000000      0x157 c:/program files/microchip/xc32/v4.10/bin/bin/../../lib/gcc/pic32c/8.3.1/../../../../pic32c/lib/thumb/v7e-m+fp/hard\libc-musl.a(__stdio_exit.o)
 .debug_loc     0x00000000       0x45 c:/program files/microchip/xc32/v4.10/bin/bin/../../lib/gcc/pic32c/8.3.1/../../../../pic32c/lib/thumb/v7e-m+fp/hard\libc-musl.a(__stdio_exit.o)
 .debug_aranges
                0x00000000       0x30 c:/program files/microchip/xc32/v4.10/bin/bin/../../lib/gcc/pic32c/8.3.1/../../../../pic32c/lib/thumb/v7e-m+fp/hard\libc-musl.a(__stdio_exit.o)
 .debug_ranges  0x00000000       0x20 c:/program files/microchip/xc32/v4.10/bin/bin/../../lib/gcc/pic32c/8.3.1/../../../../pic32c/lib/thumb/v7e-m+fp/hard\libc-musl.a(__stdio_exit.o)
 .debug_line    0x00000000      0x18c c:/program files/microchip/xc32/v4.10/bin/bin/../../lib/gcc/pic32c/8.3.1/../../../../pic32c/lib/thumb/v7e-m+fp/hard\libc-musl.a(__stdio_exit.o)
 .debug_str     0x00000000        0x0 c:/program files/microchip/xc32/v4.10/bin/bin/../../lib/gcc/pic32c/8.3.1/../../../../pic32c/lib/thumb/v7e-m+fp/hard\libc-musl.a(__stdio_exit.o)
 .comment       0x00000000       0x2c c:/program files/microchip/xc32/v4.10/bin/bin/../../lib/gcc/pic32c/8.3.1/../../../../pic32c/lib/thumb/v7e-m+fp/hard\libc-musl.a(__stdio_exit.o)
 .note.GNU-stack
                0x00000000        0x0 c:/program files/microchip/xc32/v4.10/bin/bin/../../lib/gcc/pic32c/8.3.1/../../../../pic32c/lib/thumb/v7e-m+fp/hard\libc-musl.a(__stdio_exit.o)
 .debug_frame   0x00000000       0x48 c:/program files/microchip/xc32/v4.10/bin/bin/../../lib/gcc/pic32c/8.3.1/../../../../pic32c/lib/thumb/v7e-m+fp/hard\libc-musl.a(__stdio_exit.o)
 .ARM.attributes
                0x00000000       0x36 c:/program files/microchip/xc32/v4.10/bin/bin/../../lib/gcc/pic32c/8.3.1/../../../../pic32c/lib/thumb/v7e-m+fp/hard\libc-musl.a(__stdio_exit.o)
 .text          0x00000000        0x0 c:/program files/microchip/xc32/v4.10/bin/bin/../../lib/gcc/pic32c/8.3.1/../../../../pic32c/lib/thumb/v7e-m+fp/hard\libc-musl.a(__fmt_a.o)
 .data          0x00000000        0x0 c:/program files/microchip/xc32/v4.10/bin/bin/../../lib/gcc/pic32c/8.3.1/../../../../pic32c/lib/thumb/v7e-m+fp/hard\libc-musl.a(__fmt_a.o)
 .bss           0x00000000        0x0 c:/program files/microchip/xc32/v4.10/bin/bin/../../lib/gcc/pic32c/8.3.1/../../../../pic32c/lib/thumb/v7e-m+fp/hard\libc-musl.a(__fmt_a.o)
 .xc_stack_usage
                0x00000000       0x15 c:/program files/microchip/xc32/v4.10/bin/bin/../../lib/gcc/pic32c/8.3.1/../../../../pic32c/lib/thumb/v7e-m+fp/hard\libc-musl.a(__fmt_a.o)
 .xc_stack_usage.hdr
                0x00000000        0xe c:/program files/microchip/xc32/v4.10/bin/bin/../../lib/gcc/pic32c/8.3.1/../../../../pic32c/lib/thumb/v7e-m+fp/hard\libc-musl.a(__fmt_a.o)
 .text          0x00000000        0x0 c:/program files/microchip/xc32/v4.10/bin/bin/../../lib/gcc/pic32c/8.3.1/../../../../pic32c/lib/thumb/v7e-m+fp/hard\libc-musl.a(__fmt_d.o)
 .data          0x00000000        0x0 c:/program files/microchip/xc32/v4.10/bin/bin/../../lib/gcc/pic32c/8.3.1/../../../../pic32c/lib/thumb/v7e-m+fp/hard\libc-musl.a(__fmt_d.o)
 .bss           0x00000000        0x0 c:/program files/microchip/xc32/v4.10/bin/bin/../../lib/gcc/pic32c/8.3.1/../../../../pic32c/lib/thumb/v7e-m+fp/hard\libc-musl.a(__fmt_d.o)
 .xc_stack_usage
                0x00000000       0x15 c:/program files/microchip/xc32/v4.10/bin/bin/../../lib/gcc/pic32c/8.3.1/../../../../pic32c/lib/thumb/v7e-m+fp/hard\libc-musl.a(__fmt_d.o)
 .xc_stack_usage.hdr
                0x00000000        0xe c:/program files/microchip/xc32/v4.10/bin/bin/../../lib/gcc/pic32c/8.3.1/../../../../pic32c/lib/thumb/v7e-m+fp/hard\libc-musl.a(__fmt_d.o)
 .text          0x00000000        0x0 c:/program files/microchip/xc32/v4.10/bin/bin/../../lib/gcc/pic32c/8.3.1/../../../../pic32c/lib/thumb/v7e-m+fp/hard\libc-musl.a(__fmt_fp.o)
 .data          0x00000000        0x0 c:/program files/microchip/xc32/v4.10/bin/bin/../../lib/gcc/pic32c/8.3.1/../../../../pic32c/lib/thumb/v7e-m+fp/hard\libc-musl.a(__fmt_fp.o)
 .bss           0x00000000        0x0 c:/program files/microchip/xc32/v4.10/bin/bin/../../lib/gcc/pic32c/8.3.1/../../../../pic32c/lib/thumb/v7e-m+fp/hard\libc-musl.a(__fmt_fp.o)
 .xc_stack_usage
                0x00000000       0x16 c:/program files/microchip/xc32/v4.10/bin/bin/../../lib/gcc/pic32c/8.3.1/../../../../pic32c/lib/thumb/v7e-m+fp/hard\libc-musl.a(__fmt_fp.o)
 .xc_stack_usage.hdr
                0x00000000        0xe c:/program files/microchip/xc32/v4.10/bin/bin/../../lib/gcc/pic32c/8.3.1/../../../../pic32c/lib/thumb/v7e-m+fp/hard\libc-musl.a(__fmt_fp.o)
 .text          0x00000000        0x0 c:/program files/microchip/xc32/v4.10/bin/bin/../../lib/gcc/pic32c/8.3.1/../../../../pic32c/lib/thumb/v7e-m+fp/hard\libc-musl.a(__fmt_o.o)
 .data          0x00000000        0x0 c:/program files/microchip/xc32/v4.10/bin/bin/../../lib/gcc/pic32c/8.3.1/../../../../pic32c/lib/thumb/v7e-m+fp/hard\libc-musl.a(__fmt_o.o)
 .bss           0x00000000        0x0 c:/program files/microchip/xc32/v4.10/bin/bin/../../lib/gcc/pic32c/8.3.1/../../../../pic32c/lib/thumb/v7e-m+fp/hard\libc-musl.a(__fmt_o.o)
 .xc_stack_usage
                0x00000000       0x15 c:/program files/microchip/xc32/v4.10/bin/bin/../../lib/gcc/pic32c/8.3.1/../../../../pic32c/lib/thumb/v7e-m+fp/hard\libc-musl.a(__fmt_o.o)
 .xc_stack_usage.hdr
                0x00000000        0xe c:/program files/microchip/xc32/v4.10/bin/bin/../../lib/gcc/pic32c/8.3.1/../../../../pic32c/lib/thumb/v7e-m+fp/hard\libc-musl.a(__fmt_o.o)
 .text          0x00000000        0x0 c:/program files/microchip/xc32/v4.10/bin/bin/../../lib/gcc/pic32c/8.3.1/../../../../pic32c/lib/thumb/v7e-m+fp/hard\libc-musl.a(__fmt_s.o)
 .data          0x00000000        0x0 c:/program files/microchip/xc32/v4.10/bin/bin/../../lib/gcc/pic32c/8.3.1/../../../../pic32c/lib/thumb/v7e-m+fp/hard\libc-musl.a(__fmt_s.o)
 .bss           0x00000000        0x0 c:/program files/microchip/xc32/v4.10/bin/bin/../../lib/gcc/pic32c/8.3.1/../../../../pic32c/lib/thumb/v7e-m+fp/hard\libc-musl.a(__fmt_s.o)
 .xc_stack_usage
                0x00000000       0x15 c:/program files/microchip/xc32/v4.10/bin/bin/../../lib/gcc/pic32c/8.3.1/../../../../pic32c/lib/thumb/v7e-m+fp/hard\libc-musl.a(__fmt_s.o)
 .xc_stack_usage.hdr
                0x00000000        0xe c:/program files/microchip/xc32/v4.10/bin/bin/../../lib/gcc/pic32c/8.3.1/../../../../pic32c/lib/thumb/v7e-m+fp/hard\libc-musl.a(__fmt_s.o)
 .text          0x00000000        0x0 c:/program files/microchip/xc32/v4.10/bin/bin/../../lib/gcc/pic32c/8.3.1/../../../../pic32c/lib/thumb/v7e-m+fp/hard\libc-musl.a(__fmt_u.o)
 .data          0x00000000        0x0 c:/program files/microchip/xc32/v4.10/bin/bin/../../lib/gcc/pic32c/8.3.1/../../../../pic32c/lib/thumb/v7e-m+fp/hard\libc-musl.a(__fmt_u.o)
 .bss           0x00000000        0x0 c:/program files/microchip/xc32/v4.10/bin/bin/../../lib/gcc/pic32c/8.3.1/../../../../pic32c/lib/thumb/v7e-m+fp/hard\libc-musl.a(__fmt_u.o)
 .xc_stack_usage
                0x00000000       0x2a c:/program files/microchip/xc32/v4.10/bin/bin/../../lib/gcc/pic32c/8.3.1/../../../../pic32c/lib/thumb/v7e-m+fp/hard\libc-musl.a(__fmt_u.o)
 .xc_stack_usage.hdr
                0x00000000        0xe c:/program files/microchip/xc32/v4.10/bin/bin/../../lib/gcc/pic32c/8.3.1/../../../../pic32c/lib/thumb/v7e-m+fp/hard\libc-musl.a(__fmt_u.o)
 .text          0x00000000        0x0 c:/program files/microchip/xc32/v4.10/bin/bin/../../lib/gcc/pic32c/8.3.1/../../../../pic32c/lib/thumb/v7e-m+fp/hard\libc-musl.a(__fmt_x.o)
 .data          0x00000000        0x0 c:/program files/microchip/xc32/v4.10/bin/bin/../../lib/gcc/pic32c/8.3.1/../../../../pic32c/lib/thumb/v7e-m+fp/hard\libc-musl.a(__fmt_x.o)
 .bss           0x00000000        0x0 c:/program files/microchip/xc32/v4.10/bin/bin/../../lib/gcc/pic32c/8.3.1/../../../../pic32c/lib/thumb/v7e-m+fp/hard\libc-musl.a(__fmt_x.o)
 .xc_stack_usage
                0x00000000       0x15 c:/program files/microchip/xc32/v4.10/bin/bin/../../lib/gcc/pic32c/8.3.1/../../../../pic32c/lib/thumb/v7e-m+fp/hard\libc-musl.a(__fmt_x.o)
 .xc_stack_usage.hdr
                0x00000000        0xe c:/program files/microchip/xc32/v4.10/bin/bin/../../lib/gcc/pic32c/8.3.1/../../../../pic32c/lib/thumb/v7e-m+fp/hard\libc-musl.a(__fmt_x.o)
 .text          0x00000000        0x0 c:/program files/microchip/xc32/v4.10/bin/bin/../../lib/gcc/pic32c/8.3.1/../../../../pic32c/lib/thumb/v7e-m+fp/hard\libc-musl.a(__pop_float.o)
 .data          0x00000000        0x0 c:/program files/microchip/xc32/v4.10/bin/bin/../../lib/gcc/pic32c/8.3.1/../../../../pic32c/lib/thumb/v7e-m+fp/hard\libc-musl.a(__pop_float.o)
 .bss           0x00000000        0x0 c:/program files/microchip/xc32/v4.10/bin/bin/../../lib/gcc/pic32c/8.3.1/../../../../pic32c/lib/thumb/v7e-m+fp/hard\libc-musl.a(__pop_float.o)
 .xc_stack_usage
                0x00000000       0x19 c:/program files/microchip/xc32/v4.10/bin/bin/../../lib/gcc/pic32c/8.3.1/../../../../pic32c/lib/thumb/v7e-m+fp/hard\libc-musl.a(__pop_float.o)
 .xc_stack_usage.hdr
                0x00000000        0xe c:/program files/microchip/xc32/v4.10/bin/bin/../../lib/gcc/pic32c/8.3.1/../../../../pic32c/lib/thumb/v7e-m+fp/hard\libc-musl.a(__pop_float.o)
 .text          0x00000000        0x0 c:/program files/microchip/xc32/v4.10/bin/bin/../../lib/gcc/pic32c/8.3.1/../../../../pic32c/lib/thumb/v7e-m+fp/hard\libc-musl.a(__pop_int.o)
 .data          0x00000000        0x0 c:/program files/microchip/xc32/v4.10/bin/bin/../../lib/gcc/pic32c/8.3.1/../../../../pic32c/lib/thumb/v7e-m+fp/hard\libc-musl.a(__pop_int.o)
 .bss           0x00000000        0x0 c:/program files/microchip/xc32/v4.10/bin/bin/../../lib/gcc/pic32c/8.3.1/../../../../pic32c/lib/thumb/v7e-m+fp/hard\libc-musl.a(__pop_int.o)
 .xc_stack_usage
                0x00000000       0x17 c:/program files/microchip/xc32/v4.10/bin/bin/../../lib/gcc/pic32c/8.3.1/../../../../pic32c/lib/thumb/v7e-m+fp/hard\libc-musl.a(__pop_int.o)
 .xc_stack_usage.hdr
                0x00000000        0xe c:/program files/microchip/xc32/v4.10/bin/bin/../../lib/gcc/pic32c/8.3.1/../../../../pic32c/lib/thumb/v7e-m+fp/hard\libc-musl.a(__pop_int.o)
 .text          0x00000000        0x0 c:/program files/microchip/xc32/v4.10/bin/bin/../../lib/gcc/pic32c/8.3.1/../../../../pic32c/lib/thumb/v7e-m+fp/hard\libc-musl.a(__pop_ptr.o)
 .data          0x00000000        0x0 c:/program files/microchip/xc32/v4.10/bin/bin/../../lib/gcc/pic32c/8.3.1/../../../../pic32c/lib/thumb/v7e-m+fp/hard\libc-musl.a(__pop_ptr.o)
 .bss           0x00000000        0x0 c:/program files/microchip/xc32/v4.10/bin/bin/../../lib/gcc/pic32c/8.3.1/../../../../pic32c/lib/thumb/v7e-m+fp/hard\libc-musl.a(__pop_ptr.o)
 .xc_stack_usage
                0x00000000       0x17 c:/program files/microchip/xc32/v4.10/bin/bin/../../lib/gcc/pic32c/8.3.1/../../../../pic32c/lib/thumb/v7e-m+fp/hard\libc-musl.a(__pop_ptr.o)
 .xc_stack_usage.hdr
                0x00000000        0xe c:/program files/microchip/xc32/v4.10/bin/bin/../../lib/gcc/pic32c/8.3.1/../../../../pic32c/lib/thumb/v7e-m+fp/hard\libc-musl.a(__pop_ptr.o)
 .text          0x00000000        0x0 c:/program files/microchip/xc32/v4.10/bin/bin/../../lib/gcc/pic32c/8.3.1/../../../../pic32c/lib/thumb/v7e-m+fp/hard\libm-emfloat.a(lib_a-_FLOOR.o)
 .data          0x00000000        0x0 c:/program files/microchip/xc32/v4.10/bin/bin/../../lib/gcc/pic32c/8.3.1/../../../../pic32c/lib/thumb/v7e-m+fp/hard\libm-emfloat.a(lib_a-_FLOOR.o)
 .bss           0x00000000        0x0 c:/program files/microchip/xc32/v4.10/bin/bin/../../lib/gcc/pic32c/8.3.1/../../../../pic32c/lib/thumb/v7e-m+fp/hard\libm-emfloat.a(lib_a-_FLOOR.o)
 .xc_stack_usage
                0x00000000      0x298 c:/program files/microchip/xc32/v4.10/bin/bin/../../lib/gcc/pic32c/8.3.1/../../../../pic32c/lib/thumb/v7e-m+fp/hard\libm-emfloat.a(lib_a-_FLOOR.o)
 .text.__SEGGER_RTL_float64_cdiv
                0x00000000      0x334 c:/program files/microchip/xc32/v4.10/bin/bin/../../lib/gcc/pic32c/8.3.1/../../../../pic32c/lib/thumb/v7e-m+fp/hard\libm-emfloat.a(lib_a-_FLOOR.o)
 .text.__SEGGER_RTL_float64_cmplx
                0x00000000       0x28 c:/program files/microchip/xc32/v4.10/bin/bin/../../lib/gcc/pic32c/8.3.1/../../../../pic32c/lib/thumb/v7e-m+fp/hard\libm-emfloat.a(lib_a-_FLOOR.o)
 .text.__mulsc3
                0x00000000      0x2b0 c:/program files/microchip/xc32/v4.10/bin/bin/../../lib/gcc/pic32c/8.3.1/../../../../pic32c/lib/thumb/v7e-m+fp/hard\libm-emfloat.a(lib_a-_FLOOR.o)
 .text.__divdc3
                0x00000000       0x2c c:/program files/microchip/xc32/v4.10/bin/bin/../../lib/gcc/pic32c/8.3.1/../../../../pic32c/lib/thumb/v7e-m+fp/hard\libm-emfloat.a(lib_a-_FLOOR.o)
 .text.__SEGGER_RTL_float32_isnan
                0x00000000       0x10 c:/program files/microchip/xc32/v4.10/bin/bin/../../lib/gcc/pic32c/8.3.1/../../../../pic32c/lib/thumb/v7e-m+fp/hard\libm-emfloat.a(lib_a-_FLOOR.o)
 .text.__SEGGER_RTL_float32_isinf
                0x00000000       0x14 c:/program files/microchip/xc32/v4.10/bin/bin/../../lib/gcc/pic32c/8.3.1/../../../../pic32c/lib/thumb/v7e-m+fp/hard\libm-emfloat.a(lib_a-_FLOOR.o)
 .text.__SEGGER_RTL_float32_isfinite
                0x00000000       0x14 c:/program files/microchip/xc32/v4.10/bin/bin/../../lib/gcc/pic32c/8.3.1/../../../../pic32c/lib/thumb/v7e-m+fp/hard\libm-emfloat.a(lib_a-_FLOOR.o)
 .text.__SEGGER_RTL_float32_isnormal
                0x00000000       0x18 c:/program files/microchip/xc32/v4.10/bin/bin/../../lib/gcc/pic32c/8.3.1/../../../../pic32c/lib/thumb/v7e-m+fp/hard\libm-emfloat.a(lib_a-_FLOOR.o)
 .text.__SEGGER_RTL_float32_signbit
                0x00000000        0x8 c:/program files/microchip/xc32/v4.10/bin/bin/../../lib/gcc/pic32c/8.3.1/../../../../pic32c/lib/thumb/v7e-m+fp/hard\libm-emfloat.a(lib_a-_FLOOR.o)
 .text.__SEGGER_RTL_float32_classify
                0x00000000       0x3c c:/program files/microchip/xc32/v4.10/bin/bin/../../lib/gcc/pic32c/8.3.1/../../../../pic32c/lib/thumb/v7e-m+fp/hard\libm-emfloat.a(lib_a-_FLOOR.o)
 .text.__SEGGER_RTL_float64_isnan
                0x00000000       0x28 c:/program files/microchip/xc32/v4.10/bin/bin/../../lib/gcc/pic32c/8.3.1/../../../../pic32c/lib/thumb/v7e-m+fp/hard\libm-emfloat.a(lib_a-_FLOOR.o)
 .text.__SEGGER_RTL_float64_isinf
                0x00000000       0x20 c:/program files/microchip/xc32/v4.10/bin/bin/../../lib/gcc/pic32c/8.3.1/../../../../pic32c/lib/thumb/v7e-m+fp/hard\libm-emfloat.a(lib_a-_FLOOR.o)
 .text.__SEGGER_RTL_float64_isfinite
                0x00000000       0x14 c:/program files/microchip/xc32/v4.10/bin/bin/../../lib/gcc/pic32c/8.3.1/../../../../pic32c/lib/thumb/v7e-m+fp/hard\libm-emfloat.a(lib_a-_FLOOR.o)
 .text.__SEGGER_RTL_float64_isnormal
                0x00000000       0x34 c:/program files/microchip/xc32/v4.10/bin/bin/../../lib/gcc/pic32c/8.3.1/../../../../pic32c/lib/thumb/v7e-m+fp/hard\libm-emfloat.a(lib_a-_FLOOR.o)
 .text.__SEGGER_RTL_float64_signbit
                0x00000000        0x8 c:/program files/microchip/xc32/v4.10/bin/bin/../../lib/gcc/pic32c/8.3.1/../../../../pic32c/lib/thumb/v7e-m+fp/hard\libm-emfloat.a(lib_a-_FLOOR.o)
 .text.__SEGGER_RTL_float64_classify
                0x00000000       0x70 c:/program files/microchip/xc32/v4.10/bin/bin/../../lib/gcc/pic32c/8.3.1/../../../../pic32c/lib/thumb/v7e-m+fp/hard\libm-emfloat.a(lib_a-_FLOOR.o)
 .text.floorl   0x00000000        0x8 c:/program files/microchip/xc32/v4.10/bin/bin/../../lib/gcc/pic32c/8.3.1/../../../../pic32c/lib/thumb/v7e-m+fp/hard\libm-emfloat.a(lib_a-_FLOOR.o)
 .xc_stack_usage.hdr
                0x00000000        0xe c:/program files/microchip/xc32/v4.10/bin/bin/../../lib/gcc/pic32c/8.3.1/../../../../pic32c/lib/thumb/v7e-m+fp/hard\libm-emfloat.a(lib_a-_FLOOR.o)
 .text          0x00000000        0x0 c:/program files/microchip/xc32/v4.10/bin/bin/../../lib/gcc/pic32c/8.3.1/../../../../pic32c/lib/thumb/v7e-m+fp/hard\libm-emfloat.a(lib_a-_FMA.o)
 .data          0x00000000        0x0 c:/program files/microchip/xc32/v4.10/bin/bin/../../lib/gcc/pic32c/8.3.1/../../../../pic32c/lib/thumb/v7e-m+fp/hard\libm-emfloat.a(lib_a-_FMA.o)
 .bss           0x00000000        0x0 c:/program files/microchip/xc32/v4.10/bin/bin/../../lib/gcc/pic32c/8.3.1/../../../../pic32c/lib/thumb/v7e-m+fp/hard\libm-emfloat.a(lib_a-_FMA.o)
 .xc_stack_usage
                0x00000000      0x294 c:/program files/microchip/xc32/v4.10/bin/bin/../../lib/gcc/pic32c/8.3.1/../../../../pic32c/lib/thumb/v7e-m+fp/hard\libm-emfloat.a(lib_a-_FMA.o)
 .text.__SEGGER_RTL_float64_cdiv
                0x00000000      0x334 c:/program files/microchip/xc32/v4.10/bin/bin/../../lib/gcc/pic32c/8.3.1/../../../../pic32c/lib/thumb/v7e-m+fp/hard\libm-emfloat.a(lib_a-_FMA.o)
 .text.__SEGGER_RTL_float64_cmplx
                0x00000000       0x28 c:/program files/microchip/xc32/v4.10/bin/bin/../../lib/gcc/pic32c/8.3.1/../../../../pic32c/lib/thumb/v7e-m+fp/hard\libm-emfloat.a(lib_a-_FMA.o)
 .text.__mulsc3
                0x00000000      0x2b0 c:/program files/microchip/xc32/v4.10/bin/bin/../../lib/gcc/pic32c/8.3.1/../../../../pic32c/lib/thumb/v7e-m+fp/hard\libm-emfloat.a(lib_a-_FMA.o)
 .text.__divdc3
                0x00000000       0x2c c:/program files/microchip/xc32/v4.10/bin/bin/../../lib/gcc/pic32c/8.3.1/../../../../pic32c/lib/thumb/v7e-m+fp/hard\libm-emfloat.a(lib_a-_FMA.o)
 .text.__SEGGER_RTL_float32_isnan
                0x00000000       0x10 c:/program files/microchip/xc32/v4.10/bin/bin/../../lib/gcc/pic32c/8.3.1/../../../../pic32c/lib/thumb/v7e-m+fp/hard\libm-emfloat.a(lib_a-_FMA.o)
 .text.__SEGGER_RTL_float32_isinf
                0x00000000       0x14 c:/program files/microchip/xc32/v4.10/bin/bin/../../lib/gcc/pic32c/8.3.1/../../../../pic32c/lib/thumb/v7e-m+fp/hard\libm-emfloat.a(lib_a-_FMA.o)
 .text.__SEGGER_RTL_float32_isfinite
                0x00000000       0x14 c:/program files/microchip/xc32/v4.10/bin/bin/../../lib/gcc/pic32c/8.3.1/../../../../pic32c/lib/thumb/v7e-m+fp/hard\libm-emfloat.a(lib_a-_FMA.o)
 .text.__SEGGER_RTL_float32_isnormal
                0x00000000       0x18 c:/program files/microchip/xc32/v4.10/bin/bin/../../lib/gcc/pic32c/8.3.1/../../../../pic32c/lib/thumb/v7e-m+fp/hard\libm-emfloat.a(lib_a-_FMA.o)
 .text.__SEGGER_RTL_float32_signbit
                0x00000000        0x8 c:/program files/microchip/xc32/v4.10/bin/bin/../../lib/gcc/pic32c/8.3.1/../../../../pic32c/lib/thumb/v7e-m+fp/hard\libm-emfloat.a(lib_a-_FMA.o)
 .text.__SEGGER_RTL_float32_classify
                0x00000000       0x3c c:/program files/microchip/xc32/v4.10/bin/bin/../../lib/gcc/pic32c/8.3.1/../../../../pic32c/lib/thumb/v7e-m+fp/hard\libm-emfloat.a(lib_a-_FMA.o)
 .text.__SEGGER_RTL_float64_isnan
                0x00000000       0x28 c:/program files/microchip/xc32/v4.10/bin/bin/../../lib/gcc/pic32c/8.3.1/../../../../pic32c/lib/thumb/v7e-m+fp/hard\libm-emfloat.a(lib_a-_FMA.o)
 .text.__SEGGER_RTL_float64_isinf
                0x00000000       0x20 c:/program files/microchip/xc32/v4.10/bin/bin/../../lib/gcc/pic32c/8.3.1/../../../../pic32c/lib/thumb/v7e-m+fp/hard\libm-emfloat.a(lib_a-_FMA.o)
 .text.__SEGGER_RTL_float64_isfinite
                0x00000000       0x14 c:/program files/microchip/xc32/v4.10/bin/bin/../../lib/gcc/pic32c/8.3.1/../../../../pic32c/lib/thumb/v7e-m+fp/hard\libm-emfloat.a(lib_a-_FMA.o)
 .text.__SEGGER_RTL_float64_isnormal
                0x00000000       0x34 c:/program files/microchip/xc32/v4.10/bin/bin/../../lib/gcc/pic32c/8.3.1/../../../../pic32c/lib/thumb/v7e-m+fp/hard\libm-emfloat.a(lib_a-_FMA.o)
 .text.__SEGGER_RTL_float64_signbit
                0x00000000        0x8 c:/program files/microchip/xc32/v4.10/bin/bin/../../lib/gcc/pic32c/8.3.1/../../../../pic32c/lib/thumb/v7e-m+fp/hard\libm-emfloat.a(lib_a-_FMA.o)
 .text.__SEGGER_RTL_float64_classify
                0x00000000       0x70 c:/program files/microchip/xc32/v4.10/bin/bin/../../lib/gcc/pic32c/8.3.1/../../../../pic32c/lib/thumb/v7e-m+fp/hard\libm-emfloat.a(lib_a-_FMA.o)
 .text.fmal     0x00000000        0x8 c:/program files/microchip/xc32/v4.10/bin/bin/../../lib/gcc/pic32c/8.3.1/../../../../pic32c/lib/thumb/v7e-m+fp/hard\libm-emfloat.a(lib_a-_FMA.o)
 .xc_stack_usage.hdr
                0x00000000        0xe c:/program files/microchip/xc32/v4.10/bin/bin/../../lib/gcc/pic32c/8.3.1/../../../../pic32c/lib/thumb/v7e-m+fp/hard\libm-emfloat.a(lib_a-_FMA.o)
 .text          0x00000000        0x0 c:/program files/microchip/xc32/v4.10/bin/bin/../../lib/gcc/pic32c/8.3.1/../../../../pic32c/lib/thumb/v7e-m+fp/hard\libm-emfloat.a(lib_a-_ILOGB.o)
 .data          0x00000000        0x0 c:/program files/microchip/xc32/v4.10/bin/bin/../../lib/gcc/pic32c/8.3.1/../../../../pic32c/lib/thumb/v7e-m+fp/hard\libm-emfloat.a(lib_a-_ILOGB.o)
 .bss           0x00000000        0x0 c:/program files/microchip/xc32/v4.10/bin/bin/../../lib/gcc/pic32c/8.3.1/../../../../pic32c/lib/thumb/v7e-m+fp/hard\libm-emfloat.a(lib_a-_ILOGB.o)
 .xc_stack_usage
                0x00000000      0x298 c:/program files/microchip/xc32/v4.10/bin/bin/../../lib/gcc/pic32c/8.3.1/../../../../pic32c/lib/thumb/v7e-m+fp/hard\libm-emfloat.a(lib_a-_ILOGB.o)
 .text.__SEGGER_RTL_float64_cmplx
                0x00000000       0x28 c:/program files/microchip/xc32/v4.10/bin/bin/../../lib/gcc/pic32c/8.3.1/../../../../pic32c/lib/thumb/v7e-m+fp/hard\libm-emfloat.a(lib_a-_ILOGB.o)
 .text.__mulsc3
                0x00000000      0x2b0 c:/program files/microchip/xc32/v4.10/bin/bin/../../lib/gcc/pic32c/8.3.1/../../../../pic32c/lib/thumb/v7e-m+fp/hard\libm-emfloat.a(lib_a-_ILOGB.o)
 .text.__SEGGER_RTL_float32_isnan
                0x00000000       0x10 c:/program files/microchip/xc32/v4.10/bin/bin/../../lib/gcc/pic32c/8.3.1/../../../../pic32c/lib/thumb/v7e-m+fp/hard\libm-emfloat.a(lib_a-_ILOGB.o)
 .text.__SEGGER_RTL_float32_isinf
                0x00000000       0x14 c:/program files/microchip/xc32/v4.10/bin/bin/../../lib/gcc/pic32c/8.3.1/../../../../pic32c/lib/thumb/v7e-m+fp/hard\libm-emfloat.a(lib_a-_ILOGB.o)
 .text.__SEGGER_RTL_float32_isfinite
                0x00000000       0x14 c:/program files/microchip/xc32/v4.10/bin/bin/../../lib/gcc/pic32c/8.3.1/../../../../pic32c/lib/thumb/v7e-m+fp/hard\libm-emfloat.a(lib_a-_ILOGB.o)
 .text.__SEGGER_RTL_float32_isnormal
                0x00000000       0x18 c:/program files/microchip/xc32/v4.10/bin/bin/../../lib/gcc/pic32c/8.3.1/../../../../pic32c/lib/thumb/v7e-m+fp/hard\libm-emfloat.a(lib_a-_ILOGB.o)
 .text.__SEGGER_RTL_float32_signbit
                0x00000000        0x8 c:/program files/microchip/xc32/v4.10/bin/bin/../../lib/gcc/pic32c/8.3.1/../../../../pic32c/lib/thumb/v7e-m+fp/hard\libm-emfloat.a(lib_a-_ILOGB.o)
 .text.__SEGGER_RTL_float32_classify
                0x00000000       0x3c c:/program files/microchip/xc32/v4.10/bin/bin/../../lib/gcc/pic32c/8.3.1/../../../../pic32c/lib/thumb/v7e-m+fp/hard\libm-emfloat.a(lib_a-_ILOGB.o)
 .text.__SEGGER_RTL_float64_isnan
                0x00000000       0x28 c:/program files/microchip/xc32/v4.10/bin/bin/../../lib/gcc/pic32c/8.3.1/../../../../pic32c/lib/thumb/v7e-m+fp/hard\libm-emfloat.a(lib_a-_ILOGB.o)
 .text.__SEGGER_RTL_float64_isinf
                0x00000000       0x20 c:/program files/microchip/xc32/v4.10/bin/bin/../../lib/gcc/pic32c/8.3.1/../../../../pic32c/lib/thumb/v7e-m+fp/hard\libm-emfloat.a(lib_a-_ILOGB.o)
 .text.__SEGGER_RTL_float64_isfinite
                0x00000000       0x14 c:/program files/microchip/xc32/v4.10/bin/bin/../../lib/gcc/pic32c/8.3.1/../../../../pic32c/lib/thumb/v7e-m+fp/hard\libm-emfloat.a(lib_a-_ILOGB.o)
 .text.__SEGGER_RTL_float64_isnormal
                0x00000000       0x34 c:/program files/microchip/xc32/v4.10/bin/bin/../../lib/gcc/pic32c/8.3.1/../../../../pic32c/lib/thumb/v7e-m+fp/hard\libm-emfloat.a(lib_a-_ILOGB.o)
 .text.__SEGGER_RTL_float64_signbit
                0x00000000        0x8 c:/program files/microchip/xc32/v4.10/bin/bin/../../lib/gcc/pic32c/8.3.1/../../../../pic32c/lib/thumb/v7e-m+fp/hard\libm-emfloat.a(lib_a-_ILOGB.o)
 .text.__SEGGER_RTL_float64_classify
                0x00000000       0x70 c:/program files/microchip/xc32/v4.10/bin/bin/../../lib/gcc/pic32c/8.3.1/../../../../pic32c/lib/thumb/v7e-m+fp/hard\libm-emfloat.a(lib_a-_ILOGB.o)
 .text.ilogb    0x00000000       0x58 c:/program files/microchip/xc32/v4.10/bin/bin/../../lib/gcc/pic32c/8.3.1/../../../../pic32c/lib/thumb/v7e-m+fp/hard\libm-emfloat.a(lib_a-_ILOGB.o)
 .text.__SEGGER_RTL_float64_cdiv
                0x00000000      0x334 c:/program files/microchip/xc32/v4.10/bin/bin/../../lib/gcc/pic32c/8.3.1/../../../../pic32c/lib/thumb/v7e-m+fp/hard\libm-emfloat.a(lib_a-_ILOGB.o)
 .text.__divdc3
                0x00000000       0x2c c:/program files/microchip/xc32/v4.10/bin/bin/../../lib/gcc/pic32c/8.3.1/../../../../pic32c/lib/thumb/v7e-m+fp/hard\libm-emfloat.a(lib_a-_ILOGB.o)
 .text.ilogbl   0x00000000        0x8 c:/program files/microchip/xc32/v4.10/bin/bin/../../lib/gcc/pic32c/8.3.1/../../../../pic32c/lib/thumb/v7e-m+fp/hard\libm-emfloat.a(lib_a-_ILOGB.o)
 .xc_stack_usage.hdr
                0x00000000        0xe c:/program files/microchip/xc32/v4.10/bin/bin/../../lib/gcc/pic32c/8.3.1/../../../../pic32c/lib/thumb/v7e-m+fp/hard\libm-emfloat.a(lib_a-_ILOGB.o)
 .comment       0x00000000       0x2c c:/program files/microchip/xc32/v4.10/bin/bin/../../lib/gcc/pic32c/8.3.1/../../../../pic32c/lib/thumb/v7e-m+fp/hard\libm-emfloat.a(lib_a-_ILOGB.o)
 .ARM.attributes
                0x00000000       0x34 c:/program files/microchip/xc32/v4.10/bin/bin/../../lib/gcc/pic32c/8.3.1/../../../../pic32c/lib/thumb/v7e-m+fp/hard\libm-emfloat.a(lib_a-_ILOGB.o)
 .text          0x00000000        0x0 c:/program files/microchip/xc32/v4.10/bin/bin/../../lib/gcc/pic32c/8.3.1/../../../../pic32c/lib/thumb/v7e-m+fp/hard\libm-emfloat.a(lib_a-_LDEXP.o)
 .data          0x00000000        0x0 c:/program files/microchip/xc32/v4.10/bin/bin/../../lib/gcc/pic32c/8.3.1/../../../../pic32c/lib/thumb/v7e-m+fp/hard\libm-emfloat.a(lib_a-_LDEXP.o)
 .bss           0x00000000        0x0 c:/program files/microchip/xc32/v4.10/bin/bin/../../lib/gcc/pic32c/8.3.1/../../../../pic32c/lib/thumb/v7e-m+fp/hard\libm-emfloat.a(lib_a-_LDEXP.o)
 .xc_stack_usage
                0x00000000      0x298 c:/program files/microchip/xc32/v4.10/bin/bin/../../lib/gcc/pic32c/8.3.1/../../../../pic32c/lib/thumb/v7e-m+fp/hard\libm-emfloat.a(lib_a-_LDEXP.o)
 .text.__SEGGER_RTL_float64_cmplx
                0x00000000       0x28 c:/program files/microchip/xc32/v4.10/bin/bin/../../lib/gcc/pic32c/8.3.1/../../../../pic32c/lib/thumb/v7e-m+fp/hard\libm-emfloat.a(lib_a-_LDEXP.o)
 .text.__mulsc3
                0x00000000      0x2b0 c:/program files/microchip/xc32/v4.10/bin/bin/../../lib/gcc/pic32c/8.3.1/../../../../pic32c/lib/thumb/v7e-m+fp/hard\libm-emfloat.a(lib_a-_LDEXP.o)
 .text.__SEGGER_RTL_float32_isnan
                0x00000000       0x10 c:/program files/microchip/xc32/v4.10/bin/bin/../../lib/gcc/pic32c/8.3.1/../../../../pic32c/lib/thumb/v7e-m+fp/hard\libm-emfloat.a(lib_a-_LDEXP.o)
 .text.__SEGGER_RTL_float32_isinf
                0x00000000       0x14 c:/program files/microchip/xc32/v4.10/bin/bin/../../lib/gcc/pic32c/8.3.1/../../../../pic32c/lib/thumb/v7e-m+fp/hard\libm-emfloat.a(lib_a-_LDEXP.o)
 .text.__SEGGER_RTL_float32_isfinite
                0x00000000       0x14 c:/program files/microchip/xc32/v4.10/bin/bin/../../lib/gcc/pic32c/8.3.1/../../../../pic32c/lib/thumb/v7e-m+fp/hard\libm-emfloat.a(lib_a-_LDEXP.o)
 .text.__SEGGER_RTL_float32_isnormal
                0x00000000       0x18 c:/program files/microchip/xc32/v4.10/bin/bin/../../lib/gcc/pic32c/8.3.1/../../../../pic32c/lib/thumb/v7e-m+fp/hard\libm-emfloat.a(lib_a-_LDEXP.o)
 .text.__SEGGER_RTL_float32_signbit
                0x00000000        0x8 c:/program files/microchip/xc32/v4.10/bin/bin/../../lib/gcc/pic32c/8.3.1/../../../../pic32c/lib/thumb/v7e-m+fp/hard\libm-emfloat.a(lib_a-_LDEXP.o)
 .text.__SEGGER_RTL_float32_classify
                0x00000000       0x3c c:/program files/microchip/xc32/v4.10/bin/bin/../../lib/gcc/pic32c/8.3.1/../../../../pic32c/lib/thumb/v7e-m+fp/hard\libm-emfloat.a(lib_a-_LDEXP.o)
 .text.__SEGGER_RTL_float64_isnan
                0x00000000       0x28 c:/program files/microchip/xc32/v4.10/bin/bin/../../lib/gcc/pic32c/8.3.1/../../../../pic32c/lib/thumb/v7e-m+fp/hard\libm-emfloat.a(lib_a-_LDEXP.o)
 .text.__SEGGER_RTL_float64_isinf
                0x00000000       0x20 c:/program files/microchip/xc32/v4.10/bin/bin/../../lib/gcc/pic32c/8.3.1/../../../../pic32c/lib/thumb/v7e-m+fp/hard\libm-emfloat.a(lib_a-_LDEXP.o)
 .text.__SEGGER_RTL_float64_isfinite
                0x00000000       0x14 c:/program files/microchip/xc32/v4.10/bin/bin/../../lib/gcc/pic32c/8.3.1/../../../../pic32c/lib/thumb/v7e-m+fp/hard\libm-emfloat.a(lib_a-_LDEXP.o)
 .text.__SEGGER_RTL_float64_isnormal
                0x00000000       0x34 c:/program files/microchip/xc32/v4.10/bin/bin/../../lib/gcc/pic32c/8.3.1/../../../../pic32c/lib/thumb/v7e-m+fp/hard\libm-emfloat.a(lib_a-_LDEXP.o)
 .text.__SEGGER_RTL_float64_signbit
                0x00000000        0x8 c:/program files/microchip/xc32/v4.10/bin/bin/../../lib/gcc/pic32c/8.3.1/../../../../pic32c/lib/thumb/v7e-m+fp/hard\libm-emfloat.a(lib_a-_LDEXP.o)
 .text.__SEGGER_RTL_float64_classify
                0x00000000       0x70 c:/program files/microchip/xc32/v4.10/bin/bin/../../lib/gcc/pic32c/8.3.1/../../../../pic32c/lib/thumb/v7e-m+fp/hard\libm-emfloat.a(lib_a-_LDEXP.o)
 .text.ldexp    0x00000000       0x54 c:/program files/microchip/xc32/v4.10/bin/bin/../../lib/gcc/pic32c/8.3.1/../../../../pic32c/lib/thumb/v7e-m+fp/hard\libm-emfloat.a(lib_a-_LDEXP.o)
 .text.__SEGGER_RTL_float64_cdiv
                0x00000000      0x334 c:/program files/microchip/xc32/v4.10/bin/bin/../../lib/gcc/pic32c/8.3.1/../../../../pic32c/lib/thumb/v7e-m+fp/hard\libm-emfloat.a(lib_a-_LDEXP.o)
 .text.__divdc3
                0x00000000       0x2c c:/program files/microchip/xc32/v4.10/bin/bin/../../lib/gcc/pic32c/8.3.1/../../../../pic32c/lib/thumb/v7e-m+fp/hard\libm-emfloat.a(lib_a-_LDEXP.o)
 .text.ldexpl   0x00000000        0x8 c:/program files/microchip/xc32/v4.10/bin/bin/../../lib/gcc/pic32c/8.3.1/../../../../pic32c/lib/thumb/v7e-m+fp/hard\libm-emfloat.a(lib_a-_LDEXP.o)
 .xc_stack_usage.hdr
                0x00000000        0xe c:/program files/microchip/xc32/v4.10/bin/bin/../../lib/gcc/pic32c/8.3.1/../../../../pic32c/lib/thumb/v7e-m+fp/hard\libm-emfloat.a(lib_a-_LDEXP.o)
 .comment       0x00000000       0x2c c:/program files/microchip/xc32/v4.10/bin/bin/../../lib/gcc/pic32c/8.3.1/../../../../pic32c/lib/thumb/v7e-m+fp/hard\libm-emfloat.a(lib_a-_LDEXP.o)
 .ARM.attributes
                0x00000000       0x34 c:/program files/microchip/xc32/v4.10/bin/bin/../../lib/gcc/pic32c/8.3.1/../../../../pic32c/lib/thumb/v7e-m+fp/hard\libm-emfloat.a(lib_a-_LDEXP.o)
 .data          0x00000000        0x0 c:/program files/microchip/xc32/v4.10/bin/bin/../../lib/gcc/pic32c/8.3.1/thumb/v7e-m+fp/hard\libgcc.a(_aeabi_ldivmod.o)
 .bss           0x00000000        0x0 c:/program files/microchip/xc32/v4.10/bin/bin/../../lib/gcc/pic32c/8.3.1/thumb/v7e-m+fp/hard\libgcc.a(_aeabi_ldivmod.o)
 .xc_stack_usage.hdr
                0x00000000        0xe c:/program files/microchip/xc32/v4.10/bin/bin/../../lib/gcc/pic32c/8.3.1/thumb/v7e-m+fp/hard\libgcc.a(_aeabi_ldivmod.o)
 .xc_stack_usage
                0x00000000       0x1d c:/program files/microchip/xc32/v4.10/bin/bin/../../lib/gcc/pic32c/8.3.1/thumb/v7e-m+fp/hard\libgcc.a(_aeabi_ldivmod.o)
 .data          0x00000000        0x0 c:/program files/microchip/xc32/v4.10/bin/bin/../../lib/gcc/pic32c/8.3.1/thumb/v7e-m+fp/hard\libgcc.a(_aeabi_uldivmod.o)
 .bss           0x00000000        0x0 c:/program files/microchip/xc32/v4.10/bin/bin/../../lib/gcc/pic32c/8.3.1/thumb/v7e-m+fp/hard\libgcc.a(_aeabi_uldivmod.o)
 .xc_stack_usage.hdr
                0x00000000        0xe c:/program files/microchip/xc32/v4.10/bin/bin/../../lib/gcc/pic32c/8.3.1/thumb/v7e-m+fp/hard\libgcc.a(_aeabi_uldivmod.o)
 .xc_stack_usage
                0x00000000       0x1e c:/program files/microchip/xc32/v4.10/bin/bin/../../lib/gcc/pic32c/8.3.1/thumb/v7e-m+fp/hard\libgcc.a(_aeabi_uldivmod.o)
 .data          0x00000000        0x0 c:/program files/microchip/xc32/v4.10/bin/bin/../../lib/gcc/pic32c/8.3.1/thumb/v7e-m+fp/hard\libgcc.a(_udivmoddi4.o)
 .bss           0x00000000        0x0 c:/program files/microchip/xc32/v4.10/bin/bin/../../lib/gcc/pic32c/8.3.1/thumb/v7e-m+fp/hard\libgcc.a(_udivmoddi4.o)
 .xc_stack_usage
                0x00000000       0x1a c:/program files/microchip/xc32/v4.10/bin/bin/../../lib/gcc/pic32c/8.3.1/thumb/v7e-m+fp/hard\libgcc.a(_udivmoddi4.o)
 .ARM.extab     0x00000000        0x0 c:/program files/microchip/xc32/v4.10/bin/bin/../../lib/gcc/pic32c/8.3.1/thumb/v7e-m+fp/hard\libgcc.a(_udivmoddi4.o)
 .xc_stack_usage.hdr
                0x00000000        0xe c:/program files/microchip/xc32/v4.10/bin/bin/../../lib/gcc/pic32c/8.3.1/thumb/v7e-m+fp/hard\libgcc.a(_udivmoddi4.o)
 .data          0x00000000        0x0 c:/program files/microchip/xc32/v4.10/bin/bin/../../lib/gcc/pic32c/8.3.1/thumb/v7e-m+fp/hard\libgcc.a(_dvmd_tls.o)
 .bss           0x00000000        0x0 c:/program files/microchip/xc32/v4.10/bin/bin/../../lib/gcc/pic32c/8.3.1/thumb/v7e-m+fp/hard\libgcc.a(_dvmd_tls.o)
 .xc_stack_usage.hdr
                0x00000000        0xe c:/program files/microchip/xc32/v4.10/bin/bin/../../lib/gcc/pic32c/8.3.1/thumb/v7e-m+fp/hard\libgcc.a(_dvmd_tls.o)
 .xc_stack_usage
                0x00000000       0x36 c:/program files/microchip/xc32/v4.10/bin/bin/../../lib/gcc/pic32c/8.3.1/thumb/v7e-m+fp/hard\libgcc.a(_dvmd_tls.o)
 .text          0x00000000        0x0 c:/program files/microchip/xc32/v4.10/bin/bin/../../lib/gcc/pic32c/8.3.1/../../../../pic32c/lib/thumb/v7e-m+fp/hard\libpic32c.a(sbrk.o)
 .data          0x00000000        0x0 c:/program files/microchip/xc32/v4.10/bin/bin/../../lib/gcc/pic32c/8.3.1/../../../../pic32c/lib/thumb/v7e-m+fp/hard\libpic32c.a(sbrk.o)
 .xc_stack_usage
                0x00000000       0x13 c:/program files/microchip/xc32/v4.10/bin/bin/../../lib/gcc/pic32c/8.3.1/../../../../pic32c/lib/thumb/v7e-m+fp/hard\libpic32c.a(sbrk.o)
 .xc_stack_usage.hdr
                0x00000000        0xe c:/program files/microchip/xc32/v4.10/bin/bin/../../lib/gcc/pic32c/8.3.1/../../../../pic32c/lib/thumb/v7e-m+fp/hard\libpic32c.a(sbrk.o)
 .text          0x00000000        0x0 c:/program files/microchip/xc32/v4.10/bin/bin/../../lib/gcc/pic32c/8.3.1/thumb/v7e-m+fp/hard/crtend.o
 .data          0x00000000        0x0 c:/program files/microchip/xc32/v4.10/bin/bin/../../lib/gcc/pic32c/8.3.1/thumb/v7e-m+fp/hard/crtend.o
 .bss           0x00000000        0x0 c:/program files/microchip/xc32/v4.10/bin/bin/../../lib/gcc/pic32c/8.3.1/thumb/v7e-m+fp/hard/crtend.o
 .eh_frame      0x00000000        0x4 c:/program files/microchip/xc32/v4.10/bin/bin/../../lib/gcc/pic32c/8.3.1/thumb/v7e-m+fp/hard/crtend.o
 .xc_stack_usage.hdr
                0x00000000        0xe c:/program files/microchip/xc32/v4.10/bin/bin/../../lib/gcc/pic32c/8.3.1/thumb/v7e-m+fp/hard/crtend.o
 .comment       0x00000000       0x2c c:/program files/microchip/xc32/v4.10/bin/bin/../../lib/gcc/pic32c/8.3.1/thumb/v7e-m+fp/hard/crtend.o
 .ARM.attributes
                0x00000000       0x32 c:/program files/microchip/xc32/v4.10/bin/bin/../../lib/gcc/pic32c/8.3.1/thumb/v7e-m+fp/hard/crtend.o
 .text          0x00000000        0x0 c:/program files/microchip/xc32/v4.10/bin/bin/../../lib/gcc/pic32c/8.3.1/thumb/v7e-m+fp/hard/crtn.o
 .data          0x00000000        0x0 c:/program files/microchip/xc32/v4.10/bin/bin/../../lib/gcc/pic32c/8.3.1/thumb/v7e-m+fp/hard/crtn.o
 .bss           0x00000000        0x0 c:/program files/microchip/xc32/v4.10/bin/bin/../../lib/gcc/pic32c/8.3.1/thumb/v7e-m+fp/hard/crtn.o
 .xc_stack_usage.hdr
                0x00000000        0xe c:/program files/microchip/xc32/v4.10/bin/bin/../../lib/gcc/pic32c/8.3.1/thumb/v7e-m+fp/hard/crtn.o

Memory Configuration

Name             Origin             Length             Attributes
rom              0x00000000         0x00100000         xrl
ram              0x20000000         0x00040000         xw !r
tcm              0x03000000         0x00000000         xw
bkupram          0x47000000         0x00002000
config_00804000  0x00804000         0x00000004
config_00804004  0x00804004         0x00000004
config_00804008  0x00804008         0x00000004
*default*        0x00000000         0xffffffff

Linker script and memory map

LOAD c:/program files/microchip/xc32/v4.10/bin/bin/../../lib/gcc/pic32c/8.3.1/thumb/v7e-m+fp/hard/crti.o
LOAD c:/program files/microchip/xc32/v4.10/bin/bin/../../lib/gcc/pic32c/8.3.1/thumb/v7e-m+fp/hard/crtbegin.o
LOAD build/FreeRTOS/production/_ext/1609394304/crypto.o
LOAD build/FreeRTOS/production/_ext/1231519722/drv_ethphy.o
LOAD build/FreeRTOS/production/_ext/1231519722/drv_extphy_lan867x.o
LOAD build/FreeRTOS/production/_ext/41526634/drv_gmac.o
LOAD build/FreeRTOS/production/_ext/41526634/drv_gmac_lib_samE5x.o
LOAD build/FreeRTOS/production/_ext/1149484450/drv_miim.o
LOAD build/FreeRTOS/production/_ext/540595297/helpers.o
LOAD build/FreeRTOS/production/_ext/540595297/icmp.o
LOAD build/FreeRTOS/production/_ext/540595297/tcp.o
LOAD build/FreeRTOS/production/_ext/540595297/arp.o
LOAD build/FreeRTOS/production/_ext/540595297/tcpip_commands.o
LOAD build/FreeRTOS/production/_ext/540595297/iperf.o
LOAD build/FreeRTOS/production/_ext/540595297/ipv4.o
LOAD build/FreeRTOS/production/_ext/540595297/tcpip_heap_alloc.o
LOAD build/FreeRTOS/production/_ext/540595297/tcpip_heap_internal.o
LOAD build/FreeRTOS/production/_ext/540595297/dhcp.o
LOAD build/FreeRTOS/production/_ext/540595297/dns.o
LOAD build/FreeRTOS/production/_ext/540595297/hash_fnv.o
LOAD build/FreeRTOS/production/_ext/540595297/oahash.o
LOAD build/FreeRTOS/production/_ext/540595297/tcpip_helpers.o
LOAD build/FreeRTOS/production/_ext/540595297/tcpip_manager.o
LOAD build/FreeRTOS/production/_ext/540595297/tcpip_notify.o
LOAD build/FreeRTOS/production/_ext/540595297/tcpip_packet.o
LOAD build/FreeRTOS/production/_ext/540595297/udp.o
LOAD build/FreeRTOS/production/_ext/891571577/osal_freertos.o
LOAD build/FreeRTOS/production/_ext/892004133/plib_clock.o
LOAD build/FreeRTOS/production/_ext/1495245741/plib_cmcc.o
LOAD build/FreeRTOS/production/_ext/894153619/plib_evsys.o
LOAD build/FreeRTOS/production/_ext/1494909205/plib_nvic.o
LOAD build/FreeRTOS/production/_ext/320424729/plib_nvmctrl.o
LOAD build/FreeRTOS/production/_ext/1494856054/plib_port.o
LOAD build/FreeRTOS/production/_ext/2092608928/plib_sercom1_usart.o
LOAD build/FreeRTOS/production/_ext/579449528/plib_tc0.o
LOAD build/FreeRTOS/production/_ext/1494734144/plib_trng.o
LOAD build/FreeRTOS/production/_ext/1872641887/xc32_monitor.o
LOAD build/FreeRTOS/production/_ext/1107142132/sys_cache.o
LOAD build/FreeRTOS/production/_ext/1005353002/sys_command.o
LOAD build/FreeRTOS/production/_ext/548640822/sys_console_uart.o
LOAD build/FreeRTOS/production/_ext/548640822/sys_console.o
LOAD build/FreeRTOS/production/_ext/147610190/sys_debug.o
LOAD build/FreeRTOS/production/_ext/1690414130/sys_int.o
LOAD build/FreeRTOS/production/_ext/1093154855/sys_reset.o
LOAD build/FreeRTOS/production/_ext/832704728/sys_time.o
LOAD build/FreeRTOS/production/_ext/2072568807/sys_time_h2_adapter.o
LOAD build/FreeRTOS/production/_ext/2072568807/sys_random_h2_adapter.o
LOAD build/FreeRTOS/production/_ext/161576091/tasks.o
LOAD build/FreeRTOS/production/_ext/161576091/initialization.o
LOAD build/FreeRTOS/production/_ext/161576091/interrupts.o
LOAD build/FreeRTOS/production/_ext/161576091/exceptions.o
LOAD build/FreeRTOS/production/_ext/161576091/startup_xc32.o
LOAD build/FreeRTOS/production/_ext/161576091/libc_syscalls.o
LOAD build/FreeRTOS/production/_ext/161576091/freertos_hooks.o
LOAD build/FreeRTOS/production/_ext/246609638/port.o
LOAD build/FreeRTOS/production/_ext/1665200909/heap_1.o
LOAD build/FreeRTOS/production/_ext/404212886/croutine.o
LOAD build/FreeRTOS/production/_ext/404212886/list.o
LOAD build/FreeRTOS/production/_ext/404212886/queue.o
LOAD build/FreeRTOS/production/_ext/404212886/FreeRTOS_tasks.o
LOAD build/FreeRTOS/production/_ext/404212886/timers.o
LOAD build/FreeRTOS/production/_ext/404212886/event_groups.o
LOAD build/FreeRTOS/production/_ext/404212886/stream_buffer.o
LOAD build/FreeRTOS/production/_ext/172253694/pic32mz-crypt.o
LOAD build/FreeRTOS/production/_ext/172253694/crypt_aes_sam6149.o
LOAD build/FreeRTOS/production/_ext/172253694/crypt_aes_u2238.o
LOAD build/FreeRTOS/production/_ext/172253694/crypt_ecc_ba414e.o
LOAD build/FreeRTOS/production/_ext/172253694/crypt_ecc_pukcl.o
LOAD build/FreeRTOS/production/_ext/172253694/crypt_pukcl_functions.o
LOAD build/FreeRTOS/production/_ext/172253694/crypt_rng_sam6334.o
LOAD build/FreeRTOS/production/_ext/172253694/crypt_rng_u2242.o
LOAD build/FreeRTOS/production/_ext/172253694/crypt_rsa_pukcl.o
LOAD build/FreeRTOS/production/_ext/172253694/crypt_sam_u2803.o
LOAD build/FreeRTOS/production/_ext/172253694/crypt_sha1_sam11105.o
LOAD build/FreeRTOS/production/_ext/172253694/crypt_sha1_sam6156.o
LOAD build/FreeRTOS/production/_ext/172253694/crypt_sha224_sam11105.o
LOAD build/FreeRTOS/production/_ext/172253694/crypt_sha224_sam6156.o
LOAD build/FreeRTOS/production/_ext/172253694/crypt_sha256_sam11105.o
LOAD build/FreeRTOS/production/_ext/172253694/crypt_sha256_sam6156.o
LOAD build/FreeRTOS/production/_ext/172253694/crypt_sha384_sam6156.o
LOAD build/FreeRTOS/production/_ext/172253694/crypt_sha512_sam6156.o
LOAD build/FreeRTOS/production/_ext/172253694/crypt_tdes_sam6150.o
LOAD build/FreeRTOS/production/_ext/172253694/crypt_wolfcryptcb.o
LOAD build/FreeRTOS/production/_ext/1664057780/arc4.o
LOAD build/FreeRTOS/production/_ext/1664057780/asm.o
LOAD build/FreeRTOS/production/_ext/1664057780/asn.o
LOAD build/FreeRTOS/production/_ext/1664057780/blake2b.o
LOAD build/FreeRTOS/production/_ext/1664057780/blake2s.o
LOAD build/FreeRTOS/production/_ext/1664057780/camellia.o
LOAD build/FreeRTOS/production/_ext/1664057780/chacha.o
LOAD build/FreeRTOS/production/_ext/1664057780/chacha20_poly1305.o
LOAD build/FreeRTOS/production/_ext/1664057780/cmac.o
LOAD build/FreeRTOS/production/_ext/1664057780/coding.o
LOAD build/FreeRTOS/production/_ext/1664057780/compress.o
LOAD build/FreeRTOS/production/_ext/1664057780/cpuid.o
LOAD build/FreeRTOS/production/_ext/1664057780/cryptocb.o
LOAD build/FreeRTOS/production/_ext/1664057780/curve25519.o
LOAD build/FreeRTOS/production/_ext/1664057780/curve448.o
LOAD build/FreeRTOS/production/_ext/1664057780/dh.o
LOAD build/FreeRTOS/production/_ext/1664057780/dsa.o
LOAD build/FreeRTOS/production/_ext/1664057780/ecc_fp.o
LOAD build/FreeRTOS/production/_ext/1664057780/ed25519.o
LOAD build/FreeRTOS/production/_ext/1664057780/ed448.o
LOAD build/FreeRTOS/production/_ext/1664057780/error.o
LOAD build/FreeRTOS/production/_ext/1664057780/fe_448.o
LOAD build/FreeRTOS/production/_ext/1664057780/fe_low_mem.o
LOAD build/FreeRTOS/production/_ext/1664057780/fe_operations.o
LOAD build/FreeRTOS/production/_ext/1664057780/ge_448.o
LOAD build/FreeRTOS/production/_ext/1664057780/ge_low_mem.o
LOAD build/FreeRTOS/production/_ext/1664057780/ge_operations.o
LOAD build/FreeRTOS/production/_ext/1664057780/hash.o
LOAD build/FreeRTOS/production/_ext/1664057780/hmac.o
LOAD build/FreeRTOS/production/_ext/1664057780/integer.o
LOAD build/FreeRTOS/production/_ext/1664057780/logging.o
LOAD build/FreeRTOS/production/_ext/1664057780/md2.o
LOAD build/FreeRTOS/production/_ext/1664057780/md4.o
LOAD build/FreeRTOS/production/_ext/1664057780/md5.o
LOAD build/FreeRTOS/production/_ext/1664057780/memory.o
LOAD build/FreeRTOS/production/_ext/1664057780/pkcs12.o
LOAD build/FreeRTOS/production/_ext/1664057780/pkcs7.o
LOAD build/FreeRTOS/production/_ext/1664057780/poly1305.o
LOAD build/FreeRTOS/production/_ext/1664057780/pwdbased.o
LOAD build/FreeRTOS/production/_ext/1664057780/rc2.o
LOAD build/FreeRTOS/production/_ext/1664057780/ripemd.o
LOAD build/FreeRTOS/production/_ext/1664057780/rsa.o
LOAD build/FreeRTOS/production/_ext/1664057780/sha3.o
LOAD build/FreeRTOS/production/_ext/1664057780/signature.o
LOAD build/FreeRTOS/production/_ext/1664057780/sp_arm32.o
LOAD build/FreeRTOS/production/_ext/1664057780/sp_arm64.o
LOAD build/FreeRTOS/production/_ext/1664057780/sp_armthumb.o
LOAD build/FreeRTOS/production/_ext/1664057780/sp_c32.o
LOAD build/FreeRTOS/production/_ext/1664057780/sp_c64.o
LOAD build/FreeRTOS/production/_ext/1664057780/sp_cortexm.o
LOAD build/FreeRTOS/production/_ext/1664057780/sp_dsp32.o
LOAD build/FreeRTOS/production/_ext/1664057780/sp_int.o
LOAD build/FreeRTOS/production/_ext/1664057780/sp_x86_64.o
LOAD build/FreeRTOS/production/_ext/1664057780/srp.o
LOAD build/FreeRTOS/production/_ext/1664057780/tfm.o
LOAD build/FreeRTOS/production/_ext/1664057780/wc_dsp.o
LOAD build/FreeRTOS/production/_ext/1664057780/wc_encrypt.o
LOAD build/FreeRTOS/production/_ext/1664057780/wc_pkcs11.o
LOAD build/FreeRTOS/production/_ext/1664057780/wc_port.o
LOAD build/FreeRTOS/production/_ext/1664057780/wolfevent.o
LOAD build/FreeRTOS/production/_ext/1664057780/wolfmath.o
LOAD build/FreeRTOS/production/_ext/1664057780/aes.o
LOAD build/FreeRTOS/production/_ext/1664057780/des3.o
LOAD build/FreeRTOS/production/_ext/1664057780/random.o
LOAD build/FreeRTOS/production/_ext/1664057780/sha.o
LOAD build/FreeRTOS/production/_ext/1664057780/sha256.o
LOAD build/FreeRTOS/production/_ext/1664057780/sha512.o
LOAD build/FreeRTOS/production/_ext/1664057780/ecc.o
LOAD build/FreeRTOS/production/_ext/1664057780/kdf.o
LOAD build/FreeRTOS/production/_ext/1664057780/siphash.o
LOAD build/FreeRTOS/production/_ext/1664057780/falcon.o
LOAD build/FreeRTOS/production/_ext/1664057780/eccsi.o
LOAD build/FreeRTOS/production/_ext/1664057780/sakke.o
LOAD build/FreeRTOS/production/_ext/1360937237/app.o
LOAD build/FreeRTOS/production/_ext/1360937237/main.o
LOAD build/FreeRTOS/production/_ext/1360937237/bc_com.o
LOAD build/FreeRTOS/production/_ext/1360937237/bc_test.o
LOAD build/FreeRTOS/production/_ext/1664057780/misc.o
LOAD build/FreeRTOS/production/_ext/1664057780/evp.o
                0x00000001                __MPLAB_BUILD = 0x1
                0x00100000                __rom_end = (ORIGIN (rom) + LENGTH (rom))
                0x20040000                __ram_end = (ORIGIN (ram) + LENGTH (ram))

.config_00804000
                0x00804000        0x4
 *(.config_00804000)
 .config_00804000
                0x00804000        0x4 build/FreeRTOS/production/_ext/161576091/initialization.o
                0x00804000                __config_00804000

.config_00804004
                0x00804004        0x4
 *(.config_00804004)
 .config_00804004
                0x00804004        0x4 build/FreeRTOS/production/_ext/161576091/initialization.o
                0x00804004                __config_00804004

.config_00804008
                0x00804008        0x4
 *(.config_00804008)
 .config_00804008
                0x00804008        0x4 build/FreeRTOS/production/_ext/161576091/initialization.o
                0x00804008                __config_00804008

.vectors        0x00000000      0x264
                0x00000000                . = ALIGN (0x4)
                0x00000000                _sfixed = .
 *(.vectors .vectors.* .vectors_default .vectors_default.*)
 .vectors       0x00000000      0x264 build/FreeRTOS/production/_ext/161576091/interrupts.o
                0x00000000                exception_table
 *(.isr_vector)
 *(.reset*)
 *(.after_vectors)

.text           0x00000264       0x20
                0x00000264                . = ALIGN (0x4)
 *(.glue_7t)
 .glue_7t       0x00000264        0x0 linker stubs
 *(.glue_7)
 .glue_7        0x00000264        0x0 linker stubs
 *(.gnu.linkonce.r.*)
 *(.ARM.extab* .gnu.linkonce.armextab.*)
                0x00000264                . = ALIGN (0x4)
 *(.init)
 .init          0x00000264        0x4 c:/program files/microchip/xc32/v4.10/bin/bin/../../lib/gcc/pic32c/8.3.1/thumb/v7e-m+fp/hard/crti.o
                0x00000264                _init
 .init          0x00000268        0x8 c:/program files/microchip/xc32/v4.10/bin/bin/../../lib/gcc/pic32c/8.3.1/thumb/v7e-m+fp/hard/crtn.o
                0x00000270                . = ALIGN (0x4)
                0x00000270                __preinit_array_start = .
 *(.preinit_array)
                0x00000270                __preinit_array_end = .
                0x00000270                . = ALIGN (0x4)
                0x00000270                __init_array_start = .
 *(SORT_BY_NAME(.init_array.*))
 *(.init_array)
 .init_array    0x00000270        0x4 c:/program files/microchip/xc32/v4.10/bin/bin/../../lib/gcc/pic32c/8.3.1/thumb/v7e-m+fp/hard/crtbegin.o
                0x00000274                __init_array_end = .
                0x00000274                . = ALIGN (0x4)
 *crtbegin.o(.ctors)
 *(EXCLUDE_FILE(*crtend.o) .ctors)
 *(SORT_BY_NAME(.ctors.*))
 *crtend.o(.ctors)
                0x00000274                . = ALIGN (0x4)
 *(.fini)
 .fini          0x00000274        0x4 c:/program files/microchip/xc32/v4.10/bin/bin/../../lib/gcc/pic32c/8.3.1/thumb/v7e-m+fp/hard/crti.o
                0x00000274                _fini
 .fini          0x00000278        0x8 c:/program files/microchip/xc32/v4.10/bin/bin/../../lib/gcc/pic32c/8.3.1/thumb/v7e-m+fp/hard/crtn.o
                0x00000280                . = ALIGN (0x4)
                0x00000280                __fini_array_start = .
 *(.fini_array)
 .fini_array    0x00000280        0x4 c:/program files/microchip/xc32/v4.10/bin/bin/../../lib/gcc/pic32c/8.3.1/thumb/v7e-m+fp/hard/crtbegin.o
 *(SORT_BY_NAME(.fini_array.*))
                0x00000284                __fini_array_end = .
 *crtbegin.o(.dtors)
 *(EXCLUDE_FILE(*crtend.o) .dtors)
 *(SORT_BY_NAME(.dtors.*))
 *crtend.o(.dtors)
                0x00000284                . = ALIGN (0x4)
                0x00000284                _efixed = .
                [!provide]                PROVIDE (__exidx_start = .)

.ARM.exidx      0x00000284        0x8
 *(.ARM.exidx* .gnu.linkonce.armexidx.*)
 .ARM.exidx     0x00000284        0x8 c:/program files/microchip/xc32/v4.10/bin/bin/../../lib/gcc/pic32c/8.3.1/thumb/v7e-m+fp/hard\libgcc.a(_udivmoddi4.o)
                [!provide]                PROVIDE (__exidx_end = .)
                0x0000028c                . = ALIGN (0x4)
                0x0000028c                _etext = .

.bss            0x20000000        0x0
                0x20000000                . = ALIGN (0x4)
                0x20000000                __bss_start__ = .
                0x20000000                _sbss = .
                0x20000000                _szero = .
 *(COMMON)
                0x20000000                . = ALIGN (0x4)
                0x20000000                __bss_end__ = .
                0x20000000                _ebss = .
                0x20000000                _ezero = .
                0x20000000                . = ALIGN (0x4)
                0x20000000                _end = .
                0x2003ffff                _ram_end_ = ((ORIGIN (ram) + LENGTH (ram)) - 0x1)

.bkupram_bss
 *(.bkupram_bss .bkupram_bss.*)
 *(.pbss .pbss.*)
                0x00017ac0                _min_heap_size = 0x17ac0
START GROUP
LOAD c:/program files/microchip/xc32/v4.10/bin/bin/../../lib/gcc/pic32c/8.3.1/../../../../pic32c/lib/thumb/v7e-m+fp/hard\libpic32c.a
LOAD c:/program files/microchip/xc32/v4.10/bin/bin/../../lib/gcc/pic32c/8.3.1/../../../../pic32c/lib/thumb/v7e-m+fp/hard\libm-emfloat.a
LOAD c:/program files/microchip/xc32/v4.10/bin/bin/../../lib/gcc/pic32c/8.3.1/../../../../pic32c/lib/thumb/v7e-m+fp/hard\libc-musl.a
LOAD c:/program files/microchip/xc32/v4.10/bin/bin/../../lib/gcc/pic32c/8.3.1/../../../../pic32c/lib/thumb/v7e-m+fp/hard\libm-emfloat.a
LOAD c:/program files/microchip/xc32/v4.10/bin/bin/../../lib/gcc/pic32c/8.3.1/thumb/v7e-m+fp/hard\libgcc.a
END GROUP
LOAD c:/program files/microchip/xc32/v4.10/bin/bin/../../lib/gcc/pic32c/8.3.1/thumb/v7e-m+fp/hard/crtend.o
LOAD c:/program files/microchip/xc32/v4.10/bin/bin/../../lib/gcc/pic32c/8.3.1/thumb/v7e-m+fp/hard/crtn.o
OUTPUT(dist/FreeRTOS/production/tcpip_iperf_lan867x_freertos.X.production.elf elf32-littlearm)
LOAD stack
LOAD data_init

.ARM.attributes
                0x00000000       0x32
 .ARM.attributes
                0x00000000       0x1e c:/program files/microchip/xc32/v4.10/bin/bin/../../lib/gcc/pic32c/8.3.1/thumb/v7e-m+fp/hard/crti.o
 .ARM.attributes
                0x0000001e       0x34 c:/program files/microchip/xc32/v4.10/bin/bin/../../lib/gcc/pic32c/8.3.1/thumb/v7e-m+fp/hard/crtbegin.o
 .ARM.attributes
                0x00000052       0x34 build/FreeRTOS/production/_ext/1609394304/crypto.o
 .ARM.attributes
                0x00000086       0x34 build/FreeRTOS/production/_ext/1231519722/drv_ethphy.o
 .ARM.attributes
                0x000000ba       0x34 build/FreeRTOS/production/_ext/1231519722/drv_extphy_lan867x.o
 .ARM.attributes
                0x000000ee       0x34 build/FreeRTOS/production/_ext/41526634/drv_gmac.o
 .ARM.attributes
                0x00000122       0x34 build/FreeRTOS/production/_ext/41526634/drv_gmac_lib_samE5x.o
 .ARM.attributes
                0x00000156       0x34 build/FreeRTOS/production/_ext/1149484450/drv_miim.o
 .ARM.attributes
                0x0000018a       0x34 build/FreeRTOS/production/_ext/540595297/helpers.o
 .ARM.attributes
                0x000001be       0x34 build/FreeRTOS/production/_ext/540595297/icmp.o
 .ARM.attributes
                0x000001f2       0x34 build/FreeRTOS/production/_ext/540595297/tcp.o
 .ARM.attributes
                0x00000226       0x34 build/FreeRTOS/production/_ext/540595297/arp.o
 .ARM.attributes
                0x0000025a       0x34 build/FreeRTOS/production/_ext/540595297/tcpip_commands.o
 .ARM.attributes
                0x0000028e       0x34 build/FreeRTOS/production/_ext/540595297/iperf.o
 .ARM.attributes
                0x000002c2       0x34 build/FreeRTOS/production/_ext/540595297/ipv4.o
 .ARM.attributes
                0x000002f6       0x34 build/FreeRTOS/production/_ext/540595297/tcpip_heap_alloc.o
 .ARM.attributes
                0x0000032a       0x34 build/FreeRTOS/production/_ext/540595297/tcpip_heap_internal.o
 .ARM.attributes
                0x0000035e       0x34 build/FreeRTOS/production/_ext/540595297/dhcp.o
 .ARM.attributes
                0x00000392       0x34 build/FreeRTOS/production/_ext/540595297/dns.o
 .ARM.attributes
                0x000003c6       0x34 build/FreeRTOS/production/_ext/540595297/hash_fnv.o
 .ARM.attributes
                0x000003fa       0x34 build/FreeRTOS/production/_ext/540595297/oahash.o
 .ARM.attributes
                0x0000042e       0x34 build/FreeRTOS/production/_ext/540595297/tcpip_helpers.o
 .ARM.attributes
                0x00000462       0x34 build/FreeRTOS/production/_ext/540595297/tcpip_manager.o
 .ARM.attributes
                0x00000496       0x34 build/FreeRTOS/production/_ext/540595297/tcpip_notify.o
 .ARM.attributes
                0x000004ca       0x34 build/FreeRTOS/production/_ext/540595297/tcpip_packet.o
 .ARM.attributes
                0x000004fe       0x34 build/FreeRTOS/production/_ext/540595297/udp.o
 .ARM.attributes
                0x00000532       0x34 build/FreeRTOS/production/_ext/891571577/osal_freertos.o
 .ARM.attributes
                0x00000566       0x34 build/FreeRTOS/production/_ext/892004133/plib_clock.o
 .ARM.attributes
                0x0000059a       0x34 build/FreeRTOS/production/_ext/894153619/plib_evsys.o
 .ARM.attributes
                0x000005ce       0x34 build/FreeRTOS/production/_ext/1494909205/plib_nvic.o
 .ARM.attributes
                0x00000602       0x34 build/FreeRTOS/production/_ext/320424729/plib_nvmctrl.o
 .ARM.attributes
                0x00000636       0x34 build/FreeRTOS/production/_ext/1494856054/plib_port.o
 .ARM.attributes
                0x0000066a       0x34 build/FreeRTOS/production/_ext/2092608928/plib_sercom1_usart.o
 .ARM.attributes
                0x0000069e       0x34 build/FreeRTOS/production/_ext/579449528/plib_tc0.o
 .ARM.attributes
                0x000006d2       0x34 build/FreeRTOS/production/_ext/1494734144/plib_trng.o
 .ARM.attributes
                0x00000706       0x34 build/FreeRTOS/production/_ext/1005353002/sys_command.o
 .ARM.attributes
                0x0000073a       0x34 build/FreeRTOS/production/_ext/548640822/sys_console_uart.o
 .ARM.attributes
                0x0000076e       0x34 build/FreeRTOS/production/_ext/548640822/sys_console.o
 .ARM.attributes
                0x000007a2       0x34 build/FreeRTOS/production/_ext/147610190/sys_debug.o
 .ARM.attributes
                0x000007d6       0x34 build/FreeRTOS/production/_ext/1690414130/sys_int.o
 .ARM.attributes
                0x0000080a       0x34 build/FreeRTOS/production/_ext/1093154855/sys_reset.o
 .ARM.attributes
                0x0000083e       0x34 build/FreeRTOS/production/_ext/832704728/sys_time.o
 .ARM.attributes
                0x00000872       0x34 build/FreeRTOS/production/_ext/2072568807/sys_time_h2_adapter.o
 .ARM.attributes
                0x000008a6       0x34 build/FreeRTOS/production/_ext/2072568807/sys_random_h2_adapter.o
 .ARM.attributes
                0x000008da       0x34 build/FreeRTOS/production/_ext/161576091/tasks.o
 .ARM.attributes
                0x0000090e       0x34 build/FreeRTOS/production/_ext/161576091/initialization.o
 .ARM.attributes
                0x00000942       0x34 build/FreeRTOS/production/_ext/161576091/interrupts.o
 .ARM.attributes
                0x00000976       0x34 build/FreeRTOS/production/_ext/161576091/exceptions.o
 .ARM.attributes
                0x000009aa       0x34 build/FreeRTOS/production/_ext/161576091/startup_xc32.o
 .ARM.attributes
                0x000009de       0x34 build/FreeRTOS/production/_ext/161576091/freertos_hooks.o
 .ARM.attributes
                0x00000a12       0x34 build/FreeRTOS/production/_ext/246609638/port.o
 .ARM.attributes
                0x00000a46       0x34 build/FreeRTOS/production/_ext/1665200909/heap_1.o
 .ARM.attributes
                0x00000a7a       0x34 build/FreeRTOS/production/_ext/404212886/list.o
 .ARM.attributes
                0x00000aae       0x34 build/FreeRTOS/production/_ext/404212886/queue.o
 .ARM.attributes
                0x00000ae2       0x34 build/FreeRTOS/production/_ext/404212886/FreeRTOS_tasks.o
 .ARM.attributes
                0x00000b16       0x34 build/FreeRTOS/production/_ext/172253694/crypt_wolfcryptcb.o
 .ARM.attributes
                0x00000b4a       0x34 build/FreeRTOS/production/_ext/1664057780/asn.o
 .ARM.attributes
                0x00000b7e       0x34 build/FreeRTOS/production/_ext/1664057780/coding.o
 .ARM.attributes
                0x00000bb2       0x34 build/FreeRTOS/production/_ext/1664057780/cryptocb.o
 .ARM.attributes
                0x00000be6       0x34 build/FreeRTOS/production/_ext/1664057780/hash.o
 .ARM.attributes
                0x00000c1a       0x34 build/FreeRTOS/production/_ext/1664057780/hmac.o
 .ARM.attributes
                0x00000c4e       0x34 build/FreeRTOS/production/_ext/1664057780/md5.o
 .ARM.attributes
                0x00000c82       0x34 build/FreeRTOS/production/_ext/1664057780/rsa.o
 .ARM.attributes
                0x00000cb6       0x34 build/FreeRTOS/production/_ext/1664057780/tfm.o
 .ARM.attributes
                0x00000cea       0x34 build/FreeRTOS/production/_ext/1664057780/wc_port.o
 .ARM.attributes
                0x00000d1e       0x34 build/FreeRTOS/production/_ext/1664057780/wolfmath.o
 .ARM.attributes
                0x00000d52       0x34 build/FreeRTOS/production/_ext/1664057780/aes.o
 .ARM.attributes
                0x00000d86       0x34 build/FreeRTOS/production/_ext/1664057780/des3.o
 .ARM.attributes
                0x00000dba       0x34 build/FreeRTOS/production/_ext/1664057780/random.o
 .ARM.attributes
                0x00000dee       0x34 build/FreeRTOS/production/_ext/1664057780/sha.o
 .ARM.attributes
                0x00000e22       0x34 build/FreeRTOS/production/_ext/1664057780/sha256.o
 .ARM.attributes
                0x00000e56       0x34 build/FreeRTOS/production/_ext/1664057780/ecc.o
 .ARM.attributes
                0x00000e8a       0x34 build/FreeRTOS/production/_ext/1360937237/app.o
 .ARM.attributes
                0x00000ebe       0x34 build/FreeRTOS/production/_ext/1360937237/main.o
 .ARM.attributes
                0x00000ef2       0x34 build/FreeRTOS/production/_ext/1360937237/bc_com.o
 .ARM.attributes
                0x00000f26       0x34 build/FreeRTOS/production/_ext/1360937237/bc_test.o
 .ARM.attributes
                0x00000f5a       0x34 c:/program files/microchip/xc32/v4.10/bin/bin/../../lib/gcc/pic32c/8.3.1/../../../../pic32c/lib/thumb/v7e-m+fp/hard\libpic32c.a(data_init.o)
 .ARM.attributes
                0x00000f8e       0x20 c:/program files/microchip/xc32/v4.10/bin/bin/../../lib/gcc/pic32c/8.3.1/../../../../pic32c/lib/thumb/v7e-m+fp/hard\libm-emfloat.a(floatasmops_arm.o)
 .ARM.attributes
                0x00000fae       0x36 c:/program files/microchip/xc32/v4.10/bin/bin/../../lib/gcc/pic32c/8.3.1/../../../../pic32c/lib/thumb/v7e-m+fp/hard\libc-musl.a(isalnum.o)
 .ARM.attributes
                0x00000fe4       0x36 c:/program files/microchip/xc32/v4.10/bin/bin/../../lib/gcc/pic32c/8.3.1/../../../../pic32c/lib/thumb/v7e-m+fp/hard\libc-musl.a(isxdigit.o)
 .ARM.attributes
                0x0000101a       0x36 c:/program files/microchip/xc32/v4.10/bin/bin/../../lib/gcc/pic32c/8.3.1/../../../../pic32c/lib/thumb/v7e-m+fp/hard\libc-musl.a(tolower.o)
 .ARM.attributes
                0x00001050       0x36 c:/program files/microchip/xc32/v4.10/bin/bin/../../lib/gcc/pic32c/8.3.1/../../../../pic32c/lib/thumb/v7e-m+fp/hard\libc-musl.a(toupper.o)
 .ARM.attributes
                0x00001086       0x36 c:/program files/microchip/xc32/v4.10/bin/bin/../../lib/gcc/pic32c/8.3.1/../../../../pic32c/lib/thumb/v7e-m+fp/hard\libc-musl.a(__libc_start_main.o)
 .ARM.attributes
                0x000010bc       0x34 c:/program files/microchip/xc32/v4.10/bin/bin/../../lib/gcc/pic32c/8.3.1/../../../../pic32c/lib/thumb/v7e-m+fp/hard\libc-musl.a(libc.o)
 .ARM.attributes
                0x000010f0       0x36 c:/program files/microchip/xc32/v4.10/bin/bin/../../lib/gcc/pic32c/8.3.1/../../../../pic32c/lib/thumb/v7e-m+fp/hard\libc-musl.a(malloc.o)
 .ARM.attributes
                0x00001126       0x36 c:/program files/microchip/xc32/v4.10/bin/bin/../../lib/gcc/pic32c/8.3.1/../../../../pic32c/lib/thumb/v7e-m+fp/hard\libc-musl.a(expand_heap.o)
 .ARM.attributes
                0x0000115c       0x36 c:/program files/microchip/xc32/v4.10/bin/bin/../../lib/gcc/pic32c/8.3.1/../../../../pic32c/lib/thumb/v7e-m+fp/hard\libc-musl.a(rand.o)
 .ARM.attributes
                0x00001192       0x36 c:/program files/microchip/xc32/v4.10/bin/bin/../../lib/gcc/pic32c/8.3.1/../../../../pic32c/lib/thumb/v7e-m+fp/hard\libc-musl.a(vsnprintf.o)
 .ARM.attributes
                0x000011c8       0x36 c:/program files/microchip/xc32/v4.10/bin/bin/../../lib/gcc/pic32c/8.3.1/../../../../pic32c/lib/thumb/v7e-m+fp/hard\libc-musl.a(snprintf.o)
 .ARM.attributes
                0x000011fe       0x36 c:/program files/microchip/xc32/v4.10/bin/bin/../../lib/gcc/pic32c/8.3.1/../../../../pic32c/lib/thumb/v7e-m+fp/hard\libc-musl.a(sprintf.o)
 .ARM.attributes
                0x00001234       0x36 c:/program files/microchip/xc32/v4.10/bin/bin/../../lib/gcc/pic32c/8.3.1/../../../../pic32c/lib/thumb/v7e-m+fp/hard\libc-musl.a(vsprintf.o)
 .ARM.attributes
                0x0000126a       0x36 c:/program files/microchip/xc32/v4.10/bin/bin/../../lib/gcc/pic32c/8.3.1/../../../../pic32c/lib/thumb/v7e-m+fp/hard\libc-musl.a(atoi.o)
 .ARM.attributes
                0x000012a0       0x36 c:/program files/microchip/xc32/v4.10/bin/bin/../../lib/gcc/pic32c/8.3.1/../../../../pic32c/lib/thumb/v7e-m+fp/hard\libc-musl.a(strtol.o)
 .ARM.attributes
                0x000012d6       0x36 c:/program files/microchip/xc32/v4.10/bin/bin/../../lib/gcc/pic32c/8.3.1/../../../../pic32c/lib/thumb/v7e-m+fp/hard\libc-musl.a(memcmp.o)
 .ARM.attributes
                0x0000130c       0x36 c:/program files/microchip/xc32/v4.10/bin/bin/../../lib/gcc/pic32c/8.3.1/../../../../pic32c/lib/thumb/v7e-m+fp/hard\libc-musl.a(memcpy.o)
 .ARM.attributes
                0x00001342       0x36 c:/program files/microchip/xc32/v4.10/bin/bin/../../lib/gcc/pic32c/8.3.1/../../../../pic32c/lib/thumb/v7e-m+fp/hard\libc-musl.a(memmove.o)
 .ARM.attributes
                0x00001378       0x36 c:/program files/microchip/xc32/v4.10/bin/bin/../../lib/gcc/pic32c/8.3.1/../../../../pic32c/lib/thumb/v7e-m+fp/hard\libc-musl.a(memset.o)
 .ARM.attributes
                0x000013ae       0x36 c:/program files/microchip/xc32/v4.10/bin/bin/../../lib/gcc/pic32c/8.3.1/../../../../pic32c/lib/thumb/v7e-m+fp/hard\libc-musl.a(strlen.o)
 .ARM.attributes
                0x000013e4       0x36 c:/program files/microchip/xc32/v4.10/bin/bin/../../lib/gcc/pic32c/8.3.1/../../../../pic32c/lib/thumb/v7e-m+fp/hard\libc-musl.a(strchr.o)
 .ARM.attributes
                0x0000141a       0x36 c:/program files/microchip/xc32/v4.10/bin/bin/../../lib/gcc/pic32c/8.3.1/../../../../pic32c/lib/thumb/v7e-m+fp/hard\libc-musl.a(strchrnul.o)
 .ARM.attributes
                0x00001450       0x36 c:/program files/microchip/xc32/v4.10/bin/bin/../../lib/gcc/pic32c/8.3.1/../../../../pic32c/lib/thumb/v7e-m+fp/hard\libc-musl.a(strcmp.o)
 .ARM.attributes
                0x00001486       0x36 c:/program files/microchip/xc32/v4.10/bin/bin/../../lib/gcc/pic32c/8.3.1/../../../../pic32c/lib/thumb/v7e-m+fp/hard\libc-musl.a(strcpy.o)
 .ARM.attributes
                0x000014bc       0x36 c:/program files/microchip/xc32/v4.10/bin/bin/../../lib/gcc/pic32c/8.3.1/../../../../pic32c/lib/thumb/v7e-m+fp/hard\libc-musl.a(strncmp.o)
 .ARM.attributes
                0x000014f2       0x36 c:/program files/microchip/xc32/v4.10/bin/bin/../../lib/gcc/pic32c/8.3.1/../../../../pic32c/lib/thumb/v7e-m+fp/hard\libc-musl.a(strncpy.o)
 .ARM.attributes
                0x00001528       0x36 c:/program files/microchip/xc32/v4.10/bin/bin/../../lib/gcc/pic32c/8.3.1/../../../../pic32c/lib/thumb/v7e-m+fp/hard\libc-musl.a(strrchr.o)
 .ARM.attributes
                0x0000155e       0x36 c:/program files/microchip/xc32/v4.10/bin/bin/../../lib/gcc/pic32c/8.3.1/../../../../pic32c/lib/thumb/v7e-m+fp/hard\libc-musl.a(strtok.o)
 .ARM.attributes
                0x00001594       0x36 c:/program files/microchip/xc32/v4.10/bin/bin/../../lib/gcc/pic32c/8.3.1/../../../../pic32c/lib/thumb/v7e-m+fp/hard\libc-musl.a(gmtime.o)
 .ARM.attributes
                0x000015ca       0x36 c:/program files/microchip/xc32/v4.10/bin/bin/../../lib/gcc/pic32c/8.3.1/../../../../pic32c/lib/thumb/v7e-m+fp/hard\libc-musl.a(gmtime_r.o)
 .ARM.attributes
                0x00001600       0x36 c:/program files/microchip/xc32/v4.10/bin/bin/../../lib/gcc/pic32c/8.3.1/../../../../pic32c/lib/thumb/v7e-m+fp/hard\libc-musl.a(time.o)
 .ARM.attributes
                0x00001636       0x34 c:/program files/microchip/xc32/v4.10/bin/bin/../../lib/gcc/pic32c/8.3.1/../../../../pic32c/lib/thumb/v7e-m+fp/hard\libc-musl.a(__environ.o)
 .ARM.attributes
                0x0000166a       0x34 c:/program files/microchip/xc32/v4.10/bin/bin/../../lib/gcc/pic32c/8.3.1/../../../../pic32c/lib/thumb/v7e-m+fp/hard\libc-musl.a(__errno_location.o)
 .ARM.attributes
                0x0000169e       0x36 c:/program files/microchip/xc32/v4.10/bin/bin/../../lib/gcc/pic32c/8.3.1/../../../../pic32c/lib/thumb/v7e-m+fp/hard\libc-musl.a(intscan.o)
 .ARM.attributes
                0x000016d4       0x36 c:/program files/microchip/xc32/v4.10/bin/bin/../../lib/gcc/pic32c/8.3.1/../../../../pic32c/lib/thumb/v7e-m+fp/hard\libc-musl.a(shgetc.o)
 .ARM.attributes
                0x0000170a       0x36 c:/program files/microchip/xc32/v4.10/bin/bin/../../lib/gcc/pic32c/8.3.1/../../../../pic32c/lib/thumb/v7e-m+fp/hard\libc-musl.a(__uflow.o)
 .ARM.attributes
                0x00001740       0x36 c:/program files/microchip/xc32/v4.10/bin/bin/../../lib/gcc/pic32c/8.3.1/../../../../pic32c/lib/thumb/v7e-m+fp/hard\libc-musl.a(vfprintf.o)
 .ARM.attributes
                0x00001776       0x36 c:/program files/microchip/xc32/v4.10/bin/bin/../../lib/gcc/pic32c/8.3.1/../../../../pic32c/lib/thumb/v7e-m+fp/hard\libc-musl.a(memrchr.o)
 .ARM.attributes
                0x000017ac       0x36 c:/program files/microchip/xc32/v4.10/bin/bin/../../lib/gcc/pic32c/8.3.1/../../../../pic32c/lib/thumb/v7e-m+fp/hard\libc-musl.a(stpcpy.o)
 .ARM.attributes
                0x000017e2       0x36 c:/program files/microchip/xc32/v4.10/bin/bin/../../lib/gcc/pic32c/8.3.1/../../../../pic32c/lib/thumb/v7e-m+fp/hard\libc-musl.a(stpncpy.o)
 .ARM.attributes
                0x00001818       0x36 c:/program files/microchip/xc32/v4.10/bin/bin/../../lib/gcc/pic32c/8.3.1/../../../../pic32c/lib/thumb/v7e-m+fp/hard\libc-musl.a(strcspn.o)
 .ARM.attributes
                0x0000184e       0x36 c:/program files/microchip/xc32/v4.10/bin/bin/../../lib/gcc/pic32c/8.3.1/../../../../pic32c/lib/thumb/v7e-m+fp/hard\libc-musl.a(strspn.o)
 .ARM.attributes
                0x00001884       0x36 c:/program files/microchip/xc32/v4.10/bin/bin/../../lib/gcc/pic32c/8.3.1/../../../../pic32c/lib/thumb/v7e-m+fp/hard\libc-musl.a(__secs_to_tm.o)
 .ARM.attributes
                0x000018ba       0x36 c:/program files/microchip/xc32/v4.10/bin/bin/../../lib/gcc/pic32c/8.3.1/../../../../pic32c/lib/thumb/v7e-m+fp/hard\libc-musl.a(clock_gettime.o)
 .ARM.attributes
                0x000018f0       0x36 c:/program files/microchip/xc32/v4.10/bin/bin/../../lib/gcc/pic32c/8.3.1/../../../../pic32c/lib/thumb/v7e-m+fp/hard\libc-musl.a(gettimeofday.o)
 .ARM.attributes
                0x00001926       0x36 c:/program files/microchip/xc32/v4.10/bin/bin/../../lib/gcc/pic32c/8.3.1/../../../../pic32c/lib/thumb/v7e-m+fp/hard\libc-musl.a(syscall_ret.o)
 .ARM.attributes
                0x0000195c       0x36 c:/program files/microchip/xc32/v4.10/bin/bin/../../lib/gcc/pic32c/8.3.1/../../../../pic32c/lib/thumb/v7e-m+fp/hard\libc-musl.a(__toread.o)
 .ARM.attributes
                0x00001992       0x36 c:/program files/microchip/xc32/v4.10/bin/bin/../../lib/gcc/pic32c/8.3.1/../../../../pic32c/lib/thumb/v7e-m+fp/hard\libc-musl.a(__printf_core.o)
 .ARM.attributes
                0x000019c8       0x36 c:/program files/microchip/xc32/v4.10/bin/bin/../../lib/gcc/pic32c/8.3.1/../../../../pic32c/lib/thumb/v7e-m+fp/hard\libc-musl.a(__fmt_a.o)
 .ARM.attributes
                0x000019fe       0x36 c:/program files/microchip/xc32/v4.10/bin/bin/../../lib/gcc/pic32c/8.3.1/../../../../pic32c/lib/thumb/v7e-m+fp/hard\libc-musl.a(__fmt_d.o)
 .ARM.attributes
                0x00001a34       0x36 c:/program files/microchip/xc32/v4.10/bin/bin/../../lib/gcc/pic32c/8.3.1/../../../../pic32c/lib/thumb/v7e-m+fp/hard\libc-musl.a(__fmt_fp.o)
 .ARM.attributes
                0x00001a6a       0x36 c:/program files/microchip/xc32/v4.10/bin/bin/../../lib/gcc/pic32c/8.3.1/../../../../pic32c/lib/thumb/v7e-m+fp/hard\libc-musl.a(__fmt_o.o)
 .ARM.attributes
                0x00001aa0       0x36 c:/program files/microchip/xc32/v4.10/bin/bin/../../lib/gcc/pic32c/8.3.1/../../../../pic32c/lib/thumb/v7e-m+fp/hard\libc-musl.a(__fmt_s.o)
 .ARM.attributes
                0x00001ad6       0x36 c:/program files/microchip/xc32/v4.10/bin/bin/../../lib/gcc/pic32c/8.3.1/../../../../pic32c/lib/thumb/v7e-m+fp/hard\libc-musl.a(__fmt_u.o)
 .ARM.attributes
                0x00001b0c       0x36 c:/program files/microchip/xc32/v4.10/bin/bin/../../lib/gcc/pic32c/8.3.1/../../../../pic32c/lib/thumb/v7e-m+fp/hard\libc-musl.a(__fmt_x.o)
 .ARM.attributes
                0x00001b42       0x36 c:/program files/microchip/xc32/v4.10/bin/bin/../../lib/gcc/pic32c/8.3.1/../../../../pic32c/lib/thumb/v7e-m+fp/hard\libc-musl.a(__pop_float.o)
 .ARM.attributes
                0x00001b78       0x36 c:/program files/microchip/xc32/v4.10/bin/bin/../../lib/gcc/pic32c/8.3.1/../../../../pic32c/lib/thumb/v7e-m+fp/hard\libc-musl.a(__pop_int.o)
 .ARM.attributes
                0x00001bae       0x36 c:/program files/microchip/xc32/v4.10/bin/bin/../../lib/gcc/pic32c/8.3.1/../../../../pic32c/lib/thumb/v7e-m+fp/hard\libc-musl.a(__pop_ptr.o)
 .ARM.attributes
                0x00001be4       0x34 c:/program files/microchip/xc32/v4.10/bin/bin/../../lib/gcc/pic32c/8.3.1/../../../../pic32c/lib/thumb/v7e-m+fp/hard\libm-emfloat.a(lib_a-_FLOOR.o)
 .ARM.attributes
                0x00001c18       0x34 c:/program files/microchip/xc32/v4.10/bin/bin/../../lib/gcc/pic32c/8.3.1/../../../../pic32c/lib/thumb/v7e-m+fp/hard\libm-emfloat.a(lib_a-_FMA.o)
 .ARM.attributes
                0x00001c4c       0x1e c:/program files/microchip/xc32/v4.10/bin/bin/../../lib/gcc/pic32c/8.3.1/thumb/v7e-m+fp/hard\libgcc.a(_aeabi_ldivmod.o)
 .ARM.attributes
                0x00001c6a       0x1e c:/program files/microchip/xc32/v4.10/bin/bin/../../lib/gcc/pic32c/8.3.1/thumb/v7e-m+fp/hard\libgcc.a(_aeabi_uldivmod.o)
 .ARM.attributes
                0x00001c88       0x34 c:/program files/microchip/xc32/v4.10/bin/bin/../../lib/gcc/pic32c/8.3.1/thumb/v7e-m+fp/hard\libgcc.a(_udivmoddi4.o)
 .ARM.attributes
                0x00001cbc       0x1e c:/program files/microchip/xc32/v4.10/bin/bin/../../lib/gcc/pic32c/8.3.1/thumb/v7e-m+fp/hard\libgcc.a(_dvmd_tls.o)
 .ARM.attributes
                0x00001cda       0x34 c:/program files/microchip/xc32/v4.10/bin/bin/../../lib/gcc/pic32c/8.3.1/../../../../pic32c/lib/thumb/v7e-m+fp/hard\libpic32c.a(sbrk.o)
 .ARM.attributes
                0x00001d0e       0x1e c:/program files/microchip/xc32/v4.10/bin/bin/../../lib/gcc/pic32c/8.3.1/thumb/v7e-m+fp/hard/crtn.o

.comment        0x00000000       0x2b
 .comment       0x00000000       0x2b c:/program files/microchip/xc32/v4.10/bin/bin/../../lib/gcc/pic32c/8.3.1/thumb/v7e-m+fp/hard/crtbegin.o
                                 0x2c (size before relaxing)
 .comment       0x0000002b       0x2c build/FreeRTOS/production/_ext/1609394304/crypto.o
 .comment       0x0000002b       0x2c build/FreeRTOS/production/_ext/1231519722/drv_ethphy.o
 .comment       0x0000002b       0x2c build/FreeRTOS/production/_ext/1231519722/drv_extphy_lan867x.o
 .comment       0x0000002b       0x2c build/FreeRTOS/production/_ext/41526634/drv_gmac.o
 .comment       0x0000002b       0x2c build/FreeRTOS/production/_ext/41526634/drv_gmac_lib_samE5x.o
 .comment       0x0000002b       0x2c build/FreeRTOS/production/_ext/1149484450/drv_miim.o
 .comment       0x0000002b       0x2c build/FreeRTOS/production/_ext/540595297/helpers.o
 .comment       0x0000002b       0x2c build/FreeRTOS/production/_ext/540595297/icmp.o
 .comment       0x0000002b       0x2c build/FreeRTOS/production/_ext/540595297/tcp.o
 .comment       0x0000002b       0x2c build/FreeRTOS/production/_ext/540595297/arp.o
 .comment       0x0000002b       0x2c build/FreeRTOS/production/_ext/540595297/tcpip_commands.o
 .comment       0x0000002b       0x2c build/FreeRTOS/production/_ext/540595297/iperf.o
 .comment       0x0000002b       0x2c build/FreeRTOS/production/_ext/540595297/ipv4.o
 .comment       0x0000002b       0x2c build/FreeRTOS/production/_ext/540595297/tcpip_heap_alloc.o
 .comment       0x0000002b       0x2c build/FreeRTOS/production/_ext/540595297/tcpip_heap_internal.o
 .comment       0x0000002b       0x2c build/FreeRTOS/production/_ext/540595297/dhcp.o
 .comment       0x0000002b       0x2c build/FreeRTOS/production/_ext/540595297/dns.o
 .comment       0x0000002b       0x2c build/FreeRTOS/production/_ext/540595297/hash_fnv.o
 .comment       0x0000002b       0x2c build/FreeRTOS/production/_ext/540595297/oahash.o
 .comment       0x0000002b       0x2c build/FreeRTOS/production/_ext/540595297/tcpip_helpers.o
 .comment       0x0000002b       0x2c build/FreeRTOS/production/_ext/540595297/tcpip_manager.o
 .comment       0x0000002b       0x2c build/FreeRTOS/production/_ext/540595297/tcpip_notify.o
 .comment       0x0000002b       0x2c build/FreeRTOS/production/_ext/540595297/tcpip_packet.o
 .comment       0x0000002b       0x2c build/FreeRTOS/production/_ext/540595297/udp.o
 .comment       0x0000002b       0x2c build/FreeRTOS/production/_ext/891571577/osal_freertos.o
 .comment       0x0000002b       0x2c build/FreeRTOS/production/_ext/892004133/plib_clock.o
 .comment       0x0000002b       0x2c build/FreeRTOS/production/_ext/894153619/plib_evsys.o
 .comment       0x0000002b       0x2c build/FreeRTOS/production/_ext/1494909205/plib_nvic.o
 .comment       0x0000002b       0x2c build/FreeRTOS/production/_ext/320424729/plib_nvmctrl.o
 .comment       0x0000002b       0x2c build/FreeRTOS/production/_ext/1494856054/plib_port.o
 .comment       0x0000002b       0x2c build/FreeRTOS/production/_ext/2092608928/plib_sercom1_usart.o
 .comment       0x0000002b       0x2c build/FreeRTOS/production/_ext/579449528/plib_tc0.o
 .comment       0x0000002b       0x2c build/FreeRTOS/production/_ext/1494734144/plib_trng.o
 .comment       0x0000002b       0x2c build/FreeRTOS/production/_ext/1005353002/sys_command.o
 .comment       0x0000002b       0x2c build/FreeRTOS/production/_ext/548640822/sys_console_uart.o
 .comment       0x0000002b       0x2c build/FreeRTOS/production/_ext/548640822/sys_console.o
 .comment       0x0000002b       0x2c build/FreeRTOS/production/_ext/147610190/sys_debug.o
 .comment       0x0000002b       0x2c build/FreeRTOS/production/_ext/1690414130/sys_int.o
 .comment       0x0000002b       0x2c build/FreeRTOS/production/_ext/1093154855/sys_reset.o
 .comment       0x0000002b       0x2c build/FreeRTOS/production/_ext/832704728/sys_time.o
 .comment       0x0000002b       0x2c build/FreeRTOS/production/_ext/2072568807/sys_time_h2_adapter.o
 .comment       0x0000002b       0x2c build/FreeRTOS/production/_ext/2072568807/sys_random_h2_adapter.o
 .comment       0x0000002b       0x2c build/FreeRTOS/production/_ext/161576091/tasks.o
 .comment       0x0000002b       0x2c build/FreeRTOS/production/_ext/161576091/initialization.o
 .comment       0x0000002b       0x2c build/FreeRTOS/production/_ext/161576091/interrupts.o
 .comment       0x0000002b       0x2c build/FreeRTOS/production/_ext/161576091/exceptions.o
 .comment       0x0000002b       0x2c build/FreeRTOS/production/_ext/161576091/startup_xc32.o
 .comment       0x0000002b       0x2c build/FreeRTOS/production/_ext/161576091/freertos_hooks.o
 .comment       0x0000002b       0x2c build/FreeRTOS/production/_ext/246609638/port.o
 .comment       0x0000002b       0x2c build/FreeRTOS/production/_ext/1665200909/heap_1.o
 .comment       0x0000002b       0x2c build/FreeRTOS/production/_ext/404212886/list.o
 .comment       0x0000002b       0x2c build/FreeRTOS/production/_ext/404212886/queue.o
 .comment       0x0000002b       0x2c build/FreeRTOS/production/_ext/404212886/FreeRTOS_tasks.o
 .comment       0x0000002b       0x2c build/FreeRTOS/production/_ext/172253694/crypt_wolfcryptcb.o
 .comment       0x0000002b       0x2c build/FreeRTOS/production/_ext/1664057780/asn.o
 .comment       0x0000002b       0x2c build/FreeRTOS/production/_ext/1664057780/coding.o
 .comment       0x0000002b       0x2c build/FreeRTOS/production/_ext/1664057780/cryptocb.o
 .comment       0x0000002b       0x2c build/FreeRTOS/production/_ext/1664057780/hash.o
 .comment       0x0000002b       0x2c build/FreeRTOS/production/_ext/1664057780/hmac.o
 .comment       0x0000002b       0x2c build/FreeRTOS/production/_ext/1664057780/md5.o
 .comment       0x0000002b       0x2c build/FreeRTOS/production/_ext/1664057780/rsa.o
 .comment       0x0000002b       0x2c build/FreeRTOS/production/_ext/1664057780/tfm.o
 .comment       0x0000002b       0x2c build/FreeRTOS/production/_ext/1664057780/wc_port.o
 .comment       0x0000002b       0x2c build/FreeRTOS/production/_ext/1664057780/wolfmath.o
 .comment       0x0000002b       0x2c build/FreeRTOS/production/_ext/1664057780/aes.o
 .comment       0x0000002b       0x2c build/FreeRTOS/production/_ext/1664057780/des3.o
 .comment       0x0000002b       0x2c build/FreeRTOS/production/_ext/1664057780/random.o
 .comment       0x0000002b       0x2c build/FreeRTOS/production/_ext/1664057780/sha.o
 .comment       0x0000002b       0x2c build/FreeRTOS/production/_ext/1664057780/sha256.o
 .comment       0x0000002b       0x2c build/FreeRTOS/production/_ext/1664057780/ecc.o
 .comment       0x0000002b       0x2c build/FreeRTOS/production/_ext/1360937237/app.o
 .comment       0x0000002b       0x2c build/FreeRTOS/production/_ext/1360937237/main.o
 .comment       0x0000002b       0x2c build/FreeRTOS/production/_ext/1360937237/bc_com.o
 .comment       0x0000002b       0x2c build/FreeRTOS/production/_ext/1360937237/bc_test.o
 .comment       0x0000002b       0x2c c:/program files/microchip/xc32/v4.10/bin/bin/../../lib/gcc/pic32c/8.3.1/../../../../pic32c/lib/thumb/v7e-m+fp/hard\libpic32c.a(data_init.o)
 .comment       0x0000002b       0x2c c:/program files/microchip/xc32/v4.10/bin/bin/../../lib/gcc/pic32c/8.3.1/../../../../pic32c/lib/thumb/v7e-m+fp/hard\libc-musl.a(isalnum.o)
 .comment       0x0000002b       0x2c c:/program files/microchip/xc32/v4.10/bin/bin/../../lib/gcc/pic32c/8.3.1/../../../../pic32c/lib/thumb/v7e-m+fp/hard\libc-musl.a(isxdigit.o)
 .comment       0x0000002b       0x2c c:/program files/microchip/xc32/v4.10/bin/bin/../../lib/gcc/pic32c/8.3.1/../../../../pic32c/lib/thumb/v7e-m+fp/hard\libc-musl.a(tolower.o)
 .comment       0x0000002b       0x2c c:/program files/microchip/xc32/v4.10/bin/bin/../../lib/gcc/pic32c/8.3.1/../../../../pic32c/lib/thumb/v7e-m+fp/hard\libc-musl.a(toupper.o)
 .comment       0x0000002b       0x2c c:/program files/microchip/xc32/v4.10/bin/bin/../../lib/gcc/pic32c/8.3.1/../../../../pic32c/lib/thumb/v7e-m+fp/hard\libc-musl.a(__libc_start_main.o)
 .comment       0x0000002b       0x2c c:/program files/microchip/xc32/v4.10/bin/bin/../../lib/gcc/pic32c/8.3.1/../../../../pic32c/lib/thumb/v7e-m+fp/hard\libc-musl.a(libc.o)
 .comment       0x0000002b       0x2c c:/program files/microchip/xc32/v4.10/bin/bin/../../lib/gcc/pic32c/8.3.1/../../../../pic32c/lib/thumb/v7e-m+fp/hard\libc-musl.a(malloc.o)
 .comment       0x0000002b       0x2c c:/program files/microchip/xc32/v4.10/bin/bin/../../lib/gcc/pic32c/8.3.1/../../../../pic32c/lib/thumb/v7e-m+fp/hard\libc-musl.a(expand_heap.o)
 .comment       0x0000002b       0x2c c:/program files/microchip/xc32/v4.10/bin/bin/../../lib/gcc/pic32c/8.3.1/../../../../pic32c/lib/thumb/v7e-m+fp/hard\libc-musl.a(rand.o)
 .comment       0x0000002b       0x2c c:/program files/microchip/xc32/v4.10/bin/bin/../../lib/gcc/pic32c/8.3.1/../../../../pic32c/lib/thumb/v7e-m+fp/hard\libc-musl.a(vsnprintf.o)
 .comment       0x0000002b       0x2c c:/program files/microchip/xc32/v4.10/bin/bin/../../lib/gcc/pic32c/8.3.1/../../../../pic32c/lib/thumb/v7e-m+fp/hard\libc-musl.a(snprintf.o)
 .comment       0x0000002b       0x2c c:/program files/microchip/xc32/v4.10/bin/bin/../../lib/gcc/pic32c/8.3.1/../../../../pic32c/lib/thumb/v7e-m+fp/hard\libc-musl.a(sprintf.o)
 .comment       0x0000002b       0x2c c:/program files/microchip/xc32/v4.10/bin/bin/../../lib/gcc/pic32c/8.3.1/../../../../pic32c/lib/thumb/v7e-m+fp/hard\libc-musl.a(vsprintf.o)
 .comment       0x0000002b       0x2c c:/program files/microchip/xc32/v4.10/bin/bin/../../lib/gcc/pic32c/8.3.1/../../../../pic32c/lib/thumb/v7e-m+fp/hard\libc-musl.a(atoi.o)
 .comment       0x0000002b       0x2c c:/program files/microchip/xc32/v4.10/bin/bin/../../lib/gcc/pic32c/8.3.1/../../../../pic32c/lib/thumb/v7e-m+fp/hard\libc-musl.a(strtol.o)
 .comment       0x0000002b       0x2c c:/program files/microchip/xc32/v4.10/bin/bin/../../lib/gcc/pic32c/8.3.1/../../../../pic32c/lib/thumb/v7e-m+fp/hard\libc-musl.a(memcmp.o)
 .comment       0x0000002b       0x2c c:/program files/microchip/xc32/v4.10/bin/bin/../../lib/gcc/pic32c/8.3.1/../../../../pic32c/lib/thumb/v7e-m+fp/hard\libc-musl.a(memcpy.o)
 .comment       0x0000002b       0x2c c:/program files/microchip/xc32/v4.10/bin/bin/../../lib/gcc/pic32c/8.3.1/../../../../pic32c/lib/thumb/v7e-m+fp/hard\libc-musl.a(memmove.o)
 .comment       0x0000002b       0x2c c:/program files/microchip/xc32/v4.10/bin/bin/../../lib/gcc/pic32c/8.3.1/../../../../pic32c/lib/thumb/v7e-m+fp/hard\libc-musl.a(memset.o)
 .comment       0x0000002b       0x2c c:/program files/microchip/xc32/v4.10/bin/bin/../../lib/gcc/pic32c/8.3.1/../../../../pic32c/lib/thumb/v7e-m+fp/hard\libc-musl.a(strlen.o)
 .comment       0x0000002b       0x2c c:/program files/microchip/xc32/v4.10/bin/bin/../../lib/gcc/pic32c/8.3.1/../../../../pic32c/lib/thumb/v7e-m+fp/hard\libc-musl.a(strchr.o)
 .comment       0x0000002b       0x2c c:/program files/microchip/xc32/v4.10/bin/bin/../../lib/gcc/pic32c/8.3.1/../../../../pic32c/lib/thumb/v7e-m+fp/hard\libc-musl.a(strchrnul.o)
 .comment       0x0000002b       0x2c c:/program files/microchip/xc32/v4.10/bin/bin/../../lib/gcc/pic32c/8.3.1/../../../../pic32c/lib/thumb/v7e-m+fp/hard\libc-musl.a(strcmp.o)
 .comment       0x0000002b       0x2c c:/program files/microchip/xc32/v4.10/bin/bin/../../lib/gcc/pic32c/8.3.1/../../../../pic32c/lib/thumb/v7e-m+fp/hard\libc-musl.a(strcpy.o)
 .comment       0x0000002b       0x2c c:/program files/microchip/xc32/v4.10/bin/bin/../../lib/gcc/pic32c/8.3.1/../../../../pic32c/lib/thumb/v7e-m+fp/hard\libc-musl.a(strncmp.o)
 .comment       0x0000002b       0x2c c:/program files/microchip/xc32/v4.10/bin/bin/../../lib/gcc/pic32c/8.3.1/../../../../pic32c/lib/thumb/v7e-m+fp/hard\libc-musl.a(strncpy.o)
 .comment       0x0000002b       0x2c c:/program files/microchip/xc32/v4.10/bin/bin/../../lib/gcc/pic32c/8.3.1/../../../../pic32c/lib/thumb/v7e-m+fp/hard\libc-musl.a(strrchr.o)
 .comment       0x0000002b       0x2c c:/program files/microchip/xc32/v4.10/bin/bin/../../lib/gcc/pic32c/8.3.1/../../../../pic32c/lib/thumb/v7e-m+fp/hard\libc-musl.a(strtok.o)
 .comment       0x0000002b       0x2c c:/program files/microchip/xc32/v4.10/bin/bin/../../lib/gcc/pic32c/8.3.1/../../../../pic32c/lib/thumb/v7e-m+fp/hard\libc-musl.a(gmtime.o)
 .comment       0x0000002b       0x2c c:/program files/microchip/xc32/v4.10/bin/bin/../../lib/gcc/pic32c/8.3.1/../../../../pic32c/lib/thumb/v7e-m+fp/hard\libc-musl.a(gmtime_r.o)
 .comment       0x0000002b       0x2c c:/program files/microchip/xc32/v4.10/bin/bin/../../lib/gcc/pic32c/8.3.1/../../../../pic32c/lib/thumb/v7e-m+fp/hard\libc-musl.a(time.o)
 .comment       0x0000002b       0x2c c:/program files/microchip/xc32/v4.10/bin/bin/../../lib/gcc/pic32c/8.3.1/../../../../pic32c/lib/thumb/v7e-m+fp/hard\libc-musl.a(__environ.o)
 .comment       0x0000002b       0x2c c:/program files/microchip/xc32/v4.10/bin/bin/../../lib/gcc/pic32c/8.3.1/../../../../pic32c/lib/thumb/v7e-m+fp/hard\libc-musl.a(__errno_location.o)
 .comment       0x0000002b       0x2c c:/program files/microchip/xc32/v4.10/bin/bin/../../lib/gcc/pic32c/8.3.1/../../../../pic32c/lib/thumb/v7e-m+fp/hard\libc-musl.a(intscan.o)
 .comment       0x0000002b       0x2c c:/program files/microchip/xc32/v4.10/bin/bin/../../lib/gcc/pic32c/8.3.1/../../../../pic32c/lib/thumb/v7e-m+fp/hard\libc-musl.a(shgetc.o)
 .comment       0x0000002b       0x2c c:/program files/microchip/xc32/v4.10/bin/bin/../../lib/gcc/pic32c/8.3.1/../../../../pic32c/lib/thumb/v7e-m+fp/hard\libc-musl.a(__uflow.o)
 .comment       0x0000002b       0x2c c:/program files/microchip/xc32/v4.10/bin/bin/../../lib/gcc/pic32c/8.3.1/../../../../pic32c/lib/thumb/v7e-m+fp/hard\libc-musl.a(vfprintf.o)
 .comment       0x0000002b       0x2c c:/program files/microchip/xc32/v4.10/bin/bin/../../lib/gcc/pic32c/8.3.1/../../../../pic32c/lib/thumb/v7e-m+fp/hard\libc-musl.a(memrchr.o)
 .comment       0x0000002b       0x2c c:/program files/microchip/xc32/v4.10/bin/bin/../../lib/gcc/pic32c/8.3.1/../../../../pic32c/lib/thumb/v7e-m+fp/hard\libc-musl.a(stpcpy.o)
 .comment       0x0000002b       0x2c c:/program files/microchip/xc32/v4.10/bin/bin/../../lib/gcc/pic32c/8.3.1/../../../../pic32c/lib/thumb/v7e-m+fp/hard\libc-musl.a(stpncpy.o)
 .comment       0x0000002b       0x2c c:/program files/microchip/xc32/v4.10/bin/bin/../../lib/gcc/pic32c/8.3.1/../../../../pic32c/lib/thumb/v7e-m+fp/hard\libc-musl.a(strcspn.o)
 .comment       0x0000002b       0x2c c:/program files/microchip/xc32/v4.10/bin/bin/../../lib/gcc/pic32c/8.3.1/../../../../pic32c/lib/thumb/v7e-m+fp/hard\libc-musl.a(strspn.o)
 .comment       0x0000002b       0x2c c:/program files/microchip/xc32/v4.10/bin/bin/../../lib/gcc/pic32c/8.3.1/../../../../pic32c/lib/thumb/v7e-m+fp/hard\libc-musl.a(__secs_to_tm.o)
 .comment       0x0000002b       0x2c c:/program files/microchip/xc32/v4.10/bin/bin/../../lib/gcc/pic32c/8.3.1/../../../../pic32c/lib/thumb/v7e-m+fp/hard\libc-musl.a(clock_gettime.o)
 .comment       0x0000002b       0x2c c:/program files/microchip/xc32/v4.10/bin/bin/../../lib/gcc/pic32c/8.3.1/../../../../pic32c/lib/thumb/v7e-m+fp/hard\libc-musl.a(gettimeofday.o)
 .comment       0x0000002b       0x2c c:/program files/microchip/xc32/v4.10/bin/bin/../../lib/gcc/pic32c/8.3.1/../../../../pic32c/lib/thumb/v7e-m+fp/hard\libc-musl.a(syscall_ret.o)
 .comment       0x0000002b       0x2c c:/program files/microchip/xc32/v4.10/bin/bin/../../lib/gcc/pic32c/8.3.1/../../../../pic32c/lib/thumb/v7e-m+fp/hard\libc-musl.a(__toread.o)
 .comment       0x0000002b       0x2c c:/program files/microchip/xc32/v4.10/bin/bin/../../lib/gcc/pic32c/8.3.1/../../../../pic32c/lib/thumb/v7e-m+fp/hard\libc-musl.a(__printf_core.o)
 .comment       0x0000002b       0x2c c:/program files/microchip/xc32/v4.10/bin/bin/../../lib/gcc/pic32c/8.3.1/../../../../pic32c/lib/thumb/v7e-m+fp/hard\libc-musl.a(__fmt_a.o)
 .comment       0x0000002b       0x2c c:/program files/microchip/xc32/v4.10/bin/bin/../../lib/gcc/pic32c/8.3.1/../../../../pic32c/lib/thumb/v7e-m+fp/hard\libc-musl.a(__fmt_d.o)
 .comment       0x0000002b       0x2c c:/program files/microchip/xc32/v4.10/bin/bin/../../lib/gcc/pic32c/8.3.1/../../../../pic32c/lib/thumb/v7e-m+fp/hard\libc-musl.a(__fmt_fp.o)
 .comment       0x0000002b       0x2c c:/program files/microchip/xc32/v4.10/bin/bin/../../lib/gcc/pic32c/8.3.1/../../../../pic32c/lib/thumb/v7e-m+fp/hard\libc-musl.a(__fmt_o.o)
 .comment       0x0000002b       0x2c c:/program files/microchip/xc32/v4.10/bin/bin/../../lib/gcc/pic32c/8.3.1/../../../../pic32c/lib/thumb/v7e-m+fp/hard\libc-musl.a(__fmt_s.o)
 .comment       0x0000002b       0x2c c:/program files/microchip/xc32/v4.10/bin/bin/../../lib/gcc/pic32c/8.3.1/../../../../pic32c/lib/thumb/v7e-m+fp/hard\libc-musl.a(__fmt_u.o)
 .comment       0x0000002b       0x2c c:/program files/microchip/xc32/v4.10/bin/bin/../../lib/gcc/pic32c/8.3.1/../../../../pic32c/lib/thumb/v7e-m+fp/hard\libc-musl.a(__fmt_x.o)
 .comment       0x0000002b       0x2c c:/program files/microchip/xc32/v4.10/bin/bin/../../lib/gcc/pic32c/8.3.1/../../../../pic32c/lib/thumb/v7e-m+fp/hard\libc-musl.a(__pop_float.o)
 .comment       0x0000002b       0x2c c:/program files/microchip/xc32/v4.10/bin/bin/../../lib/gcc/pic32c/8.3.1/../../../../pic32c/lib/thumb/v7e-m+fp/hard\libc-musl.a(__pop_int.o)
 .comment       0x0000002b       0x2c c:/program files/microchip/xc32/v4.10/bin/bin/../../lib/gcc/pic32c/8.3.1/../../../../pic32c/lib/thumb/v7e-m+fp/hard\libc-musl.a(__pop_ptr.o)
 .comment       0x0000002b       0x2c c:/program files/microchip/xc32/v4.10/bin/bin/../../lib/gcc/pic32c/8.3.1/../../../../pic32c/lib/thumb/v7e-m+fp/hard\libm-emfloat.a(lib_a-_FLOOR.o)
 .comment       0x0000002b       0x2c c:/program files/microchip/xc32/v4.10/bin/bin/../../lib/gcc/pic32c/8.3.1/../../../../pic32c/lib/thumb/v7e-m+fp/hard\libm-emfloat.a(lib_a-_FMA.o)
 .comment       0x0000002b       0x2c c:/program files/microchip/xc32/v4.10/bin/bin/../../lib/gcc/pic32c/8.3.1/thumb/v7e-m+fp/hard\libgcc.a(_udivmoddi4.o)
 .comment       0x0000002b       0x2c c:/program files/microchip/xc32/v4.10/bin/bin/../../lib/gcc/pic32c/8.3.1/../../../../pic32c/lib/thumb/v7e-m+fp/hard\libpic32c.a(sbrk.o)

.debug_info     0x00000000   0x11f79a
 .debug_info    0x00000000     0x4122 build/FreeRTOS/production/_ext/1609394304/crypto.o
 .debug_info    0x00004122     0x8963 build/FreeRTOS/production/_ext/1231519722/drv_ethphy.o
 .debug_info    0x0000ca85     0x3ebb build/FreeRTOS/production/_ext/1231519722/drv_extphy_lan867x.o
 .debug_info    0x00010940     0x9210 build/FreeRTOS/production/_ext/41526634/drv_gmac.o
 .debug_info    0x00019b50     0xa9e9 build/FreeRTOS/production/_ext/41526634/drv_gmac_lib_samE5x.o
 .debug_info    0x00024539     0x46aa build/FreeRTOS/production/_ext/1149484450/drv_miim.o
 .debug_info    0x00028be3      0x6d1 build/FreeRTOS/production/_ext/540595297/helpers.o
 .debug_info    0x000292b4     0x4adf build/FreeRTOS/production/_ext/540595297/icmp.o
 .debug_info    0x0002dd93     0xbf76 build/FreeRTOS/production/_ext/540595297/tcp.o
 .debug_info    0x00039d09     0x7050 build/FreeRTOS/production/_ext/540595297/arp.o
 .debug_info    0x00040d59     0x9aee build/FreeRTOS/production/_ext/540595297/tcpip_commands.o
 .debug_info    0x0004a847     0x7ebd build/FreeRTOS/production/_ext/540595297/iperf.o
 .debug_info    0x00052704     0x7d8a build/FreeRTOS/production/_ext/540595297/ipv4.o
 .debug_info    0x0005a48e      0xd6d build/FreeRTOS/production/_ext/540595297/tcpip_heap_alloc.o
 .debug_info    0x0005b1fb     0x1bd6 build/FreeRTOS/production/_ext/540595297/tcpip_heap_internal.o
 .debug_info    0x0005cdd1     0x9d12 build/FreeRTOS/production/_ext/540595297/dhcp.o
 .debug_info    0x00066ae3     0x814c build/FreeRTOS/production/_ext/540595297/dns.o
 .debug_info    0x0006ec2f      0x42e build/FreeRTOS/production/_ext/540595297/hash_fnv.o
 .debug_info    0x0006f05d      0xc59 build/FreeRTOS/production/_ext/540595297/oahash.o
 .debug_info    0x0006fcb6     0x4460 build/FreeRTOS/production/_ext/540595297/tcpip_helpers.o
 .debug_info    0x00074116     0xca9d build/FreeRTOS/production/_ext/540595297/tcpip_manager.o
 .debug_info    0x00080bb3      0xe12 build/FreeRTOS/production/_ext/540595297/tcpip_notify.o
 .debug_info    0x000819c5     0x391f build/FreeRTOS/production/_ext/540595297/tcpip_packet.o
 .debug_info    0x000852e4     0x9626 build/FreeRTOS/production/_ext/540595297/udp.o
 .debug_info    0x0008e90a      0xb9c build/FreeRTOS/production/_ext/891571577/osal_freertos.o
 .debug_info    0x0008f4a6      0xb5c build/FreeRTOS/production/_ext/892004133/plib_clock.o
 .debug_info    0x00090002      0x318 build/FreeRTOS/production/_ext/894153619/plib_evsys.o
 .debug_info    0x0009031a     0x15e4 build/FreeRTOS/production/_ext/1494909205/plib_nvic.o
 .debug_info    0x000918fe      0xe57 build/FreeRTOS/production/_ext/320424729/plib_nvmctrl.o
 .debug_info    0x00092755     0x10c3 build/FreeRTOS/production/_ext/1494856054/plib_port.o
 .debug_info    0x00093818     0x21a3 build/FreeRTOS/production/_ext/2092608928/plib_sercom1_usart.o
 .debug_info    0x000959bb      0xc7e build/FreeRTOS/production/_ext/579449528/plib_tc0.o
 .debug_info    0x00096639      0x496 build/FreeRTOS/production/_ext/1494734144/plib_trng.o
 .debug_info    0x00096acf     0x2773 build/FreeRTOS/production/_ext/1005353002/sys_command.o
 .debug_info    0x00099242     0x147e build/FreeRTOS/production/_ext/548640822/sys_console_uart.o
 .debug_info    0x0009a6c0     0x1410 build/FreeRTOS/production/_ext/548640822/sys_console.o
 .debug_info    0x0009bad0      0x782 build/FreeRTOS/production/_ext/147610190/sys_debug.o
 .debug_info    0x0009c252     0x11aa build/FreeRTOS/production/_ext/1690414130/sys_int.o
 .debug_info    0x0009d3fc      0x5a6 build/FreeRTOS/production/_ext/1093154855/sys_reset.o
 .debug_info    0x0009d9a2     0x3046 build/FreeRTOS/production/_ext/832704728/sys_time.o
 .debug_info    0x000a09e8      0x655 build/FreeRTOS/production/_ext/2072568807/sys_time_h2_adapter.o
 .debug_info    0x000a103d      0xb4f build/FreeRTOS/production/_ext/2072568807/sys_random_h2_adapter.o
 .debug_info    0x000a1b8c      0x994 build/FreeRTOS/production/_ext/161576091/tasks.o
 .debug_info    0x000a2520     0x74db build/FreeRTOS/production/_ext/161576091/initialization.o
 .debug_info    0x000a99fb     0x179a build/FreeRTOS/production/_ext/161576091/interrupts.o
 .debug_info    0x000ab195      0x3da build/FreeRTOS/production/_ext/161576091/exceptions.o
 .debug_info    0x000ab56f      0x897 build/FreeRTOS/production/_ext/161576091/startup_xc32.o
 .debug_info    0x000abe06      0x52a build/FreeRTOS/production/_ext/161576091/freertos_hooks.o
 .debug_info    0x000ac330      0x784 build/FreeRTOS/production/_ext/246609638/port.o
 .debug_info    0x000acab4      0x4e4 build/FreeRTOS/production/_ext/1665200909/heap_1.o
 .debug_info    0x000acf98      0x631 build/FreeRTOS/production/_ext/404212886/list.o
 .debug_info    0x000ad5c9     0x21eb build/FreeRTOS/production/_ext/404212886/queue.o
 .debug_info    0x000af7b4     0x3169 build/FreeRTOS/production/_ext/404212886/FreeRTOS_tasks.o
 .debug_info    0x000b291d     0x25b6 build/FreeRTOS/production/_ext/172253694/crypt_wolfcryptcb.o
 .debug_info    0x000b4ed3    0x11c5f build/FreeRTOS/production/_ext/1664057780/asn.o
 .debug_info    0x000c6b32     0x1b9f build/FreeRTOS/production/_ext/1664057780/coding.o
 .debug_info    0x000c86d1     0x4f78 build/FreeRTOS/production/_ext/1664057780/cryptocb.o
 .debug_info    0x000cd649     0x24b5 build/FreeRTOS/production/_ext/1664057780/hash.o
 .debug_info    0x000cfafe     0x24c1 build/FreeRTOS/production/_ext/1664057780/hmac.o
 .debug_info    0x000d1fbf     0x25b0 build/FreeRTOS/production/_ext/1664057780/md5.o
 .debug_info    0x000d456f     0x51ac build/FreeRTOS/production/_ext/1664057780/rsa.o
 .debug_info    0x000d971b     0x8b27 build/FreeRTOS/production/_ext/1664057780/tfm.o
 .debug_info    0x000e2242     0x11a5 build/FreeRTOS/production/_ext/1664057780/wc_port.o
 .debug_info    0x000e33e7     0x1719 build/FreeRTOS/production/_ext/1664057780/wolfmath.o
 .debug_info    0x000e4b00     0x8aaa build/FreeRTOS/production/_ext/1664057780/aes.o
 .debug_info    0x000ed5aa     0x31b8 build/FreeRTOS/production/_ext/1664057780/des3.o
 .debug_info    0x000f0762     0x3d15 build/FreeRTOS/production/_ext/1664057780/random.o
 .debug_info    0x000f4477     0x4c37 build/FreeRTOS/production/_ext/1664057780/sha.o
 .debug_info    0x000f90ae     0x3dc1 build/FreeRTOS/production/_ext/1664057780/sha256.o
 .debug_info    0x000fce6f     0xb058 build/FreeRTOS/production/_ext/1664057780/ecc.o
 .debug_info    0x00107ec7     0x1bf5 build/FreeRTOS/production/_ext/1360937237/app.o
 .debug_info    0x00109abc      0x330 build/FreeRTOS/production/_ext/1360937237/main.o
 .debug_info    0x00109dec      0xd6d build/FreeRTOS/production/_ext/1360937237/bc_com.o
 .debug_info    0x0010ab59     0x2e9a build/FreeRTOS/production/_ext/1360937237/bc_test.o
 .debug_info    0x0010d9f3      0x2ae c:/program files/microchip/xc32/v4.10/bin/bin/../../lib/gcc/pic32c/8.3.1/../../../../pic32c/lib/thumb/v7e-m+fp/hard\libpic32c.a(data_init.o)
 .debug_info    0x0010dca1      0x357 c:/program files/microchip/xc32/v4.10/bin/bin/../../lib/gcc/pic32c/8.3.1/../../../../pic32c/lib/thumb/v7e-m+fp/hard\libc-musl.a(isalnum.o)
 .debug_info    0x0010dff8      0x35a c:/program files/microchip/xc32/v4.10/bin/bin/../../lib/gcc/pic32c/8.3.1/../../../../pic32c/lib/thumb/v7e-m+fp/hard\libc-musl.a(isxdigit.o)
 .debug_info    0x0010e352      0x357 c:/program files/microchip/xc32/v4.10/bin/bin/../../lib/gcc/pic32c/8.3.1/../../../../pic32c/lib/thumb/v7e-m+fp/hard\libc-musl.a(tolower.o)
 .debug_info    0x0010e6a9      0x357 c:/program files/microchip/xc32/v4.10/bin/bin/../../lib/gcc/pic32c/8.3.1/../../../../pic32c/lib/thumb/v7e-m+fp/hard\libc-musl.a(toupper.o)
 .debug_info    0x0010ea00      0x627 c:/program files/microchip/xc32/v4.10/bin/bin/../../lib/gcc/pic32c/8.3.1/../../../../pic32c/lib/thumb/v7e-m+fp/hard\libc-musl.a(__libc_start_main.o)
 .debug_info    0x0010f027      0x539 c:/program files/microchip/xc32/v4.10/bin/bin/../../lib/gcc/pic32c/8.3.1/../../../../pic32c/lib/thumb/v7e-m+fp/hard\libc-musl.a(libc.o)
 .debug_info    0x0010f560     0x13a9 c:/program files/microchip/xc32/v4.10/bin/bin/../../lib/gcc/pic32c/8.3.1/../../../../pic32c/lib/thumb/v7e-m+fp/hard\libc-musl.a(malloc.o)
 .debug_info    0x00110909      0x380 c:/program files/microchip/xc32/v4.10/bin/bin/../../lib/gcc/pic32c/8.3.1/../../../../pic32c/lib/thumb/v7e-m+fp/hard\libc-musl.a(expand_heap.o)
 .debug_info    0x00110c89      0x330 c:/program files/microchip/xc32/v4.10/bin/bin/../../lib/gcc/pic32c/8.3.1/../../../../pic32c/lib/thumb/v7e-m+fp/hard\libc-musl.a(rand.o)
 .debug_info    0x00110fb9      0x706 c:/program files/microchip/xc32/v4.10/bin/bin/../../lib/gcc/pic32c/8.3.1/../../../../pic32c/lib/thumb/v7e-m+fp/hard\libc-musl.a(vsnprintf.o)
 .debug_info    0x001116bf      0x350 c:/program files/microchip/xc32/v4.10/bin/bin/../../lib/gcc/pic32c/8.3.1/../../../../pic32c/lib/thumb/v7e-m+fp/hard\libc-musl.a(snprintf.o)
 .debug_info    0x00111a0f      0x326 c:/program files/microchip/xc32/v4.10/bin/bin/../../lib/gcc/pic32c/8.3.1/../../../../pic32c/lib/thumb/v7e-m+fp/hard\libc-musl.a(sprintf.o)
 .debug_info    0x00111d35      0x320 c:/program files/microchip/xc32/v4.10/bin/bin/../../lib/gcc/pic32c/8.3.1/../../../../pic32c/lib/thumb/v7e-m+fp/hard\libc-musl.a(vsprintf.o)
 .debug_info    0x00112055      0x2ff c:/program files/microchip/xc32/v4.10/bin/bin/../../lib/gcc/pic32c/8.3.1/../../../../pic32c/lib/thumb/v7e-m+fp/hard\libc-musl.a(atoi.o)
 .debug_info    0x00112354      0x9f3 c:/program files/microchip/xc32/v4.10/bin/bin/../../lib/gcc/pic32c/8.3.1/../../../../pic32c/lib/thumb/v7e-m+fp/hard\libc-musl.a(strtol.o)
 .debug_info    0x00112d47      0x2e6 c:/program files/microchip/xc32/v4.10/bin/bin/../../lib/gcc/pic32c/8.3.1/../../../../pic32c/lib/thumb/v7e-m+fp/hard\libc-musl.a(memcmp.o)
 .debug_info    0x0011302d      0x2fb c:/program files/microchip/xc32/v4.10/bin/bin/../../lib/gcc/pic32c/8.3.1/../../../../pic32c/lib/thumb/v7e-m+fp/hard\libc-musl.a(memcpy.o)
 .debug_info    0x00113328      0x2fd c:/program files/microchip/xc32/v4.10/bin/bin/../../lib/gcc/pic32c/8.3.1/../../../../pic32c/lib/thumb/v7e-m+fp/hard\libc-musl.a(memmove.o)
 .debug_info    0x00113625      0x2b9 c:/program files/microchip/xc32/v4.10/bin/bin/../../lib/gcc/pic32c/8.3.1/../../../../pic32c/lib/thumb/v7e-m+fp/hard\libc-musl.a(memset.o)
 .debug_info    0x001138de      0x2aa c:/program files/microchip/xc32/v4.10/bin/bin/../../lib/gcc/pic32c/8.3.1/../../../../pic32c/lib/thumb/v7e-m+fp/hard\libc-musl.a(strlen.o)
 .debug_info    0x00113b88      0x2cc c:/program files/microchip/xc32/v4.10/bin/bin/../../lib/gcc/pic32c/8.3.1/../../../../pic32c/lib/thumb/v7e-m+fp/hard\libc-musl.a(strchr.o)
 .debug_info    0x00113e54      0x3ef c:/program files/microchip/xc32/v4.10/bin/bin/../../lib/gcc/pic32c/8.3.1/../../../../pic32c/lib/thumb/v7e-m+fp/hard\libc-musl.a(strchrnul.o)
 .debug_info    0x00114243      0x28e c:/program files/microchip/xc32/v4.10/bin/bin/../../lib/gcc/pic32c/8.3.1/../../../../pic32c/lib/thumb/v7e-m+fp/hard\libc-musl.a(strcmp.o)
 .debug_info    0x001144d1      0x2b8 c:/program files/microchip/xc32/v4.10/bin/bin/../../lib/gcc/pic32c/8.3.1/../../../../pic32c/lib/thumb/v7e-m+fp/hard\libc-musl.a(strcpy.o)
 .debug_info    0x00114789      0x2f4 c:/program files/microchip/xc32/v4.10/bin/bin/../../lib/gcc/pic32c/8.3.1/../../../../pic32c/lib/thumb/v7e-m+fp/hard\libc-musl.a(strncmp.o)
 .debug_info    0x00114a7d      0x2dd c:/program files/microchip/xc32/v4.10/bin/bin/../../lib/gcc/pic32c/8.3.1/../../../../pic32c/lib/thumb/v7e-m+fp/hard\libc-musl.a(strncpy.o)
 .debug_info    0x00114d5a      0x2e6 c:/program files/microchip/xc32/v4.10/bin/bin/../../lib/gcc/pic32c/8.3.1/../../../../pic32c/lib/thumb/v7e-m+fp/hard\libc-musl.a(strrchr.o)
 .debug_info    0x00115040      0x2fa c:/program files/microchip/xc32/v4.10/bin/bin/../../lib/gcc/pic32c/8.3.1/../../../../pic32c/lib/thumb/v7e-m+fp/hard\libc-musl.a(strtok.o)
 .debug_info    0x0011533a      0x3d7 c:/program files/microchip/xc32/v4.10/bin/bin/../../lib/gcc/pic32c/8.3.1/../../../../pic32c/lib/thumb/v7e-m+fp/hard\libc-musl.a(gmtime.o)
 .debug_info    0x00115711      0x401 c:/program files/microchip/xc32/v4.10/bin/bin/../../lib/gcc/pic32c/8.3.1/../../../../pic32c/lib/thumb/v7e-m+fp/hard\libc-musl.a(gmtime_r.o)
 .debug_info    0x00115b12      0x31f c:/program files/microchip/xc32/v4.10/bin/bin/../../lib/gcc/pic32c/8.3.1/../../../../pic32c/lib/thumb/v7e-m+fp/hard\libc-musl.a(time.o)
 .debug_info    0x00115e31      0x2b3 c:/program files/microchip/xc32/v4.10/bin/bin/../../lib/gcc/pic32c/8.3.1/../../../../pic32c/lib/thumb/v7e-m+fp/hard\libc-musl.a(__environ.o)
 .debug_info    0x001160e4      0x277 c:/program files/microchip/xc32/v4.10/bin/bin/../../lib/gcc/pic32c/8.3.1/../../../../pic32c/lib/thumb/v7e-m+fp/hard\libc-musl.a(__errno_location.o)
 .debug_info    0x0011635b      0x849 c:/program files/microchip/xc32/v4.10/bin/bin/../../lib/gcc/pic32c/8.3.1/../../../../pic32c/lib/thumb/v7e-m+fp/hard\libc-musl.a(intscan.o)
 .debug_info    0x00116ba4      0x64e c:/program files/microchip/xc32/v4.10/bin/bin/../../lib/gcc/pic32c/8.3.1/../../../../pic32c/lib/thumb/v7e-m+fp/hard\libc-musl.a(shgetc.o)
 .debug_info    0x001171f2      0x61a c:/program files/microchip/xc32/v4.10/bin/bin/../../lib/gcc/pic32c/8.3.1/../../../../pic32c/lib/thumb/v7e-m+fp/hard\libc-musl.a(__uflow.o)
 .debug_info    0x0011780c      0x6c7 c:/program files/microchip/xc32/v4.10/bin/bin/../../lib/gcc/pic32c/8.3.1/../../../../pic32c/lib/thumb/v7e-m+fp/hard\libc-musl.a(vfprintf.o)
 .debug_info    0x00117ed3      0x2fd c:/program files/microchip/xc32/v4.10/bin/bin/../../lib/gcc/pic32c/8.3.1/../../../../pic32c/lib/thumb/v7e-m+fp/hard\libc-musl.a(memrchr.o)
 .debug_info    0x001181d0      0x2bc c:/program files/microchip/xc32/v4.10/bin/bin/../../lib/gcc/pic32c/8.3.1/../../../../pic32c/lib/thumb/v7e-m+fp/hard\libc-musl.a(stpcpy.o)
 .debug_info    0x0011848c      0x2f8 c:/program files/microchip/xc32/v4.10/bin/bin/../../lib/gcc/pic32c/8.3.1/../../../../pic32c/lib/thumb/v7e-m+fp/hard\libc-musl.a(stpncpy.o)
 .debug_info    0x00118784      0x31f c:/program files/microchip/xc32/v4.10/bin/bin/../../lib/gcc/pic32c/8.3.1/../../../../pic32c/lib/thumb/v7e-m+fp/hard\libc-musl.a(strcspn.o)
 .debug_info    0x00118aa3      0x304 c:/program files/microchip/xc32/v4.10/bin/bin/../../lib/gcc/pic32c/8.3.1/../../../../pic32c/lib/thumb/v7e-m+fp/hard\libc-musl.a(strspn.o)
 .debug_info    0x00118da7      0x52f c:/program files/microchip/xc32/v4.10/bin/bin/../../lib/gcc/pic32c/8.3.1/../../../../pic32c/lib/thumb/v7e-m+fp/hard\libc-musl.a(__secs_to_tm.o)
 .debug_info    0x001192d6      0x4a8 c:/program files/microchip/xc32/v4.10/bin/bin/../../lib/gcc/pic32c/8.3.1/../../../../pic32c/lib/thumb/v7e-m+fp/hard\libc-musl.a(clock_gettime.o)
 .debug_info    0x0011977e      0x326 c:/program files/microchip/xc32/v4.10/bin/bin/../../lib/gcc/pic32c/8.3.1/../../../../pic32c/lib/thumb/v7e-m+fp/hard\libc-musl.a(gettimeofday.o)
 .debug_info    0x00119aa4      0x2ce c:/program files/microchip/xc32/v4.10/bin/bin/../../lib/gcc/pic32c/8.3.1/../../../../pic32c/lib/thumb/v7e-m+fp/hard\libc-musl.a(syscall_ret.o)
 .debug_info    0x00119d72      0x634 c:/program files/microchip/xc32/v4.10/bin/bin/../../lib/gcc/pic32c/8.3.1/../../../../pic32c/lib/thumb/v7e-m+fp/hard\libc-musl.a(__toread.o)
 .debug_info    0x0011a3a6      0xd37 c:/program files/microchip/xc32/v4.10/bin/bin/../../lib/gcc/pic32c/8.3.1/../../../../pic32c/lib/thumb/v7e-m+fp/hard\libc-musl.a(__printf_core.o)
 .debug_info    0x0011b0dd      0x8fc c:/program files/microchip/xc32/v4.10/bin/bin/../../lib/gcc/pic32c/8.3.1/../../../../pic32c/lib/thumb/v7e-m+fp/hard\libc-musl.a(__fmt_a.o)
 .debug_info    0x0011b9d9      0x5c6 c:/program files/microchip/xc32/v4.10/bin/bin/../../lib/gcc/pic32c/8.3.1/../../../../pic32c/lib/thumb/v7e-m+fp/hard\libc-musl.a(__fmt_d.o)
 .debug_info    0x0011bf9f      0x9e1 c:/program files/microchip/xc32/v4.10/bin/bin/../../lib/gcc/pic32c/8.3.1/../../../../pic32c/lib/thumb/v7e-m+fp/hard\libc-musl.a(__fmt_fp.o)
 .debug_info    0x0011c980      0x597 c:/program files/microchip/xc32/v4.10/bin/bin/../../lib/gcc/pic32c/8.3.1/../../../../pic32c/lib/thumb/v7e-m+fp/hard\libc-musl.a(__fmt_o.o)
 .debug_info    0x0011cf17      0x53b c:/program files/microchip/xc32/v4.10/bin/bin/../../lib/gcc/pic32c/8.3.1/../../../../pic32c/lib/thumb/v7e-m+fp/hard\libc-musl.a(__fmt_s.o)
 .debug_info    0x0011d452      0x664 c:/program files/microchip/xc32/v4.10/bin/bin/../../lib/gcc/pic32c/8.3.1/../../../../pic32c/lib/thumb/v7e-m+fp/hard\libc-musl.a(__fmt_u.o)
 .debug_info    0x0011dab6      0x5fd c:/program files/microchip/xc32/v4.10/bin/bin/../../lib/gcc/pic32c/8.3.1/../../../../pic32c/lib/thumb/v7e-m+fp/hard\libc-musl.a(__fmt_x.o)
 .debug_info    0x0011e0b3      0x3e1 c:/program files/microchip/xc32/v4.10/bin/bin/../../lib/gcc/pic32c/8.3.1/../../../../pic32c/lib/thumb/v7e-m+fp/hard\libc-musl.a(__pop_float.o)
 .debug_info    0x0011e494      0x405 c:/program files/microchip/xc32/v4.10/bin/bin/../../lib/gcc/pic32c/8.3.1/../../../../pic32c/lib/thumb/v7e-m+fp/hard\libc-musl.a(__pop_int.o)
 .debug_info    0x0011e899      0x40b c:/program files/microchip/xc32/v4.10/bin/bin/../../lib/gcc/pic32c/8.3.1/../../../../pic32c/lib/thumb/v7e-m+fp/hard\libc-musl.a(__pop_ptr.o)
 .debug_info    0x0011eca4       0x26 c:/program files/microchip/xc32/v4.10/bin/bin/../../lib/gcc/pic32c/8.3.1/thumb/v7e-m+fp/hard\libgcc.a(_aeabi_ldivmod.o)
 .debug_info    0x0011ecca       0x26 c:/program files/microchip/xc32/v4.10/bin/bin/../../lib/gcc/pic32c/8.3.1/thumb/v7e-m+fp/hard\libgcc.a(_aeabi_uldivmod.o)
 .debug_info    0x0011ecf0      0x7f3 c:/program files/microchip/xc32/v4.10/bin/bin/../../lib/gcc/pic32c/8.3.1/thumb/v7e-m+fp/hard\libgcc.a(_udivmoddi4.o)
 .debug_info    0x0011f4e3       0x26 c:/program files/microchip/xc32/v4.10/bin/bin/../../lib/gcc/pic32c/8.3.1/thumb/v7e-m+fp/hard\libgcc.a(_dvmd_tls.o)
 .debug_info    0x0011f509      0x291 c:/program files/microchip/xc32/v4.10/bin/bin/../../lib/gcc/pic32c/8.3.1/../../../../pic32c/lib/thumb/v7e-m+fp/hard\libpic32c.a(sbrk.o)

.debug_abbrev   0x00000000    0x13027
 .debug_abbrev  0x00000000      0x386 build/FreeRTOS/production/_ext/1609394304/crypto.o
 .debug_abbrev  0x00000386      0x53c build/FreeRTOS/production/_ext/1231519722/drv_ethphy.o
 .debug_abbrev  0x000008c2      0x404 build/FreeRTOS/production/_ext/1231519722/drv_extphy_lan867x.o
 .debug_abbrev  0x00000cc6      0x63c build/FreeRTOS/production/_ext/41526634/drv_gmac.o
 .debug_abbrev  0x00001302      0x5f6 build/FreeRTOS/production/_ext/41526634/drv_gmac_lib_samE5x.o
 .debug_abbrev  0x000018f8      0x634 build/FreeRTOS/production/_ext/1149484450/drv_miim.o
 .debug_abbrev  0x00001f2c      0x1bf build/FreeRTOS/production/_ext/540595297/helpers.o
 .debug_abbrev  0x000020eb      0x543 build/FreeRTOS/production/_ext/540595297/icmp.o
 .debug_abbrev  0x0000262e      0x6ac build/FreeRTOS/production/_ext/540595297/tcp.o
 .debug_abbrev  0x00002cda      0x5f5 build/FreeRTOS/production/_ext/540595297/arp.o
 .debug_abbrev  0x000032cf      0x56d build/FreeRTOS/production/_ext/540595297/tcpip_commands.o
 .debug_abbrev  0x0000383c      0x570 build/FreeRTOS/production/_ext/540595297/iperf.o
 .debug_abbrev  0x00003dac      0x599 build/FreeRTOS/production/_ext/540595297/ipv4.o
 .debug_abbrev  0x00004345      0x190 build/FreeRTOS/production/_ext/540595297/tcpip_heap_alloc.o
 .debug_abbrev  0x000044d5      0x383 build/FreeRTOS/production/_ext/540595297/tcpip_heap_internal.o
 .debug_abbrev  0x00004858      0x5c2 build/FreeRTOS/production/_ext/540595297/dhcp.o
 .debug_abbrev  0x00004e1a      0x5cc build/FreeRTOS/production/_ext/540595297/dns.o
 .debug_abbrev  0x000053e6       0xc5 build/FreeRTOS/production/_ext/540595297/hash_fnv.o
 .debug_abbrev  0x000054ab      0x2f7 build/FreeRTOS/production/_ext/540595297/oahash.o
 .debug_abbrev  0x000057a2      0x50d build/FreeRTOS/production/_ext/540595297/tcpip_helpers.o
 .debug_abbrev  0x00005caf      0x760 build/FreeRTOS/production/_ext/540595297/tcpip_manager.o
 .debug_abbrev  0x0000640f      0x236 build/FreeRTOS/production/_ext/540595297/tcpip_notify.o
 .debug_abbrev  0x00006645      0x506 build/FreeRTOS/production/_ext/540595297/tcpip_packet.o
 .debug_abbrev  0x00006b4b      0x64c build/FreeRTOS/production/_ext/540595297/udp.o
 .debug_abbrev  0x00007197      0x1e8 build/FreeRTOS/production/_ext/891571577/osal_freertos.o
 .debug_abbrev  0x0000737f      0x120 build/FreeRTOS/production/_ext/892004133/plib_clock.o
 .debug_abbrev  0x0000749f       0x39 build/FreeRTOS/production/_ext/894153619/plib_evsys.o
 .debug_abbrev  0x000074d8      0x20d build/FreeRTOS/production/_ext/1494909205/plib_nvic.o
 .debug_abbrev  0x000076e5      0x243 build/FreeRTOS/production/_ext/320424729/plib_nvmctrl.o
 .debug_abbrev  0x00007928      0x1d4 build/FreeRTOS/production/_ext/1494856054/plib_port.o
 .debug_abbrev  0x00007afc      0x497 build/FreeRTOS/production/_ext/2092608928/plib_sercom1_usart.o
 .debug_abbrev  0x00007f93      0x1e4 build/FreeRTOS/production/_ext/579449528/plib_tc0.o
 .debug_abbrev  0x00008177       0xb3 build/FreeRTOS/production/_ext/1494734144/plib_trng.o
 .debug_abbrev  0x0000822a      0x48f build/FreeRTOS/production/_ext/1005353002/sys_command.o
 .debug_abbrev  0x000086b9      0x345 build/FreeRTOS/production/_ext/548640822/sys_console_uart.o
 .debug_abbrev  0x000089fe      0x383 build/FreeRTOS/production/_ext/548640822/sys_console.o
 .debug_abbrev  0x00008d81      0x17a build/FreeRTOS/production/_ext/147610190/sys_debug.o
 .debug_abbrev  0x00008efb      0x23e build/FreeRTOS/production/_ext/1690414130/sys_int.o
 .debug_abbrev  0x00009139       0xed build/FreeRTOS/production/_ext/1093154855/sys_reset.o
 .debug_abbrev  0x00009226      0x555 build/FreeRTOS/production/_ext/832704728/sys_time.o
 .debug_abbrev  0x0000977b      0x162 build/FreeRTOS/production/_ext/2072568807/sys_time_h2_adapter.o
 .debug_abbrev  0x000098dd      0x1f6 build/FreeRTOS/production/_ext/2072568807/sys_random_h2_adapter.o
 .debug_abbrev  0x00009ad3      0x16e build/FreeRTOS/production/_ext/161576091/tasks.o
 .debug_abbrev  0x00009c41      0x374 build/FreeRTOS/production/_ext/161576091/initialization.o
 .debug_abbrev  0x00009fb5       0xda build/FreeRTOS/production/_ext/161576091/interrupts.o
 .debug_abbrev  0x0000a08f       0x3c build/FreeRTOS/production/_ext/161576091/exceptions.o
 .debug_abbrev  0x0000a0cb      0x1db build/FreeRTOS/production/_ext/161576091/startup_xc32.o
 .debug_abbrev  0x0000a2a6      0x14c build/FreeRTOS/production/_ext/161576091/freertos_hooks.o
 .debug_abbrev  0x0000a3f2      0x224 build/FreeRTOS/production/_ext/246609638/port.o
 .debug_abbrev  0x0000a616      0x14c build/FreeRTOS/production/_ext/1665200909/heap_1.o
 .debug_abbrev  0x0000a762      0x15c build/FreeRTOS/production/_ext/404212886/list.o
 .debug_abbrev  0x0000a8be      0x365 build/FreeRTOS/production/_ext/404212886/queue.o
 .debug_abbrev  0x0000ac23      0x46d build/FreeRTOS/production/_ext/404212886/FreeRTOS_tasks.o
 .debug_abbrev  0x0000b090      0x25c build/FreeRTOS/production/_ext/172253694/crypt_wolfcryptcb.o
 .debug_abbrev  0x0000b2ec      0x66f build/FreeRTOS/production/_ext/1664057780/asn.o
 .debug_abbrev  0x0000b95b      0x1cc build/FreeRTOS/production/_ext/1664057780/coding.o
 .debug_abbrev  0x0000bb27      0x43c build/FreeRTOS/production/_ext/1664057780/cryptocb.o
 .debug_abbrev  0x0000bf63      0x2a0 build/FreeRTOS/production/_ext/1664057780/hash.o
 .debug_abbrev  0x0000c203      0x342 build/FreeRTOS/production/_ext/1664057780/hmac.o
 .debug_abbrev  0x0000c545      0x2d2 build/FreeRTOS/production/_ext/1664057780/md5.o
 .debug_abbrev  0x0000c817      0x424 build/FreeRTOS/production/_ext/1664057780/rsa.o
 .debug_abbrev  0x0000cc3b      0x4f6 build/FreeRTOS/production/_ext/1664057780/tfm.o
 .debug_abbrev  0x0000d131      0x215 build/FreeRTOS/production/_ext/1664057780/wc_port.o
 .debug_abbrev  0x0000d346      0x1fe build/FreeRTOS/production/_ext/1664057780/wolfmath.o
 .debug_abbrev  0x0000d544      0x52d build/FreeRTOS/production/_ext/1664057780/aes.o
 .debug_abbrev  0x0000da71      0x345 build/FreeRTOS/production/_ext/1664057780/des3.o
 .debug_abbrev  0x0000ddb6      0x40e build/FreeRTOS/production/_ext/1664057780/random.o
 .debug_abbrev  0x0000e1c4      0x311 build/FreeRTOS/production/_ext/1664057780/sha.o
 .debug_abbrev  0x0000e4d5      0x400 build/FreeRTOS/production/_ext/1664057780/sha256.o
 .debug_abbrev  0x0000e8d5      0x4cb build/FreeRTOS/production/_ext/1664057780/ecc.o
 .debug_abbrev  0x0000eda0      0x341 build/FreeRTOS/production/_ext/1360937237/app.o
 .debug_abbrev  0x0000f0e1       0x75 build/FreeRTOS/production/_ext/1360937237/main.o
 .debug_abbrev  0x0000f156      0x21c build/FreeRTOS/production/_ext/1360937237/bc_com.o
 .debug_abbrev  0x0000f372      0x37b build/FreeRTOS/production/_ext/1360937237/bc_test.o
 .debug_abbrev  0x0000f6ed       0x2e c:/program files/microchip/xc32/v4.10/bin/bin/../../lib/gcc/pic32c/8.3.1/../../../../pic32c/lib/thumb/v7e-m+fp/hard\libpic32c.a(data_init.o)
 .debug_abbrev  0x0000f71b       0xfd c:/program files/microchip/xc32/v4.10/bin/bin/../../lib/gcc/pic32c/8.3.1/../../../../pic32c/lib/thumb/v7e-m+fp/hard\libc-musl.a(isalnum.o)
 .debug_abbrev  0x0000f818       0xfd c:/program files/microchip/xc32/v4.10/bin/bin/../../lib/gcc/pic32c/8.3.1/../../../../pic32c/lib/thumb/v7e-m+fp/hard\libc-musl.a(isxdigit.o)
 .debug_abbrev  0x0000f915       0xfd c:/program files/microchip/xc32/v4.10/bin/bin/../../lib/gcc/pic32c/8.3.1/../../../../pic32c/lib/thumb/v7e-m+fp/hard\libc-musl.a(tolower.o)
 .debug_abbrev  0x0000fa12       0xfd c:/program files/microchip/xc32/v4.10/bin/bin/../../lib/gcc/pic32c/8.3.1/../../../../pic32c/lib/thumb/v7e-m+fp/hard\libc-musl.a(toupper.o)
 .debug_abbrev  0x0000fb0f      0x117 c:/program files/microchip/xc32/v4.10/bin/bin/../../lib/gcc/pic32c/8.3.1/../../../../pic32c/lib/thumb/v7e-m+fp/hard\libc-musl.a(__libc_start_main.o)
 .debug_abbrev  0x0000fc26       0xb8 c:/program files/microchip/xc32/v4.10/bin/bin/../../lib/gcc/pic32c/8.3.1/../../../../pic32c/lib/thumb/v7e-m+fp/hard\libc-musl.a(libc.o)
 .debug_abbrev  0x0000fcde      0x413 c:/program files/microchip/xc32/v4.10/bin/bin/../../lib/gcc/pic32c/8.3.1/../../../../pic32c/lib/thumb/v7e-m+fp/hard\libc-musl.a(malloc.o)
 .debug_abbrev  0x000100f1       0xa5 c:/program files/microchip/xc32/v4.10/bin/bin/../../lib/gcc/pic32c/8.3.1/../../../../pic32c/lib/thumb/v7e-m+fp/hard\libc-musl.a(expand_heap.o)
 .debug_abbrev  0x00010196       0x8b c:/program files/microchip/xc32/v4.10/bin/bin/../../lib/gcc/pic32c/8.3.1/../../../../pic32c/lib/thumb/v7e-m+fp/hard\libc-musl.a(rand.o)
 .debug_abbrev  0x00010221      0x168 c:/program files/microchip/xc32/v4.10/bin/bin/../../lib/gcc/pic32c/8.3.1/../../../../pic32c/lib/thumb/v7e-m+fp/hard\libc-musl.a(vsnprintf.o)
 .debug_abbrev  0x00010389       0xfb c:/program files/microchip/xc32/v4.10/bin/bin/../../lib/gcc/pic32c/8.3.1/../../../../pic32c/lib/thumb/v7e-m+fp/hard\libc-musl.a(snprintf.o)
 .debug_abbrev  0x00010484       0xfb c:/program files/microchip/xc32/v4.10/bin/bin/../../lib/gcc/pic32c/8.3.1/../../../../pic32c/lib/thumb/v7e-m+fp/hard\libc-musl.a(sprintf.o)
 .debug_abbrev  0x0001057f       0xc3 c:/program files/microchip/xc32/v4.10/bin/bin/../../lib/gcc/pic32c/8.3.1/../../../../pic32c/lib/thumb/v7e-m+fp/hard\libc-musl.a(vsprintf.o)
 .debug_abbrev  0x00010642       0xbb c:/program files/microchip/xc32/v4.10/bin/bin/../../lib/gcc/pic32c/8.3.1/../../../../pic32c/lib/thumb/v7e-m+fp/hard\libc-musl.a(atoi.o)
 .debug_abbrev  0x000106fd      0x1c7 c:/program files/microchip/xc32/v4.10/bin/bin/../../lib/gcc/pic32c/8.3.1/../../../../pic32c/lib/thumb/v7e-m+fp/hard\libc-musl.a(strtol.o)
 .debug_abbrev  0x000108c4       0x8b c:/program files/microchip/xc32/v4.10/bin/bin/../../lib/gcc/pic32c/8.3.1/../../../../pic32c/lib/thumb/v7e-m+fp/hard\libc-musl.a(memcmp.o)
 .debug_abbrev  0x0001094f       0x9c c:/program files/microchip/xc32/v4.10/bin/bin/../../lib/gcc/pic32c/8.3.1/../../../../pic32c/lib/thumb/v7e-m+fp/hard\libc-musl.a(memcpy.o)
 .debug_abbrev  0x000109eb       0xa3 c:/program files/microchip/xc32/v4.10/bin/bin/../../lib/gcc/pic32c/8.3.1/../../../../pic32c/lib/thumb/v7e-m+fp/hard\libc-musl.a(memmove.o)
 .debug_abbrev  0x00010a8e       0x97 c:/program files/microchip/xc32/v4.10/bin/bin/../../lib/gcc/pic32c/8.3.1/../../../../pic32c/lib/thumb/v7e-m+fp/hard\libc-musl.a(memset.o)
 .debug_abbrev  0x00010b25       0x86 c:/program files/microchip/xc32/v4.10/bin/bin/../../lib/gcc/pic32c/8.3.1/../../../../pic32c/lib/thumb/v7e-m+fp/hard\libc-musl.a(strlen.o)
 .debug_abbrev  0x00010bab       0xa2 c:/program files/microchip/xc32/v4.10/bin/bin/../../lib/gcc/pic32c/8.3.1/../../../../pic32c/lib/thumb/v7e-m+fp/hard\libc-musl.a(strchr.o)
 .debug_abbrev  0x00010c4d       0xeb c:/program files/microchip/xc32/v4.10/bin/bin/../../lib/gcc/pic32c/8.3.1/../../../../pic32c/lib/thumb/v7e-m+fp/hard\libc-musl.a(strchrnul.o)
 .debug_abbrev  0x00010d38       0x63 c:/program files/microchip/xc32/v4.10/bin/bin/../../lib/gcc/pic32c/8.3.1/../../../../pic32c/lib/thumb/v7e-m+fp/hard\libc-musl.a(strcmp.o)
 .debug_abbrev  0x00010d9b       0x8e c:/program files/microchip/xc32/v4.10/bin/bin/../../lib/gcc/pic32c/8.3.1/../../../../pic32c/lib/thumb/v7e-m+fp/hard\libc-musl.a(strcpy.o)
 .debug_abbrev  0x00010e29       0x86 c:/program files/microchip/xc32/v4.10/bin/bin/../../lib/gcc/pic32c/8.3.1/../../../../pic32c/lib/thumb/v7e-m+fp/hard\libc-musl.a(strncmp.o)
 .debug_abbrev  0x00010eaf       0x9d c:/program files/microchip/xc32/v4.10/bin/bin/../../lib/gcc/pic32c/8.3.1/../../../../pic32c/lib/thumb/v7e-m+fp/hard\libc-musl.a(strncpy.o)
 .debug_abbrev  0x00010f4c       0xb2 c:/program files/microchip/xc32/v4.10/bin/bin/../../lib/gcc/pic32c/8.3.1/../../../../pic32c/lib/thumb/v7e-m+fp/hard\libc-musl.a(strrchr.o)
 .debug_abbrev  0x00010ffe       0xac c:/program files/microchip/xc32/v4.10/bin/bin/../../lib/gcc/pic32c/8.3.1/../../../../pic32c/lib/thumb/v7e-m+fp/hard\libc-musl.a(strtok.o)
 .debug_abbrev  0x000110aa       0xd3 c:/program files/microchip/xc32/v4.10/bin/bin/../../lib/gcc/pic32c/8.3.1/../../../../pic32c/lib/thumb/v7e-m+fp/hard\libc-musl.a(gmtime.o)
 .debug_abbrev  0x0001117d       0xd2 c:/program files/microchip/xc32/v4.10/bin/bin/../../lib/gcc/pic32c/8.3.1/../../../../pic32c/lib/thumb/v7e-m+fp/hard\libc-musl.a(gmtime_r.o)
 .debug_abbrev  0x0001124f       0xc9 c:/program files/microchip/xc32/v4.10/bin/bin/../../lib/gcc/pic32c/8.3.1/../../../../pic32c/lib/thumb/v7e-m+fp/hard\libc-musl.a(time.o)
 .debug_abbrev  0x00011318       0x57 c:/program files/microchip/xc32/v4.10/bin/bin/../../lib/gcc/pic32c/8.3.1/../../../../pic32c/lib/thumb/v7e-m+fp/hard\libc-musl.a(__environ.o)
 .debug_abbrev  0x0001136f       0x2e c:/program files/microchip/xc32/v4.10/bin/bin/../../lib/gcc/pic32c/8.3.1/../../../../pic32c/lib/thumb/v7e-m+fp/hard\libc-musl.a(__errno_location.o)
 .debug_abbrev  0x0001139d      0x1cb c:/program files/microchip/xc32/v4.10/bin/bin/../../lib/gcc/pic32c/8.3.1/../../../../pic32c/lib/thumb/v7e-m+fp/hard\libc-musl.a(intscan.o)
 .debug_abbrev  0x00011568      0x14a c:/program files/microchip/xc32/v4.10/bin/bin/../../lib/gcc/pic32c/8.3.1/../../../../pic32c/lib/thumb/v7e-m+fp/hard\libc-musl.a(shgetc.o)
 .debug_abbrev  0x000116b2      0x125 c:/program files/microchip/xc32/v4.10/bin/bin/../../lib/gcc/pic32c/8.3.1/../../../../pic32c/lib/thumb/v7e-m+fp/hard\libc-musl.a(__uflow.o)
 .debug_abbrev  0x000117d7      0x16d c:/program files/microchip/xc32/v4.10/bin/bin/../../lib/gcc/pic32c/8.3.1/../../../../pic32c/lib/thumb/v7e-m+fp/hard\libc-musl.a(vfprintf.o)
 .debug_abbrev  0x00011944       0x92 c:/program files/microchip/xc32/v4.10/bin/bin/../../lib/gcc/pic32c/8.3.1/../../../../pic32c/lib/thumb/v7e-m+fp/hard\libc-musl.a(memrchr.o)
 .debug_abbrev  0x000119d6       0x63 c:/program files/microchip/xc32/v4.10/bin/bin/../../lib/gcc/pic32c/8.3.1/../../../../pic32c/lib/thumb/v7e-m+fp/hard\libc-musl.a(stpcpy.o)
 .debug_abbrev  0x00011a39       0x86 c:/program files/microchip/xc32/v4.10/bin/bin/../../lib/gcc/pic32c/8.3.1/../../../../pic32c/lib/thumb/v7e-m+fp/hard\libc-musl.a(stpncpy.o)
 .debug_abbrev  0x00011abf       0xf5 c:/program files/microchip/xc32/v4.10/bin/bin/../../lib/gcc/pic32c/8.3.1/../../../../pic32c/lib/thumb/v7e-m+fp/hard\libc-musl.a(strcspn.o)
 .debug_abbrev  0x00011bb4       0xd2 c:/program files/microchip/xc32/v4.10/bin/bin/../../lib/gcc/pic32c/8.3.1/../../../../pic32c/lib/thumb/v7e-m+fp/hard\libc-musl.a(strspn.o)
 .debug_abbrev  0x00011c86       0xbc c:/program files/microchip/xc32/v4.10/bin/bin/../../lib/gcc/pic32c/8.3.1/../../../../pic32c/lib/thumb/v7e-m+fp/hard\libc-musl.a(__secs_to_tm.o)
 .debug_abbrev  0x00011d42      0x140 c:/program files/microchip/xc32/v4.10/bin/bin/../../lib/gcc/pic32c/8.3.1/../../../../pic32c/lib/thumb/v7e-m+fp/hard\libc-musl.a(clock_gettime.o)
 .debug_abbrev  0x00011e82       0xa3 c:/program files/microchip/xc32/v4.10/bin/bin/../../lib/gcc/pic32c/8.3.1/../../../../pic32c/lib/thumb/v7e-m+fp/hard\libc-musl.a(gettimeofday.o)
 .debug_abbrev  0x00011f25       0x66 c:/program files/microchip/xc32/v4.10/bin/bin/../../lib/gcc/pic32c/8.3.1/../../../../pic32c/lib/thumb/v7e-m+fp/hard\libc-musl.a(syscall_ret.o)
 .debug_abbrev  0x00011f8b      0x12f c:/program files/microchip/xc32/v4.10/bin/bin/../../lib/gcc/pic32c/8.3.1/../../../../pic32c/lib/thumb/v7e-m+fp/hard\libc-musl.a(__toread.o)
 .debug_abbrev  0x000120ba      0x2c5 c:/program files/microchip/xc32/v4.10/bin/bin/../../lib/gcc/pic32c/8.3.1/../../../../pic32c/lib/thumb/v7e-m+fp/hard\libc-musl.a(__printf_core.o)
 .debug_abbrev  0x0001237f      0x194 c:/program files/microchip/xc32/v4.10/bin/bin/../../lib/gcc/pic32c/8.3.1/../../../../pic32c/lib/thumb/v7e-m+fp/hard\libc-musl.a(__fmt_a.o)
 .debug_abbrev  0x00012513      0x120 c:/program files/microchip/xc32/v4.10/bin/bin/../../lib/gcc/pic32c/8.3.1/../../../../pic32c/lib/thumb/v7e-m+fp/hard\libc-musl.a(__fmt_d.o)
 .debug_abbrev  0x00012633      0x1b3 c:/program files/microchip/xc32/v4.10/bin/bin/../../lib/gcc/pic32c/8.3.1/../../../../pic32c/lib/thumb/v7e-m+fp/hard\libc-musl.a(__fmt_fp.o)
 .debug_abbrev  0x000127e6      0x120 c:/program files/microchip/xc32/v4.10/bin/bin/../../lib/gcc/pic32c/8.3.1/../../../../pic32c/lib/thumb/v7e-m+fp/hard\libc-musl.a(__fmt_o.o)
 .debug_abbrev  0x00012906      0x10b c:/program files/microchip/xc32/v4.10/bin/bin/../../lib/gcc/pic32c/8.3.1/../../../../pic32c/lib/thumb/v7e-m+fp/hard\libc-musl.a(__fmt_s.o)
 .debug_abbrev  0x00012a11      0x163 c:/program files/microchip/xc32/v4.10/bin/bin/../../lib/gcc/pic32c/8.3.1/../../../../pic32c/lib/thumb/v7e-m+fp/hard\libc-musl.a(__fmt_u.o)
 .debug_abbrev  0x00012b74      0x10f c:/program files/microchip/xc32/v4.10/bin/bin/../../lib/gcc/pic32c/8.3.1/../../../../pic32c/lib/thumb/v7e-m+fp/hard\libc-musl.a(__fmt_x.o)
 .debug_abbrev  0x00012c83       0xbd c:/program files/microchip/xc32/v4.10/bin/bin/../../lib/gcc/pic32c/8.3.1/../../../../pic32c/lib/thumb/v7e-m+fp/hard\libc-musl.a(__pop_float.o)
 .debug_abbrev  0x00012d40       0xbd c:/program files/microchip/xc32/v4.10/bin/bin/../../lib/gcc/pic32c/8.3.1/../../../../pic32c/lib/thumb/v7e-m+fp/hard\libc-musl.a(__pop_int.o)
 .debug_abbrev  0x00012dfd       0xce c:/program files/microchip/xc32/v4.10/bin/bin/../../lib/gcc/pic32c/8.3.1/../../../../pic32c/lib/thumb/v7e-m+fp/hard\libc-musl.a(__pop_ptr.o)
 .debug_abbrev  0x00012ecb       0x14 c:/program files/microchip/xc32/v4.10/bin/bin/../../lib/gcc/pic32c/8.3.1/thumb/v7e-m+fp/hard\libgcc.a(_aeabi_ldivmod.o)
 .debug_abbrev  0x00012edf       0x14 c:/program files/microchip/xc32/v4.10/bin/bin/../../lib/gcc/pic32c/8.3.1/thumb/v7e-m+fp/hard\libgcc.a(_aeabi_uldivmod.o)
 .debug_abbrev  0x00012ef3       0xf2 c:/program files/microchip/xc32/v4.10/bin/bin/../../lib/gcc/pic32c/8.3.1/thumb/v7e-m+fp/hard\libgcc.a(_udivmoddi4.o)
 .debug_abbrev  0x00012fe5       0x14 c:/program files/microchip/xc32/v4.10/bin/bin/../../lib/gcc/pic32c/8.3.1/thumb/v7e-m+fp/hard\libgcc.a(_dvmd_tls.o)
 .debug_abbrev  0x00012ff9       0x2e c:/program files/microchip/xc32/v4.10/bin/bin/../../lib/gcc/pic32c/8.3.1/../../../../pic32c/lib/thumb/v7e-m+fp/hard\libpic32c.a(sbrk.o)

.debug_loc      0x00000000    0xa929f
 .debug_loc     0x00000000     0x334c build/FreeRTOS/production/_ext/1609394304/crypto.o
 .debug_loc     0x0000334c     0x546b build/FreeRTOS/production/_ext/1231519722/drv_ethphy.o
 .debug_loc     0x000087b7     0x133e build/FreeRTOS/production/_ext/1231519722/drv_extphy_lan867x.o
 .debug_loc     0x00009af5     0x3185 build/FreeRTOS/production/_ext/41526634/drv_gmac.o
 .debug_loc     0x0000cc7a     0x353d build/FreeRTOS/production/_ext/41526634/drv_gmac_lib_samE5x.o
 .debug_loc     0x000101b7     0x2984 build/FreeRTOS/production/_ext/1149484450/drv_miim.o
 .debug_loc     0x00012b3b      0x568 build/FreeRTOS/production/_ext/540595297/helpers.o
 .debug_loc     0x000130a3      0xc96 build/FreeRTOS/production/_ext/540595297/icmp.o
 .debug_loc     0x00013d39     0x82d5 build/FreeRTOS/production/_ext/540595297/tcp.o
 .debug_loc     0x0001c00e     0x3b51 build/FreeRTOS/production/_ext/540595297/arp.o
 .debug_loc     0x0001fb5f     0x3324 build/FreeRTOS/production/_ext/540595297/tcpip_commands.o
 .debug_loc     0x00022e83     0x23b9 build/FreeRTOS/production/_ext/540595297/iperf.o
 .debug_loc     0x0002523c     0x2f72 build/FreeRTOS/production/_ext/540595297/ipv4.o
 .debug_loc     0x000281ae      0x24c build/FreeRTOS/production/_ext/540595297/tcpip_heap_alloc.o
 .debug_loc     0x000283fa     0x1006 build/FreeRTOS/production/_ext/540595297/tcpip_heap_internal.o
 .debug_loc     0x00029400     0x418d build/FreeRTOS/production/_ext/540595297/dhcp.o
 .debug_loc     0x0002d58d     0x40ae build/FreeRTOS/production/_ext/540595297/dns.o
 .debug_loc     0x0003163b      0x21b build/FreeRTOS/production/_ext/540595297/hash_fnv.o
 .debug_loc     0x00031856      0x5f3 build/FreeRTOS/production/_ext/540595297/oahash.o
 .debug_loc     0x00031e49     0x388e build/FreeRTOS/production/_ext/540595297/tcpip_helpers.o
 .debug_loc     0x000356d7     0x7b7c build/FreeRTOS/production/_ext/540595297/tcpip_manager.o
 .debug_loc     0x0003d253      0x458 build/FreeRTOS/production/_ext/540595297/tcpip_notify.o
 .debug_loc     0x0003d6ab      0xbe6 build/FreeRTOS/production/_ext/540595297/tcpip_packet.o
 .debug_loc     0x0003e291     0x4e3d build/FreeRTOS/production/_ext/540595297/udp.o
 .debug_loc     0x000430ce      0x727 build/FreeRTOS/production/_ext/891571577/osal_freertos.o
 .debug_loc     0x000437f5      0x264 build/FreeRTOS/production/_ext/1494909205/plib_nvic.o
 .debug_loc     0x00043a59      0x868 build/FreeRTOS/production/_ext/320424729/plib_nvmctrl.o
 .debug_loc     0x000442c1      0x1e8 build/FreeRTOS/production/_ext/1494856054/plib_port.o
 .debug_loc     0x000444a9      0xe87 build/FreeRTOS/production/_ext/2092608928/plib_sercom1_usart.o
 .debug_loc     0x00045330       0x5f build/FreeRTOS/production/_ext/579449528/plib_tc0.o
 .debug_loc     0x0004538f     0x19f8 build/FreeRTOS/production/_ext/1005353002/sys_command.o
 .debug_loc     0x00046d87      0x852 build/FreeRTOS/production/_ext/548640822/sys_console_uart.o
 .debug_loc     0x000475d9      0xc61 build/FreeRTOS/production/_ext/548640822/sys_console.o
 .debug_loc     0x0004823a       0xa1 build/FreeRTOS/production/_ext/147610190/sys_debug.o
 .debug_loc     0x000482db      0x182 build/FreeRTOS/production/_ext/1690414130/sys_int.o
 .debug_loc     0x0004845d     0x22ac build/FreeRTOS/production/_ext/832704728/sys_time.o
 .debug_loc     0x0004a709      0x152 build/FreeRTOS/production/_ext/2072568807/sys_time_h2_adapter.o
 .debug_loc     0x0004a85b      0x4c3 build/FreeRTOS/production/_ext/2072568807/sys_random_h2_adapter.o
 .debug_loc     0x0004ad1e      0x20e build/FreeRTOS/production/_ext/161576091/tasks.o
 .debug_loc     0x0004af2c       0x9d build/FreeRTOS/production/_ext/161576091/initialization.o
 .debug_loc     0x0004afc9       0x4a build/FreeRTOS/production/_ext/161576091/startup_xc32.o
 .debug_loc     0x0004b013       0x82 build/FreeRTOS/production/_ext/161576091/freertos_hooks.o
 .debug_loc     0x0004b095      0x13a build/FreeRTOS/production/_ext/246609638/port.o
 .debug_loc     0x0004b1cf       0x8f build/FreeRTOS/production/_ext/1665200909/heap_1.o
 .debug_loc     0x0004b25e       0xb2 build/FreeRTOS/production/_ext/404212886/list.o
 .debug_loc     0x0004b310     0x191e build/FreeRTOS/production/_ext/404212886/queue.o
 .debug_loc     0x0004cc2e     0x2667 build/FreeRTOS/production/_ext/404212886/FreeRTOS_tasks.o
 .debug_loc     0x0004f295       0x45 build/FreeRTOS/production/_ext/172253694/crypt_wolfcryptcb.o
 .debug_loc     0x0004f2da     0xefeb build/FreeRTOS/production/_ext/1664057780/asn.o
 .debug_loc     0x0005e2c5      0xbeb build/FreeRTOS/production/_ext/1664057780/coding.o
 .debug_loc     0x0005eeb0     0x30a8 build/FreeRTOS/production/_ext/1664057780/cryptocb.o
 .debug_loc     0x00061f58     0x1af2 build/FreeRTOS/production/_ext/1664057780/hash.o
 .debug_loc     0x00063a4a     0x128b build/FreeRTOS/production/_ext/1664057780/hmac.o
 .debug_loc     0x00064cd5     0x2df9 build/FreeRTOS/production/_ext/1664057780/md5.o
 .debug_loc     0x00067ace     0x50ef build/FreeRTOS/production/_ext/1664057780/rsa.o
 .debug_loc     0x0006cbbd     0xb2b6 build/FreeRTOS/production/_ext/1664057780/tfm.o
 .debug_loc     0x00077e73      0x7a0 build/FreeRTOS/production/_ext/1664057780/wc_port.o
 .debug_loc     0x00078613      0x54c build/FreeRTOS/production/_ext/1664057780/wolfmath.o
 .debug_loc     0x00078b5f     0xb7d0 build/FreeRTOS/production/_ext/1664057780/aes.o
 .debug_loc     0x0008432f     0x748b build/FreeRTOS/production/_ext/1664057780/des3.o
 .debug_loc     0x0008b7ba     0x2994 build/FreeRTOS/production/_ext/1664057780/random.o
 .debug_loc     0x0008e14e     0x6988 build/FreeRTOS/production/_ext/1664057780/sha.o
 .debug_loc     0x00094ad6     0x28c9 build/FreeRTOS/production/_ext/1664057780/sha256.o
 .debug_loc     0x0009739f     0xa52e build/FreeRTOS/production/_ext/1664057780/ecc.o
 .debug_loc     0x000a18cd      0x4c5 build/FreeRTOS/production/_ext/1360937237/app.o
 .debug_loc     0x000a1d92       0x20 build/FreeRTOS/production/_ext/1360937237/main.o
 .debug_loc     0x000a1db2      0x107 build/FreeRTOS/production/_ext/1360937237/bc_com.o
 .debug_loc     0x000a1eb9      0x81b build/FreeRTOS/production/_ext/1360937237/bc_test.o
 .debug_loc     0x000a26d4       0x14 c:/program files/microchip/xc32/v4.10/bin/bin/../../lib/gcc/pic32c/8.3.1/../../../../pic32c/lib/thumb/v7e-m+fp/hard\libpic32c.a(data_init.o)
 .debug_loc     0x000a26e8       0x76 c:/program files/microchip/xc32/v4.10/bin/bin/../../lib/gcc/pic32c/8.3.1/../../../../pic32c/lib/thumb/v7e-m+fp/hard\libc-musl.a(isalnum.o)
 .debug_loc     0x000a275e       0x65 c:/program files/microchip/xc32/v4.10/bin/bin/../../lib/gcc/pic32c/8.3.1/../../../../pic32c/lib/thumb/v7e-m+fp/hard\libc-musl.a(isxdigit.o)
 .debug_loc     0x000a27c3       0x4a c:/program files/microchip/xc32/v4.10/bin/bin/../../lib/gcc/pic32c/8.3.1/../../../../pic32c/lib/thumb/v7e-m+fp/hard\libc-musl.a(tolower.o)
 .debug_loc     0x000a280d       0x4a c:/program files/microchip/xc32/v4.10/bin/bin/../../lib/gcc/pic32c/8.3.1/../../../../pic32c/lib/thumb/v7e-m+fp/hard\libc-musl.a(toupper.o)
 .debug_loc     0x000a2857       0x51 c:/program files/microchip/xc32/v4.10/bin/bin/../../lib/gcc/pic32c/8.3.1/../../../../pic32c/lib/thumb/v7e-m+fp/hard\libc-musl.a(__libc_start_main.o)
 .debug_loc     0x000a28a8      0xccc c:/program files/microchip/xc32/v4.10/bin/bin/../../lib/gcc/pic32c/8.3.1/../../../../pic32c/lib/thumb/v7e-m+fp/hard\libc-musl.a(malloc.o)
 .debug_loc     0x000a3574       0x7c c:/program files/microchip/xc32/v4.10/bin/bin/../../lib/gcc/pic32c/8.3.1/../../../../pic32c/lib/thumb/v7e-m+fp/hard\libc-musl.a(expand_heap.o)
 .debug_loc     0x000a35f0       0x24 c:/program files/microchip/xc32/v4.10/bin/bin/../../lib/gcc/pic32c/8.3.1/../../../../pic32c/lib/thumb/v7e-m+fp/hard\libc-musl.a(rand.o)
 .debug_loc     0x000a3614       0xeb c:/program files/microchip/xc32/v4.10/bin/bin/../../lib/gcc/pic32c/8.3.1/../../../../pic32c/lib/thumb/v7e-m+fp/hard\libc-musl.a(vsnprintf.o)
 .debug_loc     0x000a36ff       0xaf c:/program files/microchip/xc32/v4.10/bin/bin/../../lib/gcc/pic32c/8.3.1/../../../../pic32c/lib/thumb/v7e-m+fp/hard\libc-musl.a(snprintf.o)
 .debug_loc     0x000a37ae       0x8a c:/program files/microchip/xc32/v4.10/bin/bin/../../lib/gcc/pic32c/8.3.1/../../../../pic32c/lib/thumb/v7e-m+fp/hard\libc-musl.a(sprintf.o)
 .debug_loc     0x000a3838       0x6c c:/program files/microchip/xc32/v4.10/bin/bin/../../lib/gcc/pic32c/8.3.1/../../../../pic32c/lib/thumb/v7e-m+fp/hard\libc-musl.a(vsprintf.o)
 .debug_loc     0x000a38a4       0xd8 c:/program files/microchip/xc32/v4.10/bin/bin/../../lib/gcc/pic32c/8.3.1/../../../../pic32c/lib/thumb/v7e-m+fp/hard\libc-musl.a(atoi.o)
 .debug_loc     0x000a397c      0x440 c:/program files/microchip/xc32/v4.10/bin/bin/../../lib/gcc/pic32c/8.3.1/../../../../pic32c/lib/thumb/v7e-m+fp/hard\libc-musl.a(strtol.o)
 .debug_loc     0x000a3dbc      0x10c c:/program files/microchip/xc32/v4.10/bin/bin/../../lib/gcc/pic32c/8.3.1/../../../../pic32c/lib/thumb/v7e-m+fp/hard\libc-musl.a(memcmp.o)
 .debug_loc     0x000a3ec8       0xba c:/program files/microchip/xc32/v4.10/bin/bin/../../lib/gcc/pic32c/8.3.1/../../../../pic32c/lib/thumb/v7e-m+fp/hard\libc-musl.a(memcpy.o)
 .debug_loc     0x000a3f82      0x1af c:/program files/microchip/xc32/v4.10/bin/bin/../../lib/gcc/pic32c/8.3.1/../../../../pic32c/lib/thumb/v7e-m+fp/hard\libc-musl.a(memmove.o)
 .debug_loc     0x000a4131       0x56 c:/program files/microchip/xc32/v4.10/bin/bin/../../lib/gcc/pic32c/8.3.1/../../../../pic32c/lib/thumb/v7e-m+fp/hard\libc-musl.a(memset.o)
 .debug_loc     0x000a4187       0x47 c:/program files/microchip/xc32/v4.10/bin/bin/../../lib/gcc/pic32c/8.3.1/../../../../pic32c/lib/thumb/v7e-m+fp/hard\libc-musl.a(strlen.o)
 .debug_loc     0x000a41ce       0x8c c:/program files/microchip/xc32/v4.10/bin/bin/../../lib/gcc/pic32c/8.3.1/../../../../pic32c/lib/thumb/v7e-m+fp/hard\libc-musl.a(strchr.o)
 .debug_loc     0x000a425a      0x14c c:/program files/microchip/xc32/v4.10/bin/bin/../../lib/gcc/pic32c/8.3.1/../../../../pic32c/lib/thumb/v7e-m+fp/hard\libc-musl.a(strchrnul.o)
 .debug_loc     0x000a43a6       0x76 c:/program files/microchip/xc32/v4.10/bin/bin/../../lib/gcc/pic32c/8.3.1/../../../../pic32c/lib/thumb/v7e-m+fp/hard\libc-musl.a(strcmp.o)
 .debug_loc     0x000a441c       0x67 c:/program files/microchip/xc32/v4.10/bin/bin/../../lib/gcc/pic32c/8.3.1/../../../../pic32c/lib/thumb/v7e-m+fp/hard\libc-musl.a(strcpy.o)
 .debug_loc     0x000a4483      0x1a6 c:/program files/microchip/xc32/v4.10/bin/bin/../../lib/gcc/pic32c/8.3.1/../../../../pic32c/lib/thumb/v7e-m+fp/hard\libc-musl.a(strncmp.o)
 .debug_loc     0x000a4629       0x8c c:/program files/microchip/xc32/v4.10/bin/bin/../../lib/gcc/pic32c/8.3.1/../../../../pic32c/lib/thumb/v7e-m+fp/hard\libc-musl.a(strncpy.o)
 .debug_loc     0x000a46b5       0xaa c:/program files/microchip/xc32/v4.10/bin/bin/../../lib/gcc/pic32c/8.3.1/../../../../pic32c/lib/thumb/v7e-m+fp/hard\libc-musl.a(strrchr.o)
 .debug_loc     0x000a475f       0x71 c:/program files/microchip/xc32/v4.10/bin/bin/../../lib/gcc/pic32c/8.3.1/../../../../pic32c/lib/thumb/v7e-m+fp/hard\libc-musl.a(strtok.o)
 .debug_loc     0x000a47d0       0x25 c:/program files/microchip/xc32/v4.10/bin/bin/../../lib/gcc/pic32c/8.3.1/../../../../pic32c/lib/thumb/v7e-m+fp/hard\libc-musl.a(gmtime.o)
 .debug_loc     0x000a47f5       0x84 c:/program files/microchip/xc32/v4.10/bin/bin/../../lib/gcc/pic32c/8.3.1/../../../../pic32c/lib/thumb/v7e-m+fp/hard\libc-musl.a(gmtime_r.o)
 .debug_loc     0x000a4879       0x4e c:/program files/microchip/xc32/v4.10/bin/bin/../../lib/gcc/pic32c/8.3.1/../../../../pic32c/lib/thumb/v7e-m+fp/hard\libc-musl.a(time.o)
 .debug_loc     0x000a48c7      0x5f2 c:/program files/microchip/xc32/v4.10/bin/bin/../../lib/gcc/pic32c/8.3.1/../../../../pic32c/lib/thumb/v7e-m+fp/hard\libc-musl.a(intscan.o)
 .debug_loc     0x000a4eb9       0x77 c:/program files/microchip/xc32/v4.10/bin/bin/../../lib/gcc/pic32c/8.3.1/../../../../pic32c/lib/thumb/v7e-m+fp/hard\libc-musl.a(shgetc.o)
 .debug_loc     0x000a4f30       0x5a c:/program files/microchip/xc32/v4.10/bin/bin/../../lib/gcc/pic32c/8.3.1/../../../../pic32c/lib/thumb/v7e-m+fp/hard\libc-musl.a(__uflow.o)
 .debug_loc     0x000a4f8a       0x88 c:/program files/microchip/xc32/v4.10/bin/bin/../../lib/gcc/pic32c/8.3.1/../../../../pic32c/lib/thumb/v7e-m+fp/hard\libc-musl.a(vfprintf.o)
 .debug_loc     0x000a5012       0xc6 c:/program files/microchip/xc32/v4.10/bin/bin/../../lib/gcc/pic32c/8.3.1/../../../../pic32c/lib/thumb/v7e-m+fp/hard\libc-musl.a(memrchr.o)
 .debug_loc     0x000a50d8       0x60 c:/program files/microchip/xc32/v4.10/bin/bin/../../lib/gcc/pic32c/8.3.1/../../../../pic32c/lib/thumb/v7e-m+fp/hard\libc-musl.a(stpcpy.o)
 .debug_loc     0x000a5138      0x15b c:/program files/microchip/xc32/v4.10/bin/bin/../../lib/gcc/pic32c/8.3.1/../../../../pic32c/lib/thumb/v7e-m+fp/hard\libc-musl.a(stpncpy.o)
 .debug_loc     0x000a5293      0x13d c:/program files/microchip/xc32/v4.10/bin/bin/../../lib/gcc/pic32c/8.3.1/../../../../pic32c/lib/thumb/v7e-m+fp/hard\libc-musl.a(strcspn.o)
 .debug_loc     0x000a53d0      0x13f c:/program files/microchip/xc32/v4.10/bin/bin/../../lib/gcc/pic32c/8.3.1/../../../../pic32c/lib/thumb/v7e-m+fp/hard\libc-musl.a(strspn.o)
 .debug_loc     0x000a550f      0x301 c:/program files/microchip/xc32/v4.10/bin/bin/../../lib/gcc/pic32c/8.3.1/../../../../pic32c/lib/thumb/v7e-m+fp/hard\libc-musl.a(__secs_to_tm.o)
 .debug_loc     0x000a5810       0xe6 c:/program files/microchip/xc32/v4.10/bin/bin/../../lib/gcc/pic32c/8.3.1/../../../../pic32c/lib/thumb/v7e-m+fp/hard\libc-musl.a(clock_gettime.o)
 .debug_loc     0x000a58f6       0x25 c:/program files/microchip/xc32/v4.10/bin/bin/../../lib/gcc/pic32c/8.3.1/../../../../pic32c/lib/thumb/v7e-m+fp/hard\libc-musl.a(gettimeofday.o)
 .debug_loc     0x000a591b       0x25 c:/program files/microchip/xc32/v4.10/bin/bin/../../lib/gcc/pic32c/8.3.1/../../../../pic32c/lib/thumb/v7e-m+fp/hard\libc-musl.a(syscall_ret.o)
 .debug_loc     0x000a5940       0x42 c:/program files/microchip/xc32/v4.10/bin/bin/../../lib/gcc/pic32c/8.3.1/../../../../pic32c/lib/thumb/v7e-m+fp/hard\libc-musl.a(__toread.o)
 .debug_loc     0x000a5982      0x638 c:/program files/microchip/xc32/v4.10/bin/bin/../../lib/gcc/pic32c/8.3.1/../../../../pic32c/lib/thumb/v7e-m+fp/hard\libc-musl.a(__printf_core.o)
 .debug_loc     0x000a5fba      0xac1 c:/program files/microchip/xc32/v4.10/bin/bin/../../lib/gcc/pic32c/8.3.1/../../../../pic32c/lib/thumb/v7e-m+fp/hard\libc-musl.a(__fmt_a.o)
 .debug_loc     0x000a6a7b      0x1ef c:/program files/microchip/xc32/v4.10/bin/bin/../../lib/gcc/pic32c/8.3.1/../../../../pic32c/lib/thumb/v7e-m+fp/hard\libc-musl.a(__fmt_d.o)
 .debug_loc     0x000a6c6a      0xa7e c:/program files/microchip/xc32/v4.10/bin/bin/../../lib/gcc/pic32c/8.3.1/../../../../pic32c/lib/thumb/v7e-m+fp/hard\libc-musl.a(__fmt_fp.o)
 .debug_loc     0x000a76e8      0x10a c:/program files/microchip/xc32/v4.10/bin/bin/../../lib/gcc/pic32c/8.3.1/../../../../pic32c/lib/thumb/v7e-m+fp/hard\libc-musl.a(__fmt_o.o)
 .debug_loc     0x000a77f2      0x157 c:/program files/microchip/xc32/v4.10/bin/bin/../../lib/gcc/pic32c/8.3.1/../../../../pic32c/lib/thumb/v7e-m+fp/hard\libc-musl.a(__fmt_s.o)
 .debug_loc     0x000a7949      0x2a2 c:/program files/microchip/xc32/v4.10/bin/bin/../../lib/gcc/pic32c/8.3.1/../../../../pic32c/lib/thumb/v7e-m+fp/hard\libc-musl.a(__fmt_u.o)
 .debug_loc     0x000a7beb      0x2a8 c:/program files/microchip/xc32/v4.10/bin/bin/../../lib/gcc/pic32c/8.3.1/../../../../pic32c/lib/thumb/v7e-m+fp/hard\libc-musl.a(__fmt_x.o)
 .debug_loc     0x000a7e93       0xa6 c:/program files/microchip/xc32/v4.10/bin/bin/../../lib/gcc/pic32c/8.3.1/../../../../pic32c/lib/thumb/v7e-m+fp/hard\libc-musl.a(__pop_float.o)
 .debug_loc     0x000a7f39      0x312 c:/program files/microchip/xc32/v4.10/bin/bin/../../lib/gcc/pic32c/8.3.1/../../../../pic32c/lib/thumb/v7e-m+fp/hard\libc-musl.a(__pop_int.o)
 .debug_loc     0x000a824b      0x1db c:/program files/microchip/xc32/v4.10/bin/bin/../../lib/gcc/pic32c/8.3.1/../../../../pic32c/lib/thumb/v7e-m+fp/hard\libc-musl.a(__pop_ptr.o)
 .debug_loc     0x000a8426      0xe79 c:/program files/microchip/xc32/v4.10/bin/bin/../../lib/gcc/pic32c/8.3.1/thumb/v7e-m+fp/hard\libgcc.a(_udivmoddi4.o)

.debug_aranges  0x00000000     0x1230
 .debug_aranges
                0x00000000       0x20 build/FreeRTOS/production/_ext/1609394304/crypto.o
 .debug_aranges
                0x00000020       0x20 build/FreeRTOS/production/_ext/1231519722/drv_ethphy.o
 .debug_aranges
                0x00000040       0x20 build/FreeRTOS/production/_ext/1231519722/drv_extphy_lan867x.o
 .debug_aranges
                0x00000060       0x20 build/FreeRTOS/production/_ext/41526634/drv_gmac.o
 .debug_aranges
                0x00000080       0x20 build/FreeRTOS/production/_ext/41526634/drv_gmac_lib_samE5x.o
 .debug_aranges
                0x000000a0       0x20 build/FreeRTOS/production/_ext/1149484450/drv_miim.o
 .debug_aranges
                0x000000c0       0x20 build/FreeRTOS/production/_ext/540595297/helpers.o
 .debug_aranges
                0x000000e0       0x20 build/FreeRTOS/production/_ext/540595297/icmp.o
 .debug_aranges
                0x00000100       0x20 build/FreeRTOS/production/_ext/540595297/tcp.o
 .debug_aranges
                0x00000120       0x20 build/FreeRTOS/production/_ext/540595297/arp.o
 .debug_aranges
                0x00000140       0x20 build/FreeRTOS/production/_ext/540595297/tcpip_commands.o
 .debug_aranges
                0x00000160       0x20 build/FreeRTOS/production/_ext/540595297/iperf.o
 .debug_aranges
                0x00000180       0x20 build/FreeRTOS/production/_ext/540595297/ipv4.o
 .debug_aranges
                0x000001a0       0x20 build/FreeRTOS/production/_ext/540595297/tcpip_heap_alloc.o
 .debug_aranges
                0x000001c0       0x20 build/FreeRTOS/production/_ext/540595297/tcpip_heap_internal.o
 .debug_aranges
                0x000001e0       0x20 build/FreeRTOS/production/_ext/540595297/dhcp.o
 .debug_aranges
                0x00000200       0x20 build/FreeRTOS/production/_ext/540595297/dns.o
 .debug_aranges
                0x00000220       0x20 build/FreeRTOS/production/_ext/540595297/hash_fnv.o
 .debug_aranges
                0x00000240       0x20 build/FreeRTOS/production/_ext/540595297/oahash.o
 .debug_aranges
                0x00000260       0x20 build/FreeRTOS/production/_ext/540595297/tcpip_helpers.o
 .debug_aranges
                0x00000280       0x20 build/FreeRTOS/production/_ext/540595297/tcpip_manager.o
 .debug_aranges
                0x000002a0       0x20 build/FreeRTOS/production/_ext/540595297/tcpip_notify.o
 .debug_aranges
                0x000002c0       0x20 build/FreeRTOS/production/_ext/540595297/tcpip_packet.o
 .debug_aranges
                0x000002e0       0x20 build/FreeRTOS/production/_ext/540595297/udp.o
 .debug_aranges
                0x00000300       0x20 build/FreeRTOS/production/_ext/891571577/osal_freertos.o
 .debug_aranges
                0x00000320       0x20 build/FreeRTOS/production/_ext/892004133/plib_clock.o
 .debug_aranges
                0x00000340       0x20 build/FreeRTOS/production/_ext/894153619/plib_evsys.o
 .debug_aranges
                0x00000360       0x20 build/FreeRTOS/production/_ext/1494909205/plib_nvic.o
 .debug_aranges
                0x00000380       0x20 build/FreeRTOS/production/_ext/320424729/plib_nvmctrl.o
 .debug_aranges
                0x000003a0       0x20 build/FreeRTOS/production/_ext/1494856054/plib_port.o
 .debug_aranges
                0x000003c0       0x20 build/FreeRTOS/production/_ext/2092608928/plib_sercom1_usart.o
 .debug_aranges
                0x000003e0       0x20 build/FreeRTOS/production/_ext/579449528/plib_tc0.o
 .debug_aranges
                0x00000400       0x20 build/FreeRTOS/production/_ext/1494734144/plib_trng.o
 .debug_aranges
                0x00000420       0x20 build/FreeRTOS/production/_ext/1005353002/sys_command.o
 .debug_aranges
                0x00000440       0x20 build/FreeRTOS/production/_ext/548640822/sys_console_uart.o
 .debug_aranges
                0x00000460       0x20 build/FreeRTOS/production/_ext/548640822/sys_console.o
 .debug_aranges
                0x00000480       0x20 build/FreeRTOS/production/_ext/147610190/sys_debug.o
 .debug_aranges
                0x000004a0       0x20 build/FreeRTOS/production/_ext/1690414130/sys_int.o
 .debug_aranges
                0x000004c0       0x20 build/FreeRTOS/production/_ext/1093154855/sys_reset.o
 .debug_aranges
                0x000004e0       0x20 build/FreeRTOS/production/_ext/832704728/sys_time.o
 .debug_aranges
                0x00000500       0x20 build/FreeRTOS/production/_ext/2072568807/sys_time_h2_adapter.o
 .debug_aranges
                0x00000520       0x20 build/FreeRTOS/production/_ext/2072568807/sys_random_h2_adapter.o
 .debug_aranges
                0x00000540       0x20 build/FreeRTOS/production/_ext/161576091/tasks.o
 .debug_aranges
                0x00000560       0x20 build/FreeRTOS/production/_ext/161576091/initialization.o
 .debug_aranges
                0x00000580       0x20 build/FreeRTOS/production/_ext/161576091/interrupts.o
 .debug_aranges
                0x000005a0       0x20 build/FreeRTOS/production/_ext/161576091/exceptions.o
 .debug_aranges
                0x000005c0       0x28 build/FreeRTOS/production/_ext/161576091/startup_xc32.o
 .debug_aranges
                0x000005e8       0x20 build/FreeRTOS/production/_ext/161576091/freertos_hooks.o
 .debug_aranges
                0x00000608       0x20 build/FreeRTOS/production/_ext/246609638/port.o
 .debug_aranges
                0x00000628       0x20 build/FreeRTOS/production/_ext/1665200909/heap_1.o
 .debug_aranges
                0x00000648       0x20 build/FreeRTOS/production/_ext/404212886/list.o
 .debug_aranges
                0x00000668       0x20 build/FreeRTOS/production/_ext/404212886/queue.o
 .debug_aranges
                0x00000688       0x20 build/FreeRTOS/production/_ext/404212886/FreeRTOS_tasks.o
 .debug_aranges
                0x000006a8       0x20 build/FreeRTOS/production/_ext/172253694/crypt_wolfcryptcb.o
 .debug_aranges
                0x000006c8       0x20 build/FreeRTOS/production/_ext/1664057780/asn.o
 .debug_aranges
                0x000006e8       0x20 build/FreeRTOS/production/_ext/1664057780/coding.o
 .debug_aranges
                0x00000708       0x20 build/FreeRTOS/production/_ext/1664057780/cryptocb.o
 .debug_aranges
                0x00000728       0x20 build/FreeRTOS/production/_ext/1664057780/hash.o
 .debug_aranges
                0x00000748       0x20 build/FreeRTOS/production/_ext/1664057780/hmac.o
 .debug_aranges
                0x00000768       0x20 build/FreeRTOS/production/_ext/1664057780/md5.o
 .debug_aranges
                0x00000788       0x20 build/FreeRTOS/production/_ext/1664057780/rsa.o
 .debug_aranges
                0x000007a8       0x20 build/FreeRTOS/production/_ext/1664057780/tfm.o
 .debug_aranges
                0x000007c8       0x20 build/FreeRTOS/production/_ext/1664057780/wc_port.o
 .debug_aranges
                0x000007e8       0x20 build/FreeRTOS/production/_ext/1664057780/wolfmath.o
 .debug_aranges
                0x00000808       0x20 build/FreeRTOS/production/_ext/1664057780/aes.o
 .debug_aranges
                0x00000828       0x20 build/FreeRTOS/production/_ext/1664057780/des3.o
 .debug_aranges
                0x00000848       0x20 build/FreeRTOS/production/_ext/1664057780/random.o
 .debug_aranges
                0x00000868       0x20 build/FreeRTOS/production/_ext/1664057780/sha.o
 .debug_aranges
                0x00000888       0x20 build/FreeRTOS/production/_ext/1664057780/sha256.o
 .debug_aranges
                0x000008a8       0x20 build/FreeRTOS/production/_ext/1664057780/ecc.o
 .debug_aranges
                0x000008c8       0x20 build/FreeRTOS/production/_ext/1360937237/app.o
 .debug_aranges
                0x000008e8       0x20 build/FreeRTOS/production/_ext/1360937237/main.o
 .debug_aranges
                0x00000908       0x20 build/FreeRTOS/production/_ext/1360937237/bc_com.o
 .debug_aranges
                0x00000928       0x20 build/FreeRTOS/production/_ext/1360937237/bc_test.o
 .debug_aranges
                0x00000948       0x20 c:/program files/microchip/xc32/v4.10/bin/bin/../../lib/gcc/pic32c/8.3.1/../../../../pic32c/lib/thumb/v7e-m+fp/hard\libpic32c.a(data_init.o)
 .debug_aranges
                0x00000968       0x28 c:/program files/microchip/xc32/v4.10/bin/bin/../../lib/gcc/pic32c/8.3.1/../../../../pic32c/lib/thumb/v7e-m+fp/hard\libc-musl.a(isalnum.o)
 .debug_aranges
                0x00000990       0x28 c:/program files/microchip/xc32/v4.10/bin/bin/../../lib/gcc/pic32c/8.3.1/../../../../pic32c/lib/thumb/v7e-m+fp/hard\libc-musl.a(isxdigit.o)
 .debug_aranges
                0x000009b8       0x28 c:/program files/microchip/xc32/v4.10/bin/bin/../../lib/gcc/pic32c/8.3.1/../../../../pic32c/lib/thumb/v7e-m+fp/hard\libc-musl.a(tolower.o)
 .debug_aranges
                0x000009e0       0x28 c:/program files/microchip/xc32/v4.10/bin/bin/../../lib/gcc/pic32c/8.3.1/../../../../pic32c/lib/thumb/v7e-m+fp/hard\libc-musl.a(toupper.o)
 .debug_aranges
                0x00000a08       0x28 c:/program files/microchip/xc32/v4.10/bin/bin/../../lib/gcc/pic32c/8.3.1/../../../../pic32c/lib/thumb/v7e-m+fp/hard\libc-musl.a(__libc_start_main.o)
 .debug_aranges
                0x00000a30       0x18 c:/program files/microchip/xc32/v4.10/bin/bin/../../lib/gcc/pic32c/8.3.1/../../../../pic32c/lib/thumb/v7e-m+fp/hard\libc-musl.a(libc.o)
 .debug_aranges
                0x00000a48       0x70 c:/program files/microchip/xc32/v4.10/bin/bin/../../lib/gcc/pic32c/8.3.1/../../../../pic32c/lib/thumb/v7e-m+fp/hard\libc-musl.a(malloc.o)
 .debug_aranges
                0x00000ab8       0x20 c:/program files/microchip/xc32/v4.10/bin/bin/../../lib/gcc/pic32c/8.3.1/../../../../pic32c/lib/thumb/v7e-m+fp/hard\libc-musl.a(expand_heap.o)
 .debug_aranges
                0x00000ad8       0x28 c:/program files/microchip/xc32/v4.10/bin/bin/../../lib/gcc/pic32c/8.3.1/../../../../pic32c/lib/thumb/v7e-m+fp/hard\libc-musl.a(rand.o)
 .debug_aranges
                0x00000b00       0x20 c:/program files/microchip/xc32/v4.10/bin/bin/../../lib/gcc/pic32c/8.3.1/../../../../pic32c/lib/thumb/v7e-m+fp/hard\libc-musl.a(vsnprintf.o)
 .debug_aranges
                0x00000b20       0x20 c:/program files/microchip/xc32/v4.10/bin/bin/../../lib/gcc/pic32c/8.3.1/../../../../pic32c/lib/thumb/v7e-m+fp/hard\libc-musl.a(snprintf.o)
 .debug_aranges
                0x00000b40       0x20 c:/program files/microchip/xc32/v4.10/bin/bin/../../lib/gcc/pic32c/8.3.1/../../../../pic32c/lib/thumb/v7e-m+fp/hard\libc-musl.a(sprintf.o)
 .debug_aranges
                0x00000b60       0x20 c:/program files/microchip/xc32/v4.10/bin/bin/../../lib/gcc/pic32c/8.3.1/../../../../pic32c/lib/thumb/v7e-m+fp/hard\libc-musl.a(vsprintf.o)
 .debug_aranges
                0x00000b80       0x20 c:/program files/microchip/xc32/v4.10/bin/bin/../../lib/gcc/pic32c/8.3.1/../../../../pic32c/lib/thumb/v7e-m+fp/hard\libc-musl.a(atoi.o)
 .debug_aranges
                0x00000ba0       0x50 c:/program files/microchip/xc32/v4.10/bin/bin/../../lib/gcc/pic32c/8.3.1/../../../../pic32c/lib/thumb/v7e-m+fp/hard\libc-musl.a(strtol.o)
 .debug_aranges
                0x00000bf0       0x20 c:/program files/microchip/xc32/v4.10/bin/bin/../../lib/gcc/pic32c/8.3.1/../../../../pic32c/lib/thumb/v7e-m+fp/hard\libc-musl.a(memcmp.o)
 .debug_aranges
                0x00000c10       0x20 c:/program files/microchip/xc32/v4.10/bin/bin/../../lib/gcc/pic32c/8.3.1/../../../../pic32c/lib/thumb/v7e-m+fp/hard\libc-musl.a(memcpy.o)
 .debug_aranges
                0x00000c30       0x20 c:/program files/microchip/xc32/v4.10/bin/bin/../../lib/gcc/pic32c/8.3.1/../../../../pic32c/lib/thumb/v7e-m+fp/hard\libc-musl.a(memmove.o)
 .debug_aranges
                0x00000c50       0x20 c:/program files/microchip/xc32/v4.10/bin/bin/../../lib/gcc/pic32c/8.3.1/../../../../pic32c/lib/thumb/v7e-m+fp/hard\libc-musl.a(memset.o)
 .debug_aranges
                0x00000c70       0x20 c:/program files/microchip/xc32/v4.10/bin/bin/../../lib/gcc/pic32c/8.3.1/../../../../pic32c/lib/thumb/v7e-m+fp/hard\libc-musl.a(strlen.o)
 .debug_aranges
                0x00000c90       0x20 c:/program files/microchip/xc32/v4.10/bin/bin/../../lib/gcc/pic32c/8.3.1/../../../../pic32c/lib/thumb/v7e-m+fp/hard\libc-musl.a(strchr.o)
 .debug_aranges
                0x00000cb0       0x20 c:/program files/microchip/xc32/v4.10/bin/bin/../../lib/gcc/pic32c/8.3.1/../../../../pic32c/lib/thumb/v7e-m+fp/hard\libc-musl.a(strchrnul.o)
 .debug_aranges
                0x00000cd0       0x20 c:/program files/microchip/xc32/v4.10/bin/bin/../../lib/gcc/pic32c/8.3.1/../../../../pic32c/lib/thumb/v7e-m+fp/hard\libc-musl.a(strcmp.o)
 .debug_aranges
                0x00000cf0       0x20 c:/program files/microchip/xc32/v4.10/bin/bin/../../lib/gcc/pic32c/8.3.1/../../../../pic32c/lib/thumb/v7e-m+fp/hard\libc-musl.a(strcpy.o)
 .debug_aranges
                0x00000d10       0x20 c:/program files/microchip/xc32/v4.10/bin/bin/../../lib/gcc/pic32c/8.3.1/../../../../pic32c/lib/thumb/v7e-m+fp/hard\libc-musl.a(strncmp.o)
 .debug_aranges
                0x00000d30       0x20 c:/program files/microchip/xc32/v4.10/bin/bin/../../lib/gcc/pic32c/8.3.1/../../../../pic32c/lib/thumb/v7e-m+fp/hard\libc-musl.a(strncpy.o)
 .debug_aranges
                0x00000d50       0x20 c:/program files/microchip/xc32/v4.10/bin/bin/../../lib/gcc/pic32c/8.3.1/../../../../pic32c/lib/thumb/v7e-m+fp/hard\libc-musl.a(strrchr.o)
 .debug_aranges
                0x00000d70       0x20 c:/program files/microchip/xc32/v4.10/bin/bin/../../lib/gcc/pic32c/8.3.1/../../../../pic32c/lib/thumb/v7e-m+fp/hard\libc-musl.a(strtok.o)
 .debug_aranges
                0x00000d90       0x20 c:/program files/microchip/xc32/v4.10/bin/bin/../../lib/gcc/pic32c/8.3.1/../../../../pic32c/lib/thumb/v7e-m+fp/hard\libc-musl.a(gmtime.o)
 .debug_aranges
                0x00000db0       0x20 c:/program files/microchip/xc32/v4.10/bin/bin/../../lib/gcc/pic32c/8.3.1/../../../../pic32c/lib/thumb/v7e-m+fp/hard\libc-musl.a(gmtime_r.o)
 .debug_aranges
                0x00000dd0       0x20 c:/program files/microchip/xc32/v4.10/bin/bin/../../lib/gcc/pic32c/8.3.1/../../../../pic32c/lib/thumb/v7e-m+fp/hard\libc-musl.a(time.o)
 .debug_aranges
                0x00000df0       0x18 c:/program files/microchip/xc32/v4.10/bin/bin/../../lib/gcc/pic32c/8.3.1/../../../../pic32c/lib/thumb/v7e-m+fp/hard\libc-musl.a(__environ.o)
 .debug_aranges
                0x00000e08       0x18 c:/program files/microchip/xc32/v4.10/bin/bin/../../lib/gcc/pic32c/8.3.1/../../../../pic32c/lib/thumb/v7e-m+fp/hard\libc-musl.a(__errno_location.o)
 .debug_aranges
                0x00000e20       0x20 c:/program files/microchip/xc32/v4.10/bin/bin/../../lib/gcc/pic32c/8.3.1/../../../../pic32c/lib/thumb/v7e-m+fp/hard\libc-musl.a(intscan.o)
 .debug_aranges
                0x00000e40       0x28 c:/program files/microchip/xc32/v4.10/bin/bin/../../lib/gcc/pic32c/8.3.1/../../../../pic32c/lib/thumb/v7e-m+fp/hard\libc-musl.a(shgetc.o)
 .debug_aranges
                0x00000e68       0x20 c:/program files/microchip/xc32/v4.10/bin/bin/../../lib/gcc/pic32c/8.3.1/../../../../pic32c/lib/thumb/v7e-m+fp/hard\libc-musl.a(__uflow.o)
 .debug_aranges
                0x00000e88       0x28 c:/program files/microchip/xc32/v4.10/bin/bin/../../lib/gcc/pic32c/8.3.1/../../../../pic32c/lib/thumb/v7e-m+fp/hard\libc-musl.a(vfprintf.o)
 .debug_aranges
                0x00000eb0       0x20 c:/program files/microchip/xc32/v4.10/bin/bin/../../lib/gcc/pic32c/8.3.1/../../../../pic32c/lib/thumb/v7e-m+fp/hard\libc-musl.a(memrchr.o)
 .debug_aranges
                0x00000ed0       0x20 c:/program files/microchip/xc32/v4.10/bin/bin/../../lib/gcc/pic32c/8.3.1/../../../../pic32c/lib/thumb/v7e-m+fp/hard\libc-musl.a(stpcpy.o)
 .debug_aranges
                0x00000ef0       0x20 c:/program files/microchip/xc32/v4.10/bin/bin/../../lib/gcc/pic32c/8.3.1/../../../../pic32c/lib/thumb/v7e-m+fp/hard\libc-musl.a(stpncpy.o)
 .debug_aranges
                0x00000f10       0x20 c:/program files/microchip/xc32/v4.10/bin/bin/../../lib/gcc/pic32c/8.3.1/../../../../pic32c/lib/thumb/v7e-m+fp/hard\libc-musl.a(strcspn.o)
 .debug_aranges
                0x00000f30       0x20 c:/program files/microchip/xc32/v4.10/bin/bin/../../lib/gcc/pic32c/8.3.1/../../../../pic32c/lib/thumb/v7e-m+fp/hard\libc-musl.a(strspn.o)
 .debug_aranges
                0x00000f50       0x20 c:/program files/microchip/xc32/v4.10/bin/bin/../../lib/gcc/pic32c/8.3.1/../../../../pic32c/lib/thumb/v7e-m+fp/hard\libc-musl.a(__secs_to_tm.o)
 .debug_aranges
                0x00000f70       0x20 c:/program files/microchip/xc32/v4.10/bin/bin/../../lib/gcc/pic32c/8.3.1/../../../../pic32c/lib/thumb/v7e-m+fp/hard\libc-musl.a(clock_gettime.o)
 .debug_aranges
                0x00000f90       0x20 c:/program files/microchip/xc32/v4.10/bin/bin/../../lib/gcc/pic32c/8.3.1/../../../../pic32c/lib/thumb/v7e-m+fp/hard\libc-musl.a(gettimeofday.o)
 .debug_aranges
                0x00000fb0       0x20 c:/program files/microchip/xc32/v4.10/bin/bin/../../lib/gcc/pic32c/8.3.1/../../../../pic32c/lib/thumb/v7e-m+fp/hard\libc-musl.a(syscall_ret.o)
 .debug_aranges
                0x00000fd0       0x28 c:/program files/microchip/xc32/v4.10/bin/bin/../../lib/gcc/pic32c/8.3.1/../../../../pic32c/lib/thumb/v7e-m+fp/hard\libc-musl.a(__toread.o)
 .debug_aranges
                0x00000ff8       0x50 c:/program files/microchip/xc32/v4.10/bin/bin/../../lib/gcc/pic32c/8.3.1/../../../../pic32c/lib/thumb/v7e-m+fp/hard\libc-musl.a(__printf_core.o)
 .debug_aranges
                0x00001048       0x20 c:/program files/microchip/xc32/v4.10/bin/bin/../../lib/gcc/pic32c/8.3.1/../../../../pic32c/lib/thumb/v7e-m+fp/hard\libc-musl.a(__fmt_a.o)
 .debug_aranges
                0x00001068       0x20 c:/program files/microchip/xc32/v4.10/bin/bin/../../lib/gcc/pic32c/8.3.1/../../../../pic32c/lib/thumb/v7e-m+fp/hard\libc-musl.a(__fmt_d.o)
 .debug_aranges
                0x00001088       0x20 c:/program files/microchip/xc32/v4.10/bin/bin/../../lib/gcc/pic32c/8.3.1/../../../../pic32c/lib/thumb/v7e-m+fp/hard\libc-musl.a(__fmt_fp.o)
 .debug_aranges
                0x000010a8       0x20 c:/program files/microchip/xc32/v4.10/bin/bin/../../lib/gcc/pic32c/8.3.1/../../../../pic32c/lib/thumb/v7e-m+fp/hard\libc-musl.a(__fmt_o.o)
 .debug_aranges
                0x000010c8       0x20 c:/program files/microchip/xc32/v4.10/bin/bin/../../lib/gcc/pic32c/8.3.1/../../../../pic32c/lib/thumb/v7e-m+fp/hard\libc-musl.a(__fmt_s.o)
 .debug_aranges
                0x000010e8       0x28 c:/program files/microchip/xc32/v4.10/bin/bin/../../lib/gcc/pic32c/8.3.1/../../../../pic32c/lib/thumb/v7e-m+fp/hard\libc-musl.a(__fmt_u.o)
 .debug_aranges
                0x00001110       0x20 c:/program files/microchip/xc32/v4.10/bin/bin/../../lib/gcc/pic32c/8.3.1/../../../../pic32c/lib/thumb/v7e-m+fp/hard\libc-musl.a(__fmt_x.o)
 .debug_aranges
                0x00001130       0x20 c:/program files/microchip/xc32/v4.10/bin/bin/../../lib/gcc/pic32c/8.3.1/../../../../pic32c/lib/thumb/v7e-m+fp/hard\libc-musl.a(__pop_float.o)
 .debug_aranges
                0x00001150       0x20 c:/program files/microchip/xc32/v4.10/bin/bin/../../lib/gcc/pic32c/8.3.1/../../../../pic32c/lib/thumb/v7e-m+fp/hard\libc-musl.a(__pop_int.o)
 .debug_aranges
                0x00001170       0x20 c:/program files/microchip/xc32/v4.10/bin/bin/../../lib/gcc/pic32c/8.3.1/../../../../pic32c/lib/thumb/v7e-m+fp/hard\libc-musl.a(__pop_ptr.o)
 .debug_aranges
                0x00001190       0x20 c:/program files/microchip/xc32/v4.10/bin/bin/../../lib/gcc/pic32c/8.3.1/thumb/v7e-m+fp/hard\libgcc.a(_aeabi_ldivmod.o)
 .debug_aranges
                0x000011b0       0x20 c:/program files/microchip/xc32/v4.10/bin/bin/../../lib/gcc/pic32c/8.3.1/thumb/v7e-m+fp/hard\libgcc.a(_aeabi_uldivmod.o)
 .debug_aranges
                0x000011d0       0x20 c:/program files/microchip/xc32/v4.10/bin/bin/../../lib/gcc/pic32c/8.3.1/thumb/v7e-m+fp/hard\libgcc.a(_udivmoddi4.o)
 .debug_aranges
                0x000011f0       0x20 c:/program files/microchip/xc32/v4.10/bin/bin/../../lib/gcc/pic32c/8.3.1/thumb/v7e-m+fp/hard\libgcc.a(_dvmd_tls.o)
 .debug_aranges
                0x00001210       0x20 c:/program files/microchip/xc32/v4.10/bin/bin/../../lib/gcc/pic32c/8.3.1/../../../../pic32c/lib/thumb/v7e-m+fp/hard\libpic32c.a(sbrk.o)

.debug_line     0x00000000    0x4e98e
 .debug_line    0x00000000      0xbc4 build/FreeRTOS/production/_ext/1609394304/crypto.o
 .debug_line    0x00000bc4     0x25b2 build/FreeRTOS/production/_ext/1231519722/drv_ethphy.o
 .debug_line    0x00003176      0xde7 build/FreeRTOS/production/_ext/1231519722/drv_extphy_lan867x.o
 .debug_line    0x00003f5d     0x1aa0 build/FreeRTOS/production/_ext/41526634/drv_gmac.o
 .debug_line    0x000059fd     0x1c95 build/FreeRTOS/production/_ext/41526634/drv_gmac_lib_samE5x.o
 .debug_line    0x00007692     0x1205 build/FreeRTOS/production/_ext/1149484450/drv_miim.o
 .debug_line    0x00008897      0x2f7 build/FreeRTOS/production/_ext/540595297/helpers.o
 .debug_line    0x00008b8e      0x945 build/FreeRTOS/production/_ext/540595297/icmp.o
 .debug_line    0x000094d3     0x4564 build/FreeRTOS/production/_ext/540595297/tcp.o
 .debug_line    0x0000da37     0x190a build/FreeRTOS/production/_ext/540595297/arp.o
 .debug_line    0x0000f341     0x224b build/FreeRTOS/production/_ext/540595297/tcpip_commands.o
 .debug_line    0x0001158c     0x21da build/FreeRTOS/production/_ext/540595297/iperf.o
 .debug_line    0x00013766     0x1858 build/FreeRTOS/production/_ext/540595297/ipv4.o
 .debug_line    0x00014fbe      0x183 build/FreeRTOS/production/_ext/540595297/tcpip_heap_alloc.o
 .debug_line    0x00015141      0x7f9 build/FreeRTOS/production/_ext/540595297/tcpip_heap_internal.o
 .debug_line    0x0001593a     0x2341 build/FreeRTOS/production/_ext/540595297/dhcp.o
 .debug_line    0x00017c7b     0x1cf7 build/FreeRTOS/production/_ext/540595297/dns.o
 .debug_line    0x00019972      0x12d build/FreeRTOS/production/_ext/540595297/hash_fnv.o
 .debug_line    0x00019a9f      0x3dd build/FreeRTOS/production/_ext/540595297/oahash.o
 .debug_line    0x00019e7c     0x1c45 build/FreeRTOS/production/_ext/540595297/tcpip_helpers.o
 .debug_line    0x0001bac1     0x35b9 build/FreeRTOS/production/_ext/540595297/tcpip_manager.o
 .debug_line    0x0001f07a      0x2db build/FreeRTOS/production/_ext/540595297/tcpip_notify.o
 .debug_line    0x0001f355      0x6f5 build/FreeRTOS/production/_ext/540595297/tcpip_packet.o
 .debug_line    0x0001fa4a     0x2aad build/FreeRTOS/production/_ext/540595297/udp.o
 .debug_line    0x000224f7      0x39e build/FreeRTOS/production/_ext/891571577/osal_freertos.o
 .debug_line    0x00022895      0x273 build/FreeRTOS/production/_ext/892004133/plib_clock.o
 .debug_line    0x00022b08       0x67 build/FreeRTOS/production/_ext/894153619/plib_evsys.o
 .debug_line    0x00022b6f      0x3e9 build/FreeRTOS/production/_ext/1494909205/plib_nvic.o
 .debug_line    0x00022f58      0x47c build/FreeRTOS/production/_ext/320424729/plib_nvmctrl.o
 .debug_line    0x000233d4      0x2b6 build/FreeRTOS/production/_ext/1494856054/plib_port.o
 .debug_line    0x0002368a      0xb7f build/FreeRTOS/production/_ext/2092608928/plib_sercom1_usart.o
 .debug_line    0x00024209      0x296 build/FreeRTOS/production/_ext/579449528/plib_tc0.o
 .debug_line    0x0002449f      0x112 build/FreeRTOS/production/_ext/1494734144/plib_trng.o
 .debug_line    0x000245b1      0xeba build/FreeRTOS/production/_ext/1005353002/sys_command.o
 .debug_line    0x0002546b      0x420 build/FreeRTOS/production/_ext/548640822/sys_console_uart.o
 .debug_line    0x0002588b      0x5d9 build/FreeRTOS/production/_ext/548640822/sys_console.o
 .debug_line    0x00025e64      0x1a1 build/FreeRTOS/production/_ext/147610190/sys_debug.o
 .debug_line    0x00026005      0x28d build/FreeRTOS/production/_ext/1690414130/sys_int.o
 .debug_line    0x00026292      0x135 build/FreeRTOS/production/_ext/1093154855/sys_reset.o
 .debug_line    0x000263c7     0x1078 build/FreeRTOS/production/_ext/832704728/sys_time.o
 .debug_line    0x0002743f      0x1a6 build/FreeRTOS/production/_ext/2072568807/sys_time_h2_adapter.o
 .debug_line    0x000275e5      0x3fc build/FreeRTOS/production/_ext/2072568807/sys_random_h2_adapter.o
 .debug_line    0x000279e1      0x337 build/FreeRTOS/production/_ext/161576091/tasks.o
 .debug_line    0x00027d18      0x6f3 build/FreeRTOS/production/_ext/161576091/initialization.o
 .debug_line    0x0002840b       0xec build/FreeRTOS/production/_ext/161576091/interrupts.o
 .debug_line    0x000284f7       0x9f build/FreeRTOS/production/_ext/161576091/exceptions.o
 .debug_line    0x00028596      0x247 build/FreeRTOS/production/_ext/161576091/startup_xc32.o
 .debug_line    0x000287dd      0x1b0 build/FreeRTOS/production/_ext/161576091/freertos_hooks.o
 .debug_line    0x0002898d      0x2ec build/FreeRTOS/production/_ext/246609638/port.o
 .debug_line    0x00028c79      0x1ee build/FreeRTOS/production/_ext/1665200909/heap_1.o
 .debug_line    0x00028e67      0x2a4 build/FreeRTOS/production/_ext/404212886/list.o
 .debug_line    0x0002910b      0xe56 build/FreeRTOS/production/_ext/404212886/queue.o
 .debug_line    0x00029f61     0x1758 build/FreeRTOS/production/_ext/404212886/FreeRTOS_tasks.o
 .debug_line    0x0002b6b9      0x14f build/FreeRTOS/production/_ext/172253694/crypt_wolfcryptcb.o
 .debug_line    0x0002b808     0x5f6b build/FreeRTOS/production/_ext/1664057780/asn.o
 .debug_line    0x00031773      0x47c build/FreeRTOS/production/_ext/1664057780/coding.o
 .debug_line    0x00031bef     0x119c build/FreeRTOS/production/_ext/1664057780/cryptocb.o
 .debug_line    0x00032d8b      0x628 build/FreeRTOS/production/_ext/1664057780/hash.o
 .debug_line    0x000333b3      0x796 build/FreeRTOS/production/_ext/1664057780/hmac.o
 .debug_line    0x00033b49      0xaf7 build/FreeRTOS/production/_ext/1664057780/md5.o
 .debug_line    0x00034640     0x1528 build/FreeRTOS/production/_ext/1664057780/rsa.o
 .debug_line    0x00035b68     0x3d1f build/FreeRTOS/production/_ext/1664057780/tfm.o
 .debug_line    0x00039887      0x499 build/FreeRTOS/production/_ext/1664057780/wc_port.o
 .debug_line    0x00039d20      0x2e4 build/FreeRTOS/production/_ext/1664057780/wolfmath.o
 .debug_line    0x0003a004     0x3925 build/FreeRTOS/production/_ext/1664057780/aes.o
 .debug_line    0x0003d929      0xeeb build/FreeRTOS/production/_ext/1664057780/des3.o
 .debug_line    0x0003e814      0xf90 build/FreeRTOS/production/_ext/1664057780/random.o
 .debug_line    0x0003f7a4     0x1d42 build/FreeRTOS/production/_ext/1664057780/sha.o
 .debug_line    0x000414e6     0x1175 build/FreeRTOS/production/_ext/1664057780/sha256.o
 .debug_line    0x0004265b     0x37aa build/FreeRTOS/production/_ext/1664057780/ecc.o
 .debug_line    0x00045e05      0x47d build/FreeRTOS/production/_ext/1360937237/app.o
 .debug_line    0x00046282       0x6e build/FreeRTOS/production/_ext/1360937237/main.o
 .debug_line    0x000462f0      0x4b3 build/FreeRTOS/production/_ext/1360937237/bc_com.o
 .debug_line    0x000467a3      0x9e7 build/FreeRTOS/production/_ext/1360937237/bc_test.o
 .debug_line    0x0004718a      0x112 c:/program files/microchip/xc32/v4.10/bin/bin/../../lib/gcc/pic32c/8.3.1/../../../../pic32c/lib/thumb/v7e-m+fp/hard\libpic32c.a(data_init.o)
 .debug_line    0x0004729c      0x16b c:/program files/microchip/xc32/v4.10/bin/bin/../../lib/gcc/pic32c/8.3.1/../../../../pic32c/lib/thumb/v7e-m+fp/hard\libc-musl.a(isalnum.o)
 .debug_line    0x00047407      0x16e c:/program files/microchip/xc32/v4.10/bin/bin/../../lib/gcc/pic32c/8.3.1/../../../../pic32c/lib/thumb/v7e-m+fp/hard\libc-musl.a(isxdigit.o)
 .debug_line    0x00047575      0x16b c:/program files/microchip/xc32/v4.10/bin/bin/../../lib/gcc/pic32c/8.3.1/../../../../pic32c/lib/thumb/v7e-m+fp/hard\libc-musl.a(tolower.o)
 .debug_line    0x000476e0      0x16b c:/program files/microchip/xc32/v4.10/bin/bin/../../lib/gcc/pic32c/8.3.1/../../../../pic32c/lib/thumb/v7e-m+fp/hard\libc-musl.a(toupper.o)
 .debug_line    0x0004784b      0x1db c:/program files/microchip/xc32/v4.10/bin/bin/../../lib/gcc/pic32c/8.3.1/../../../../pic32c/lib/thumb/v7e-m+fp/hard\libc-musl.a(__libc_start_main.o)
 .debug_line    0x00047a26       0xbf c:/program files/microchip/xc32/v4.10/bin/bin/../../lib/gcc/pic32c/8.3.1/../../../../pic32c/lib/thumb/v7e-m+fp/hard\libc-musl.a(libc.o)
 .debug_line    0x00047ae5      0xad2 c:/program files/microchip/xc32/v4.10/bin/bin/../../lib/gcc/pic32c/8.3.1/../../../../pic32c/lib/thumb/v7e-m+fp/hard\libc-musl.a(malloc.o)
 .debug_line    0x000485b7       0xf9 c:/program files/microchip/xc32/v4.10/bin/bin/../../lib/gcc/pic32c/8.3.1/../../../../pic32c/lib/thumb/v7e-m+fp/hard\libc-musl.a(expand_heap.o)
 .debug_line    0x000486b0       0xfb c:/program files/microchip/xc32/v4.10/bin/bin/../../lib/gcc/pic32c/8.3.1/../../../../pic32c/lib/thumb/v7e-m+fp/hard\libc-musl.a(rand.o)
 .debug_line    0x000487ab      0x244 c:/program files/microchip/xc32/v4.10/bin/bin/../../lib/gcc/pic32c/8.3.1/../../../../pic32c/lib/thumb/v7e-m+fp/hard\libc-musl.a(vsnprintf.o)
 .debug_line    0x000489ef      0x166 c:/program files/microchip/xc32/v4.10/bin/bin/../../lib/gcc/pic32c/8.3.1/../../../../pic32c/lib/thumb/v7e-m+fp/hard\libc-musl.a(snprintf.o)
 .debug_line    0x00048b55      0x165 c:/program files/microchip/xc32/v4.10/bin/bin/../../lib/gcc/pic32c/8.3.1/../../../../pic32c/lib/thumb/v7e-m+fp/hard\libc-musl.a(sprintf.o)
 .debug_line    0x00048cba      0x154 c:/program files/microchip/xc32/v4.10/bin/bin/../../lib/gcc/pic32c/8.3.1/../../../../pic32c/lib/thumb/v7e-m+fp/hard\libc-musl.a(vsprintf.o)
 .debug_line    0x00048e0e      0x17b c:/program files/microchip/xc32/v4.10/bin/bin/../../lib/gcc/pic32c/8.3.1/../../../../pic32c/lib/thumb/v7e-m+fp/hard\libc-musl.a(atoi.o)
 .debug_line    0x00048f89      0x2f6 c:/program files/microchip/xc32/v4.10/bin/bin/../../lib/gcc/pic32c/8.3.1/../../../../pic32c/lib/thumb/v7e-m+fp/hard\libc-musl.a(strtol.o)
 .debug_line    0x0004927f       0xe9 c:/program files/microchip/xc32/v4.10/bin/bin/../../lib/gcc/pic32c/8.3.1/../../../../pic32c/lib/thumb/v7e-m+fp/hard\libc-musl.a(memcmp.o)
 .debug_line    0x00049368       0xf4 c:/program files/microchip/xc32/v4.10/bin/bin/../../lib/gcc/pic32c/8.3.1/../../../../pic32c/lib/thumb/v7e-m+fp/hard\libc-musl.a(memcpy.o)
 .debug_line    0x0004945c      0x121 c:/program files/microchip/xc32/v4.10/bin/bin/../../lib/gcc/pic32c/8.3.1/../../../../pic32c/lib/thumb/v7e-m+fp/hard\libc-musl.a(memmove.o)
 .debug_line    0x0004957d       0xec c:/program files/microchip/xc32/v4.10/bin/bin/../../lib/gcc/pic32c/8.3.1/../../../../pic32c/lib/thumb/v7e-m+fp/hard\libc-musl.a(memset.o)
 .debug_line    0x00049669       0xe8 c:/program files/microchip/xc32/v4.10/bin/bin/../../lib/gcc/pic32c/8.3.1/../../../../pic32c/lib/thumb/v7e-m+fp/hard\libc-musl.a(strlen.o)
 .debug_line    0x00049751       0xbc c:/program files/microchip/xc32/v4.10/bin/bin/../../lib/gcc/pic32c/8.3.1/../../../../pic32c/lib/thumb/v7e-m+fp/hard\libc-musl.a(strchr.o)
 .debug_line    0x0004980d      0x19f c:/program files/microchip/xc32/v4.10/bin/bin/../../lib/gcc/pic32c/8.3.1/../../../../pic32c/lib/thumb/v7e-m+fp/hard\libc-musl.a(strchrnul.o)
 .debug_line    0x000499ac       0xbf c:/program files/microchip/xc32/v4.10/bin/bin/../../lib/gcc/pic32c/8.3.1/../../../../pic32c/lib/thumb/v7e-m+fp/hard\libc-musl.a(strcmp.o)
 .debug_line    0x00049a6b       0xb7 c:/program files/microchip/xc32/v4.10/bin/bin/../../lib/gcc/pic32c/8.3.1/../../../../pic32c/lib/thumb/v7e-m+fp/hard\libc-musl.a(strcpy.o)
 .debug_line    0x00049b22       0xf0 c:/program files/microchip/xc32/v4.10/bin/bin/../../lib/gcc/pic32c/8.3.1/../../../../pic32c/lib/thumb/v7e-m+fp/hard\libc-musl.a(strncmp.o)
 .debug_line    0x00049c12       0xd7 c:/program files/microchip/xc32/v4.10/bin/bin/../../lib/gcc/pic32c/8.3.1/../../../../pic32c/lib/thumb/v7e-m+fp/hard\libc-musl.a(strncpy.o)
 .debug_line    0x00049ce9      0x131 c:/program files/microchip/xc32/v4.10/bin/bin/../../lib/gcc/pic32c/8.3.1/../../../../pic32c/lib/thumb/v7e-m+fp/hard\libc-musl.a(strrchr.o)
 .debug_line    0x00049e1a      0x178 c:/program files/microchip/xc32/v4.10/bin/bin/../../lib/gcc/pic32c/8.3.1/../../../../pic32c/lib/thumb/v7e-m+fp/hard\libc-musl.a(strtok.o)
 .debug_line    0x00049f92      0x13f c:/program files/microchip/xc32/v4.10/bin/bin/../../lib/gcc/pic32c/8.3.1/../../../../pic32c/lib/thumb/v7e-m+fp/hard\libc-musl.a(gmtime.o)
 .debug_line    0x0004a0d1      0x273 c:/program files/microchip/xc32/v4.10/bin/bin/../../lib/gcc/pic32c/8.3.1/../../../../pic32c/lib/thumb/v7e-m+fp/hard\libc-musl.a(gmtime_r.o)
 .debug_line    0x0004a344       0xe4 c:/program files/microchip/xc32/v4.10/bin/bin/../../lib/gcc/pic32c/8.3.1/../../../../pic32c/lib/thumb/v7e-m+fp/hard\libc-musl.a(time.o)
 .debug_line    0x0004a428      0x10f c:/program files/microchip/xc32/v4.10/bin/bin/../../lib/gcc/pic32c/8.3.1/../../../../pic32c/lib/thumb/v7e-m+fp/hard\libc-musl.a(__environ.o)
 .debug_line    0x0004a537       0xa4 c:/program files/microchip/xc32/v4.10/bin/bin/../../lib/gcc/pic32c/8.3.1/../../../../pic32c/lib/thumb/v7e-m+fp/hard\libc-musl.a(__errno_location.o)
 .debug_line    0x0004a5db      0x4cc c:/program files/microchip/xc32/v4.10/bin/bin/../../lib/gcc/pic32c/8.3.1/../../../../pic32c/lib/thumb/v7e-m+fp/hard\libc-musl.a(intscan.o)
 .debug_line    0x0004aaa7      0x210 c:/program files/microchip/xc32/v4.10/bin/bin/../../lib/gcc/pic32c/8.3.1/../../../../pic32c/lib/thumb/v7e-m+fp/hard\libc-musl.a(shgetc.o)
 .debug_line    0x0004acb7      0x1dc c:/program files/microchip/xc32/v4.10/bin/bin/../../lib/gcc/pic32c/8.3.1/../../../../pic32c/lib/thumb/v7e-m+fp/hard\libc-musl.a(__uflow.o)
 .debug_line    0x0004ae93      0x204 c:/program files/microchip/xc32/v4.10/bin/bin/../../lib/gcc/pic32c/8.3.1/../../../../pic32c/lib/thumb/v7e-m+fp/hard\libc-musl.a(vfprintf.o)
 .debug_line    0x0004b097       0xe7 c:/program files/microchip/xc32/v4.10/bin/bin/../../lib/gcc/pic32c/8.3.1/../../../../pic32c/lib/thumb/v7e-m+fp/hard\libc-musl.a(memrchr.o)
 .debug_line    0x0004b17e       0xcb c:/program files/microchip/xc32/v4.10/bin/bin/../../lib/gcc/pic32c/8.3.1/../../../../pic32c/lib/thumb/v7e-m+fp/hard\libc-musl.a(stpcpy.o)
 .debug_line    0x0004b249      0x116 c:/program files/microchip/xc32/v4.10/bin/bin/../../lib/gcc/pic32c/8.3.1/../../../../pic32c/lib/thumb/v7e-m+fp/hard\libc-musl.a(stpncpy.o)
 .debug_line    0x0004b35f      0x194 c:/program files/microchip/xc32/v4.10/bin/bin/../../lib/gcc/pic32c/8.3.1/../../../../pic32c/lib/thumb/v7e-m+fp/hard\libc-musl.a(strcspn.o)
 .debug_line    0x0004b4f3      0x131 c:/program files/microchip/xc32/v4.10/bin/bin/../../lib/gcc/pic32c/8.3.1/../../../../pic32c/lib/thumb/v7e-m+fp/hard\libc-musl.a(strspn.o)
 .debug_line    0x0004b624      0x2fb c:/program files/microchip/xc32/v4.10/bin/bin/../../lib/gcc/pic32c/8.3.1/../../../../pic32c/lib/thumb/v7e-m+fp/hard\libc-musl.a(__secs_to_tm.o)
 .debug_line    0x0004b91f      0x20a c:/program files/microchip/xc32/v4.10/bin/bin/../../lib/gcc/pic32c/8.3.1/../../../../pic32c/lib/thumb/v7e-m+fp/hard\libc-musl.a(clock_gettime.o)
 .debug_line    0x0004bb29       0xd5 c:/program files/microchip/xc32/v4.10/bin/bin/../../lib/gcc/pic32c/8.3.1/../../../../pic32c/lib/thumb/v7e-m+fp/hard\libc-musl.a(gettimeofday.o)
 .debug_line    0x0004bbfe      0x14a c:/program files/microchip/xc32/v4.10/bin/bin/../../lib/gcc/pic32c/8.3.1/../../../../pic32c/lib/thumb/v7e-m+fp/hard\libc-musl.a(syscall_ret.o)
 .debug_line    0x0004bd48      0x22c c:/program files/microchip/xc32/v4.10/bin/bin/../../lib/gcc/pic32c/8.3.1/../../../../pic32c/lib/thumb/v7e-m+fp/hard\libc-musl.a(__toread.o)
 .debug_line    0x0004bf74      0x699 c:/program files/microchip/xc32/v4.10/bin/bin/../../lib/gcc/pic32c/8.3.1/../../../../pic32c/lib/thumb/v7e-m+fp/hard\libc-musl.a(__printf_core.o)
 .debug_line    0x0004c60d      0x626 c:/program files/microchip/xc32/v4.10/bin/bin/../../lib/gcc/pic32c/8.3.1/../../../../pic32c/lib/thumb/v7e-m+fp/hard\libc-musl.a(__fmt_a.o)
 .debug_line    0x0004cc33      0x21c c:/program files/microchip/xc32/v4.10/bin/bin/../../lib/gcc/pic32c/8.3.1/../../../../pic32c/lib/thumb/v7e-m+fp/hard\libc-musl.a(__fmt_d.o)
 .debug_line    0x0004ce4f      0x68b c:/program files/microchip/xc32/v4.10/bin/bin/../../lib/gcc/pic32c/8.3.1/../../../../pic32c/lib/thumb/v7e-m+fp/hard\libc-musl.a(__fmt_fp.o)
 .debug_line    0x0004d4da      0x1c6 c:/program files/microchip/xc32/v4.10/bin/bin/../../lib/gcc/pic32c/8.3.1/../../../../pic32c/lib/thumb/v7e-m+fp/hard\libc-musl.a(__fmt_o.o)
 .debug_line    0x0004d6a0      0x209 c:/program files/microchip/xc32/v4.10/bin/bin/../../lib/gcc/pic32c/8.3.1/../../../../pic32c/lib/thumb/v7e-m+fp/hard\libc-musl.a(__fmt_s.o)
 .debug_line    0x0004d8a9      0x250 c:/program files/microchip/xc32/v4.10/bin/bin/../../lib/gcc/pic32c/8.3.1/../../../../pic32c/lib/thumb/v7e-m+fp/hard\libc-musl.a(__fmt_u.o)
 .debug_line    0x0004daf9      0x2fd c:/program files/microchip/xc32/v4.10/bin/bin/../../lib/gcc/pic32c/8.3.1/../../../../pic32c/lib/thumb/v7e-m+fp/hard\libc-musl.a(__fmt_x.o)
 .debug_line    0x0004ddf6      0x179 c:/program files/microchip/xc32/v4.10/bin/bin/../../lib/gcc/pic32c/8.3.1/../../../../pic32c/lib/thumb/v7e-m+fp/hard\libc-musl.a(__pop_float.o)
 .debug_line    0x0004df6f      0x20f c:/program files/microchip/xc32/v4.10/bin/bin/../../lib/gcc/pic32c/8.3.1/../../../../pic32c/lib/thumb/v7e-m+fp/hard\libc-musl.a(__pop_int.o)
 .debug_line    0x0004e17e      0x1f4 c:/program files/microchip/xc32/v4.10/bin/bin/../../lib/gcc/pic32c/8.3.1/../../../../pic32c/lib/thumb/v7e-m+fp/hard\libc-musl.a(__pop_ptr.o)
 .debug_line    0x0004e372       0xbc c:/program files/microchip/xc32/v4.10/bin/bin/../../lib/gcc/pic32c/8.3.1/thumb/v7e-m+fp/hard\libgcc.a(_aeabi_ldivmod.o)
 .debug_line    0x0004e42e       0x9e c:/program files/microchip/xc32/v4.10/bin/bin/../../lib/gcc/pic32c/8.3.1/thumb/v7e-m+fp/hard\libgcc.a(_aeabi_uldivmod.o)
 .debug_line    0x0004e4cc      0x36d c:/program files/microchip/xc32/v4.10/bin/bin/../../lib/gcc/pic32c/8.3.1/thumb/v7e-m+fp/hard\libgcc.a(_udivmoddi4.o)
 .debug_line    0x0004e839       0x9e c:/program files/microchip/xc32/v4.10/bin/bin/../../lib/gcc/pic32c/8.3.1/thumb/v7e-m+fp/hard\libgcc.a(_dvmd_tls.o)
 .debug_line    0x0004e8d7       0xb7 c:/program files/microchip/xc32/v4.10/bin/bin/../../lib/gcc/pic32c/8.3.1/../../../../pic32c/lib/thumb/v7e-m+fp/hard\libpic32c.a(sbrk.o)

.debug_str      0x00000000     0x7763
 .debug_str     0x00000000      0x454 build/FreeRTOS/production/_ext/1609394304/crypto.o
 .debug_str     0x00000454      0x4bd build/FreeRTOS/production/_ext/1231519722/drv_ethphy.o
 .debug_str     0x00000911       0xcc build/FreeRTOS/production/_ext/1231519722/drv_extphy_lan867x.o
 .debug_str     0x000009dd      0x626 build/FreeRTOS/production/_ext/41526634/drv_gmac.o
 .debug_str     0x00001003      0x1d2 build/FreeRTOS/production/_ext/41526634/drv_gmac_lib_samE5x.o
 .debug_str     0x000011d5      0x253 build/FreeRTOS/production/_ext/1149484450/drv_miim.o
 .debug_str     0x00001428        0x0 build/FreeRTOS/production/_ext/540595297/helpers.o
 .debug_str     0x00001428      0x2c3 build/FreeRTOS/production/_ext/540595297/icmp.o
 .debug_str     0x000016eb      0x4ed build/FreeRTOS/production/_ext/540595297/tcp.o
 .debug_str     0x00001bd8      0x4b8 build/FreeRTOS/production/_ext/540595297/arp.o
 .debug_str     0x00002090      0x7ec build/FreeRTOS/production/_ext/540595297/tcpip_commands.o
 .debug_str     0x0000287c      0x534 build/FreeRTOS/production/_ext/540595297/iperf.o
 .debug_str     0x00002db0      0x583 build/FreeRTOS/production/_ext/540595297/ipv4.o
 .debug_str     0x00003333       0x5d build/FreeRTOS/production/_ext/540595297/tcpip_heap_alloc.o
 .debug_str     0x00003390       0x79 build/FreeRTOS/production/_ext/540595297/tcpip_heap_internal.o
 .debug_str     0x00003409      0x678 build/FreeRTOS/production/_ext/540595297/dhcp.o
 .debug_str     0x00003a81      0x4da build/FreeRTOS/production/_ext/540595297/dns.o
 .debug_str     0x00003f5b        0x0 build/FreeRTOS/production/_ext/540595297/hash_fnv.o
 .debug_str     0x00003f5b        0xa build/FreeRTOS/production/_ext/540595297/oahash.o
 .debug_str     0x00003f65      0x106 build/FreeRTOS/production/_ext/540595297/tcpip_helpers.o
 .debug_str     0x0000406b      0x5db build/FreeRTOS/production/_ext/540595297/tcpip_manager.o
 .debug_str     0x00004646      0x155 build/FreeRTOS/production/_ext/540595297/tcpip_notify.o
 .debug_str     0x0000479b       0x7d build/FreeRTOS/production/_ext/540595297/tcpip_packet.o
 .debug_str     0x00004818      0x3fc build/FreeRTOS/production/_ext/540595297/udp.o
 .debug_str     0x00004c14      0x13b build/FreeRTOS/production/_ext/891571577/osal_freertos.o
 .debug_str     0x00004d4f       0x1e build/FreeRTOS/production/_ext/892004133/plib_clock.o
 .debug_str     0x00004d6d        0x0 build/FreeRTOS/production/_ext/894153619/plib_evsys.o
 .debug_str     0x00004d6d        0xa build/FreeRTOS/production/_ext/1494909205/plib_nvic.o
 .debug_str     0x00004d77       0x20 build/FreeRTOS/production/_ext/320424729/plib_nvmctrl.o
 .debug_str     0x00004d97        0xb build/FreeRTOS/production/_ext/1494856054/plib_port.o
 .debug_str     0x00004da2      0x1c8 build/FreeRTOS/production/_ext/2092608928/plib_sercom1_usart.o
 .debug_str     0x00004f6a       0xbb build/FreeRTOS/production/_ext/579449528/plib_tc0.o
 .debug_str     0x00005025        0x0 build/FreeRTOS/production/_ext/1494734144/plib_trng.o
 .debug_str     0x00005025      0x112 build/FreeRTOS/production/_ext/1005353002/sys_command.o
 .debug_str     0x00005137       0xb3 build/FreeRTOS/production/_ext/548640822/sys_console_uart.o
 .debug_str     0x000051ea       0x58 build/FreeRTOS/production/_ext/548640822/sys_console.o
 .debug_str     0x00005242        0x0 build/FreeRTOS/production/_ext/147610190/sys_debug.o
 .debug_str     0x00005242       0x32 build/FreeRTOS/production/_ext/1690414130/sys_int.o
 .debug_str     0x00005274        0x0 build/FreeRTOS/production/_ext/1093154855/sys_reset.o
 .debug_str     0x00005274      0x156 build/FreeRTOS/production/_ext/832704728/sys_time.o
 .debug_str     0x000053ca       0x64 build/FreeRTOS/production/_ext/2072568807/sys_time_h2_adapter.o
 .debug_str     0x0000542e       0xa5 build/FreeRTOS/production/_ext/2072568807/sys_random_h2_adapter.o
 .debug_str     0x000054d3       0x8b build/FreeRTOS/production/_ext/161576091/tasks.o
 .debug_str     0x0000555e      0x2ce build/FreeRTOS/production/_ext/161576091/initialization.o
 .debug_str     0x0000582c        0x0 build/FreeRTOS/production/_ext/161576091/interrupts.o
 .debug_str     0x0000582c        0x0 build/FreeRTOS/production/_ext/161576091/exceptions.o
 .debug_str     0x0000582c       0x2f build/FreeRTOS/production/_ext/161576091/startup_xc32.o
 .debug_str     0x0000585b       0x25 build/FreeRTOS/production/_ext/161576091/freertos_hooks.o
 .debug_str     0x00005880       0x26 build/FreeRTOS/production/_ext/246609638/port.o
 .debug_str     0x000058a6       0x3c build/FreeRTOS/production/_ext/1665200909/heap_1.o
 .debug_str     0x000058e2       0x2b build/FreeRTOS/production/_ext/404212886/list.o
 .debug_str     0x0000590d      0x2a6 build/FreeRTOS/production/_ext/404212886/queue.o
 .debug_str     0x00005bb3      0x2a9 build/FreeRTOS/production/_ext/404212886/FreeRTOS_tasks.o
 .debug_str     0x00005e5c       0xbb build/FreeRTOS/production/_ext/172253694/crypt_wolfcryptcb.o
 .debug_str     0x00005f17      0x451 build/FreeRTOS/production/_ext/1664057780/asn.o
 .debug_str     0x00006368        0x0 build/FreeRTOS/production/_ext/1664057780/coding.o
 .debug_str     0x00006368       0xf7 build/FreeRTOS/production/_ext/1664057780/cryptocb.o
 .debug_str     0x0000645f      0x1e7 build/FreeRTOS/production/_ext/1664057780/hash.o
 .debug_str     0x00006646      0x131 build/FreeRTOS/production/_ext/1664057780/hmac.o
 .debug_str     0x00006777        0x0 build/FreeRTOS/production/_ext/1664057780/md5.o
 .debug_str     0x00006777      0x192 build/FreeRTOS/production/_ext/1664057780/rsa.o
 .debug_str     0x00006909       0x3f build/FreeRTOS/production/_ext/1664057780/tfm.o
 .debug_str     0x00006948       0x11 build/FreeRTOS/production/_ext/1664057780/wc_port.o
 .debug_str     0x00006959       0x56 build/FreeRTOS/production/_ext/1664057780/wolfmath.o
 .debug_str     0x000069af      0x19b build/FreeRTOS/production/_ext/1664057780/aes.o
 .debug_str     0x00006b4a       0x37 build/FreeRTOS/production/_ext/1664057780/des3.o
 .debug_str     0x00006b81       0xdf build/FreeRTOS/production/_ext/1664057780/random.o
 .debug_str     0x00006c60       0x14 build/FreeRTOS/production/_ext/1664057780/sha.o
 .debug_str     0x00006c74       0x54 build/FreeRTOS/production/_ext/1664057780/sha256.o
 .debug_str     0x00006cc8      0x31e build/FreeRTOS/production/_ext/1664057780/ecc.o
 .debug_str     0x00006fe6       0x9f build/FreeRTOS/production/_ext/1360937237/app.o
 .debug_str     0x00007085       0x19 build/FreeRTOS/production/_ext/1360937237/main.o
 .debug_str     0x0000709e       0xb0 build/FreeRTOS/production/_ext/1360937237/bc_com.o
 .debug_str     0x0000714e      0x211 build/FreeRTOS/production/_ext/1360937237/bc_test.o
 .debug_str     0x0000735f        0x0 c:/program files/microchip/xc32/v4.10/bin/bin/../../lib/gcc/pic32c/8.3.1/../../../../pic32c/lib/thumb/v7e-m+fp/hard\libpic32c.a(data_init.o)
 .debug_str     0x0000735f        0x0 c:/program files/microchip/xc32/v4.10/bin/bin/../../lib/gcc/pic32c/8.3.1/../../../../pic32c/lib/thumb/v7e-m+fp/hard\libc-musl.a(isalnum.o)
 .debug_str     0x0000735f        0x0 c:/program files/microchip/xc32/v4.10/bin/bin/../../lib/gcc/pic32c/8.3.1/../../../../pic32c/lib/thumb/v7e-m+fp/hard\libc-musl.a(isxdigit.o)
 .debug_str     0x0000735f        0x0 c:/program files/microchip/xc32/v4.10/bin/bin/../../lib/gcc/pic32c/8.3.1/../../../../pic32c/lib/thumb/v7e-m+fp/hard\libc-musl.a(tolower.o)
 .debug_str     0x0000735f        0x0 c:/program files/microchip/xc32/v4.10/bin/bin/../../lib/gcc/pic32c/8.3.1/../../../../pic32c/lib/thumb/v7e-m+fp/hard\libc-musl.a(toupper.o)
 .debug_str     0x0000735f        0x0 c:/program files/microchip/xc32/v4.10/bin/bin/../../lib/gcc/pic32c/8.3.1/../../../../pic32c/lib/thumb/v7e-m+fp/hard\libc-musl.a(__libc_start_main.o)
 .debug_str     0x0000735f        0x0 c:/program files/microchip/xc32/v4.10/bin/bin/../../lib/gcc/pic32c/8.3.1/../../../../pic32c/lib/thumb/v7e-m+fp/hard\libc-musl.a(libc.o)
 .debug_str     0x0000735f       0x13 c:/program files/microchip/xc32/v4.10/bin/bin/../../lib/gcc/pic32c/8.3.1/../../../../pic32c/lib/thumb/v7e-m+fp/hard\libc-musl.a(malloc.o)
 .debug_str     0x00007372        0x0 c:/program files/microchip/xc32/v4.10/bin/bin/../../lib/gcc/pic32c/8.3.1/../../../../pic32c/lib/thumb/v7e-m+fp/hard\libc-musl.a(expand_heap.o)
 .debug_str     0x00007372        0x0 c:/program files/microchip/xc32/v4.10/bin/bin/../../lib/gcc/pic32c/8.3.1/../../../../pic32c/lib/thumb/v7e-m+fp/hard\libc-musl.a(rand.o)
 .debug_str     0x00007372        0x9 c:/program files/microchip/xc32/v4.10/bin/bin/../../lib/gcc/pic32c/8.3.1/../../../../pic32c/lib/thumb/v7e-m+fp/hard\libc-musl.a(vsnprintf.o)
 .debug_str     0x0000737b        0xa c:/program files/microchip/xc32/v4.10/bin/bin/../../lib/gcc/pic32c/8.3.1/../../../../pic32c/lib/thumb/v7e-m+fp/hard\libc-musl.a(snprintf.o)
 .debug_str     0x00007385        0x9 c:/program files/microchip/xc32/v4.10/bin/bin/../../lib/gcc/pic32c/8.3.1/../../../../pic32c/lib/thumb/v7e-m+fp/hard\libc-musl.a(sprintf.o)
 .debug_str     0x0000738e        0xa c:/program files/microchip/xc32/v4.10/bin/bin/../../lib/gcc/pic32c/8.3.1/../../../../pic32c/lib/thumb/v7e-m+fp/hard\libc-musl.a(vsprintf.o)
 .debug_str     0x00007398        0x0 c:/program files/microchip/xc32/v4.10/bin/bin/../../lib/gcc/pic32c/8.3.1/../../../../pic32c/lib/thumb/v7e-m+fp/hard\libc-musl.a(atoi.o)
 .debug_str     0x00007398        0xf c:/program files/microchip/xc32/v4.10/bin/bin/../../lib/gcc/pic32c/8.3.1/../../../../pic32c/lib/thumb/v7e-m+fp/hard\libc-musl.a(strtol.o)
 .debug_str     0x000073a7        0x0 c:/program files/microchip/xc32/v4.10/bin/bin/../../lib/gcc/pic32c/8.3.1/../../../../pic32c/lib/thumb/v7e-m+fp/hard\libc-musl.a(memcmp.o)
 .debug_str     0x000073a7        0x0 c:/program files/microchip/xc32/v4.10/bin/bin/../../lib/gcc/pic32c/8.3.1/../../../../pic32c/lib/thumb/v7e-m+fp/hard\libc-musl.a(memcpy.o)
 .debug_str     0x000073a7        0x0 c:/program files/microchip/xc32/v4.10/bin/bin/../../lib/gcc/pic32c/8.3.1/../../../../pic32c/lib/thumb/v7e-m+fp/hard\libc-musl.a(memmove.o)
 .debug_str     0x000073a7        0x0 c:/program files/microchip/xc32/v4.10/bin/bin/../../lib/gcc/pic32c/8.3.1/../../../../pic32c/lib/thumb/v7e-m+fp/hard\libc-musl.a(memset.o)
 .debug_str     0x000073a7        0x0 c:/program files/microchip/xc32/v4.10/bin/bin/../../lib/gcc/pic32c/8.3.1/../../../../pic32c/lib/thumb/v7e-m+fp/hard\libc-musl.a(strlen.o)
 .debug_str     0x000073a7        0xc c:/program files/microchip/xc32/v4.10/bin/bin/../../lib/gcc/pic32c/8.3.1/../../../../pic32c/lib/thumb/v7e-m+fp/hard\libc-musl.a(strchr.o)
 .debug_str     0x000073b3        0x0 c:/program files/microchip/xc32/v4.10/bin/bin/../../lib/gcc/pic32c/8.3.1/../../../../pic32c/lib/thumb/v7e-m+fp/hard\libc-musl.a(strchrnul.o)
 .debug_str     0x000073b3        0x0 c:/program files/microchip/xc32/v4.10/bin/bin/../../lib/gcc/pic32c/8.3.1/../../../../pic32c/lib/thumb/v7e-m+fp/hard\libc-musl.a(strcmp.o)
 .debug_str     0x000073b3        0x9 c:/program files/microchip/xc32/v4.10/bin/bin/../../lib/gcc/pic32c/8.3.1/../../../../pic32c/lib/thumb/v7e-m+fp/hard\libc-musl.a(strcpy.o)
 .debug_str     0x000073bc        0x0 c:/program files/microchip/xc32/v4.10/bin/bin/../../lib/gcc/pic32c/8.3.1/../../../../pic32c/lib/thumb/v7e-m+fp/hard\libc-musl.a(strncmp.o)
 .debug_str     0x000073bc        0xa c:/program files/microchip/xc32/v4.10/bin/bin/../../lib/gcc/pic32c/8.3.1/../../../../pic32c/lib/thumb/v7e-m+fp/hard\libc-musl.a(strncpy.o)
 .debug_str     0x000073c6        0xa c:/program files/microchip/xc32/v4.10/bin/bin/../../lib/gcc/pic32c/8.3.1/../../../../pic32c/lib/thumb/v7e-m+fp/hard\libc-musl.a(strrchr.o)
 .debug_str     0x000073d0        0x0 c:/program files/microchip/xc32/v4.10/bin/bin/../../lib/gcc/pic32c/8.3.1/../../../../pic32c/lib/thumb/v7e-m+fp/hard\libc-musl.a(strtok.o)
 .debug_str     0x000073d0        0xb c:/program files/microchip/xc32/v4.10/bin/bin/../../lib/gcc/pic32c/8.3.1/../../../../pic32c/lib/thumb/v7e-m+fp/hard\libc-musl.a(gmtime.o)
 .debug_str     0x000073db        0xd c:/program files/microchip/xc32/v4.10/bin/bin/../../lib/gcc/pic32c/8.3.1/../../../../pic32c/lib/thumb/v7e-m+fp/hard\libc-musl.a(gmtime_r.o)
 .debug_str     0x000073e8       0x10 c:/program files/microchip/xc32/v4.10/bin/bin/../../lib/gcc/pic32c/8.3.1/../../../../pic32c/lib/thumb/v7e-m+fp/hard\libc-musl.a(time.o)
 .debug_str     0x000073f8        0x0 c:/program files/microchip/xc32/v4.10/bin/bin/../../lib/gcc/pic32c/8.3.1/../../../../pic32c/lib/thumb/v7e-m+fp/hard\libc-musl.a(__environ.o)
 .debug_str     0x000073f8        0x0 c:/program files/microchip/xc32/v4.10/bin/bin/../../lib/gcc/pic32c/8.3.1/../../../../pic32c/lib/thumb/v7e-m+fp/hard\libc-musl.a(__errno_location.o)
 .debug_str     0x000073f8        0x9 c:/program files/microchip/xc32/v4.10/bin/bin/../../lib/gcc/pic32c/8.3.1/../../../../pic32c/lib/thumb/v7e-m+fp/hard\libc-musl.a(intscan.o)
 .debug_str     0x00007401        0x0 c:/program files/microchip/xc32/v4.10/bin/bin/../../lib/gcc/pic32c/8.3.1/../../../../pic32c/lib/thumb/v7e-m+fp/hard\libc-musl.a(shgetc.o)
 .debug_str     0x00007401        0x9 c:/program files/microchip/xc32/v4.10/bin/bin/../../lib/gcc/pic32c/8.3.1/../../../../pic32c/lib/thumb/v7e-m+fp/hard\libc-musl.a(__uflow.o)
 .debug_str     0x0000740a       0x1e c:/program files/microchip/xc32/v4.10/bin/bin/../../lib/gcc/pic32c/8.3.1/../../../../pic32c/lib/thumb/v7e-m+fp/hard\libc-musl.a(vfprintf.o)
 .debug_str     0x00007428        0x0 c:/program files/microchip/xc32/v4.10/bin/bin/../../lib/gcc/pic32c/8.3.1/../../../../pic32c/lib/thumb/v7e-m+fp/hard\libc-musl.a(memrchr.o)
 .debug_str     0x00007428        0x0 c:/program files/microchip/xc32/v4.10/bin/bin/../../lib/gcc/pic32c/8.3.1/../../../../pic32c/lib/thumb/v7e-m+fp/hard\libc-musl.a(stpcpy.o)
 .debug_str     0x00007428        0x0 c:/program files/microchip/xc32/v4.10/bin/bin/../../lib/gcc/pic32c/8.3.1/../../../../pic32c/lib/thumb/v7e-m+fp/hard\libc-musl.a(stpncpy.o)
 .debug_str     0x00007428        0xc c:/program files/microchip/xc32/v4.10/bin/bin/../../lib/gcc/pic32c/8.3.1/../../../../pic32c/lib/thumb/v7e-m+fp/hard\libc-musl.a(strcspn.o)
 .debug_str     0x00007434        0x0 c:/program files/microchip/xc32/v4.10/bin/bin/../../lib/gcc/pic32c/8.3.1/../../../../pic32c/lib/thumb/v7e-m+fp/hard\libc-musl.a(strspn.o)
 .debug_str     0x00007434        0x0 c:/program files/microchip/xc32/v4.10/bin/bin/../../lib/gcc/pic32c/8.3.1/../../../../pic32c/lib/thumb/v7e-m+fp/hard\libc-musl.a(__secs_to_tm.o)
 .debug_str     0x00007434       0x1b c:/program files/microchip/xc32/v4.10/bin/bin/../../lib/gcc/pic32c/8.3.1/../../../../pic32c/lib/thumb/v7e-m+fp/hard\libc-musl.a(clock_gettime.o)
 .debug_str     0x0000744f        0x0 c:/program files/microchip/xc32/v4.10/bin/bin/../../lib/gcc/pic32c/8.3.1/../../../../pic32c/lib/thumb/v7e-m+fp/hard\libc-musl.a(gettimeofday.o)
 .debug_str     0x0000744f        0x0 c:/program files/microchip/xc32/v4.10/bin/bin/../../lib/gcc/pic32c/8.3.1/../../../../pic32c/lib/thumb/v7e-m+fp/hard\libc-musl.a(syscall_ret.o)
 .debug_str     0x0000744f       0x14 c:/program files/microchip/xc32/v4.10/bin/bin/../../lib/gcc/pic32c/8.3.1/../../../../pic32c/lib/thumb/v7e-m+fp/hard\libc-musl.a(__toread.o)
 .debug_str     0x00007463       0x20 c:/program files/microchip/xc32/v4.10/bin/bin/../../lib/gcc/pic32c/8.3.1/../../../../pic32c/lib/thumb/v7e-m+fp/hard\libc-musl.a(__printf_core.o)
 .debug_str     0x00007483        0x0 c:/program files/microchip/xc32/v4.10/bin/bin/../../lib/gcc/pic32c/8.3.1/../../../../pic32c/lib/thumb/v7e-m+fp/hard\libc-musl.a(__fmt_a.o)
 .debug_str     0x00007483        0x0 c:/program files/microchip/xc32/v4.10/bin/bin/../../lib/gcc/pic32c/8.3.1/../../../../pic32c/lib/thumb/v7e-m+fp/hard\libc-musl.a(__fmt_d.o)
 .debug_str     0x00007483        0x0 c:/program files/microchip/xc32/v4.10/bin/bin/../../lib/gcc/pic32c/8.3.1/../../../../pic32c/lib/thumb/v7e-m+fp/hard\libc-musl.a(__fmt_fp.o)
 .debug_str     0x00007483        0x0 c:/program files/microchip/xc32/v4.10/bin/bin/../../lib/gcc/pic32c/8.3.1/../../../../pic32c/lib/thumb/v7e-m+fp/hard\libc-musl.a(__fmt_o.o)
 .debug_str     0x00007483        0x0 c:/program files/microchip/xc32/v4.10/bin/bin/../../lib/gcc/pic32c/8.3.1/../../../../pic32c/lib/thumb/v7e-m+fp/hard\libc-musl.a(__fmt_s.o)
 .debug_str     0x00007483        0x6 c:/program files/microchip/xc32/v4.10/bin/bin/../../lib/gcc/pic32c/8.3.1/../../../../pic32c/lib/thumb/v7e-m+fp/hard\libc-musl.a(__fmt_u.o)
 .debug_str     0x00007489        0x0 c:/program files/microchip/xc32/v4.10/bin/bin/../../lib/gcc/pic32c/8.3.1/../../../../pic32c/lib/thumb/v7e-m+fp/hard\libc-musl.a(__fmt_x.o)
 .debug_str     0x00007489        0x0 c:/program files/microchip/xc32/v4.10/bin/bin/../../lib/gcc/pic32c/8.3.1/../../../../pic32c/lib/thumb/v7e-m+fp/hard\libc-musl.a(__pop_float.o)
 .debug_str     0x00007489        0x0 c:/program files/microchip/xc32/v4.10/bin/bin/../../lib/gcc/pic32c/8.3.1/../../../../pic32c/lib/thumb/v7e-m+fp/hard\libc-musl.a(__pop_int.o)
 .debug_str     0x00007489        0x0 c:/program files/microchip/xc32/v4.10/bin/bin/../../lib/gcc/pic32c/8.3.1/../../../../pic32c/lib/thumb/v7e-m+fp/hard\libc-musl.a(__pop_ptr.o)
 .debug_str     0x00007489       0xf2 c:/program files/microchip/xc32/v4.10/bin/bin/../../lib/gcc/pic32c/8.3.1/thumb/v7e-m+fp/hard\libgcc.a(_aeabi_ldivmod.o)
 .debug_str     0x0000757b       0xf2 c:/program files/microchip/xc32/v4.10/bin/bin/../../lib/gcc/pic32c/8.3.1/thumb/v7e-m+fp/hard\libgcc.a(_aeabi_uldivmod.o)
 .debug_str     0x0000766d        0x0 c:/program files/microchip/xc32/v4.10/bin/bin/../../lib/gcc/pic32c/8.3.1/thumb/v7e-m+fp/hard\libgcc.a(_udivmoddi4.o)
 .debug_str     0x0000766d       0xf6 c:/program files/microchip/xc32/v4.10/bin/bin/../../lib/gcc/pic32c/8.3.1/thumb/v7e-m+fp/hard\libgcc.a(_dvmd_tls.o)
 .debug_str     0x00007763        0x0 c:/program files/microchip/xc32/v4.10/bin/bin/../../lib/gcc/pic32c/8.3.1/../../../../pic32c/lib/thumb/v7e-m+fp/hard\libpic32c.a(sbrk.o)

.debug_frame    0x00000000     0xd8e0
 .debug_frame   0x00000000      0x5f8 build/FreeRTOS/production/_ext/1609394304/crypto.o
 .debug_frame   0x000005f8      0x79c build/FreeRTOS/production/_ext/1231519722/drv_ethphy.o
 .debug_frame   0x00000d94      0x108 build/FreeRTOS/production/_ext/1231519722/drv_extphy_lan867x.o
 .debug_frame   0x00000e9c      0x408 build/FreeRTOS/production/_ext/41526634/drv_gmac.o
 .debug_frame   0x000012a4      0x6ec build/FreeRTOS/production/_ext/41526634/drv_gmac_lib_samE5x.o
 .debug_frame   0x00001990      0x2bc build/FreeRTOS/production/_ext/1149484450/drv_miim.o
 .debug_frame   0x00001c4c       0xe8 build/FreeRTOS/production/_ext/540595297/helpers.o
 .debug_frame   0x00001d34      0x10c build/FreeRTOS/production/_ext/540595297/icmp.o
 .debug_frame   0x00001e40      0x7b8 build/FreeRTOS/production/_ext/540595297/tcp.o
 .debug_frame   0x000025f8      0x488 build/FreeRTOS/production/_ext/540595297/arp.o
 .debug_frame   0x00002a80      0x3c0 build/FreeRTOS/production/_ext/540595297/tcpip_commands.o
 .debug_frame   0x00002e40      0x280 build/FreeRTOS/production/_ext/540595297/iperf.o
 .debug_frame   0x000030c0      0x34c build/FreeRTOS/production/_ext/540595297/ipv4.o
 .debug_frame   0x0000340c       0xa8 build/FreeRTOS/production/_ext/540595297/tcpip_heap_alloc.o
 .debug_frame   0x000034b4      0x12c build/FreeRTOS/production/_ext/540595297/tcpip_heap_internal.o
 .debug_frame   0x000035e0      0x568 build/FreeRTOS/production/_ext/540595297/dhcp.o
 .debug_frame   0x00003b48      0x450 build/FreeRTOS/production/_ext/540595297/dns.o
 .debug_frame   0x00003f98       0x30 build/FreeRTOS/production/_ext/540595297/hash_fnv.o
 .debug_frame   0x00003fc8       0xd0 build/FreeRTOS/production/_ext/540595297/oahash.o
 .debug_frame   0x00004098      0x720 build/FreeRTOS/production/_ext/540595297/tcpip_helpers.o
 .debug_frame   0x000047b8      0xb24 build/FreeRTOS/production/_ext/540595297/tcpip_manager.o
 .debug_frame   0x000052dc       0xb8 build/FreeRTOS/production/_ext/540595297/tcpip_notify.o
 .debug_frame   0x00005394      0x168 build/FreeRTOS/production/_ext/540595297/tcpip_packet.o
 .debug_frame   0x000054fc      0x634 build/FreeRTOS/production/_ext/540595297/udp.o
 .debug_frame   0x00005b30      0x180 build/FreeRTOS/production/_ext/891571577/osal_freertos.o
 .debug_frame   0x00005cb0       0x20 build/FreeRTOS/production/_ext/892004133/plib_clock.o
 .debug_frame   0x00005cd0       0x20 build/FreeRTOS/production/_ext/894153619/plib_evsys.o
 .debug_frame   0x00005cf0       0x5c build/FreeRTOS/production/_ext/1494909205/plib_nvic.o
 .debug_frame   0x00005d4c      0x1dc build/FreeRTOS/production/_ext/320424729/plib_nvmctrl.o
 .debug_frame   0x00005f28       0xd8 build/FreeRTOS/production/_ext/1494856054/plib_port.o
 .debug_frame   0x00006000      0x210 build/FreeRTOS/production/_ext/2092608928/plib_sercom1_usart.o
 .debug_frame   0x00006210       0xd8 build/FreeRTOS/production/_ext/579449528/plib_tc0.o
 .debug_frame   0x000062e8       0x30 build/FreeRTOS/production/_ext/1494734144/plib_trng.o
 .debug_frame   0x00006318      0x2ec build/FreeRTOS/production/_ext/1005353002/sys_command.o
 .debug_frame   0x00006604      0x11c build/FreeRTOS/production/_ext/548640822/sys_console_uart.o
 .debug_frame   0x00006720      0x1d0 build/FreeRTOS/production/_ext/548640822/sys_console.o
 .debug_frame   0x000068f0       0x70 build/FreeRTOS/production/_ext/147610190/sys_debug.o
 .debug_frame   0x00006960       0x84 build/FreeRTOS/production/_ext/1690414130/sys_int.o
 .debug_frame   0x000069e4       0x20 build/FreeRTOS/production/_ext/1093154855/sys_reset.o
 .debug_frame   0x00006a04      0x400 build/FreeRTOS/production/_ext/832704728/sys_time.o
 .debug_frame   0x00006e04       0x88 build/FreeRTOS/production/_ext/2072568807/sys_time_h2_adapter.o
 .debug_frame   0x00006e8c       0xc8 build/FreeRTOS/production/_ext/2072568807/sys_random_h2_adapter.o
 .debug_frame   0x00006f54       0xe0 build/FreeRTOS/production/_ext/161576091/tasks.o
 .debug_frame   0x00007034       0x60 build/FreeRTOS/production/_ext/161576091/initialization.o
 .debug_frame   0x00007094       0x20 build/FreeRTOS/production/_ext/161576091/interrupts.o
 .debug_frame   0x000070b4       0x70 build/FreeRTOS/production/_ext/161576091/exceptions.o
 .debug_frame   0x00007124       0x38 build/FreeRTOS/production/_ext/161576091/startup_xc32.o
 .debug_frame   0x0000715c       0x6c build/FreeRTOS/production/_ext/161576091/freertos_hooks.o
 .debug_frame   0x000071c8       0xe8 build/FreeRTOS/production/_ext/246609638/port.o
 .debug_frame   0x000072b0       0x5c build/FreeRTOS/production/_ext/1665200909/heap_1.o
 .debug_frame   0x0000730c       0x6c build/FreeRTOS/production/_ext/404212886/list.o
 .debug_frame   0x00007378      0x29c build/FreeRTOS/production/_ext/404212886/queue.o
 .debug_frame   0x00007614      0x498 build/FreeRTOS/production/_ext/404212886/FreeRTOS_tasks.o
 .debug_frame   0x00007aac       0x38 build/FreeRTOS/production/_ext/172253694/crypt_wolfcryptcb.o
 .debug_frame   0x00007ae4     0x103c build/FreeRTOS/production/_ext/1664057780/asn.o
 .debug_frame   0x00008b20       0x68 build/FreeRTOS/production/_ext/1664057780/coding.o
 .debug_frame   0x00008b88      0x4b4 build/FreeRTOS/production/_ext/1664057780/cryptocb.o
 .debug_frame   0x0000903c      0x1e4 build/FreeRTOS/production/_ext/1664057780/hash.o
 .debug_frame   0x00009220      0x174 build/FreeRTOS/production/_ext/1664057780/hmac.o
 .debug_frame   0x00009394      0x138 build/FreeRTOS/production/_ext/1664057780/md5.o
 .debug_frame   0x000094cc      0x488 build/FreeRTOS/production/_ext/1664057780/rsa.o
 .debug_frame   0x00009954      0xf9c build/FreeRTOS/production/_ext/1664057780/tfm.o
 .debug_frame   0x0000a8f0      0x170 build/FreeRTOS/production/_ext/1664057780/wc_port.o
 .debug_frame   0x0000aa60       0xc8 build/FreeRTOS/production/_ext/1664057780/wolfmath.o
 .debug_frame   0x0000ab28      0x6e4 build/FreeRTOS/production/_ext/1664057780/aes.o
 .debug_frame   0x0000b20c      0x1fc build/FreeRTOS/production/_ext/1664057780/des3.o
 .debug_frame   0x0000b408      0x320 build/FreeRTOS/production/_ext/1664057780/random.o
 .debug_frame   0x0000b728      0x154 build/FreeRTOS/production/_ext/1664057780/sha.o
 .debug_frame   0x0000b87c      0x250 build/FreeRTOS/production/_ext/1664057780/sha256.o
 .debug_frame   0x0000bacc      0xd1c build/FreeRTOS/production/_ext/1664057780/ecc.o
 .debug_frame   0x0000c7e8       0xb8 build/FreeRTOS/production/_ext/1360937237/app.o
 .debug_frame   0x0000c8a0       0x28 build/FreeRTOS/production/_ext/1360937237/main.o
 .debug_frame   0x0000c8c8       0xdc build/FreeRTOS/production/_ext/1360937237/bc_com.o
 .debug_frame   0x0000c9a4      0x188 build/FreeRTOS/production/_ext/1360937237/bc_test.o
 .debug_frame   0x0000cb2c       0x38 c:/program files/microchip/xc32/v4.10/bin/bin/../../lib/gcc/pic32c/8.3.1/../../../../pic32c/lib/thumb/v7e-m+fp/hard\libpic32c.a(data_init.o)
 .debug_frame   0x0000cb64       0x30 c:/program files/microchip/xc32/v4.10/bin/bin/../../lib/gcc/pic32c/8.3.1/../../../../pic32c/lib/thumb/v7e-m+fp/hard\libc-musl.a(isalnum.o)
 .debug_frame   0x0000cb94       0x30 c:/program files/microchip/xc32/v4.10/bin/bin/../../lib/gcc/pic32c/8.3.1/../../../../pic32c/lib/thumb/v7e-m+fp/hard\libc-musl.a(isxdigit.o)
 .debug_frame   0x0000cbc4       0x30 c:/program files/microchip/xc32/v4.10/bin/bin/../../lib/gcc/pic32c/8.3.1/../../../../pic32c/lib/thumb/v7e-m+fp/hard\libc-musl.a(tolower.o)
 .debug_frame   0x0000cbf4       0x30 c:/program files/microchip/xc32/v4.10/bin/bin/../../lib/gcc/pic32c/8.3.1/../../../../pic32c/lib/thumb/v7e-m+fp/hard\libc-musl.a(toupper.o)
 .debug_frame   0x0000cc24       0x3c c:/program files/microchip/xc32/v4.10/bin/bin/../../lib/gcc/pic32c/8.3.1/../../../../pic32c/lib/thumb/v7e-m+fp/hard\libc-musl.a(__libc_start_main.o)
 .debug_frame   0x0000cc60      0x150 c:/program files/microchip/xc32/v4.10/bin/bin/../../lib/gcc/pic32c/8.3.1/../../../../pic32c/lib/thumb/v7e-m+fp/hard\libc-musl.a(malloc.o)
 .debug_frame   0x0000cdb0       0x28 c:/program files/microchip/xc32/v4.10/bin/bin/../../lib/gcc/pic32c/8.3.1/../../../../pic32c/lib/thumb/v7e-m+fp/hard\libc-musl.a(expand_heap.o)
 .debug_frame   0x0000cdd8       0x30 c:/program files/microchip/xc32/v4.10/bin/bin/../../lib/gcc/pic32c/8.3.1/../../../../pic32c/lib/thumb/v7e-m+fp/hard\libc-musl.a(rand.o)
 .debug_frame   0x0000ce08       0x38 c:/program files/microchip/xc32/v4.10/bin/bin/../../lib/gcc/pic32c/8.3.1/../../../../pic32c/lib/thumb/v7e-m+fp/hard\libc-musl.a(vsnprintf.o)
 .debug_frame   0x0000ce40       0x38 c:/program files/microchip/xc32/v4.10/bin/bin/../../lib/gcc/pic32c/8.3.1/../../../../pic32c/lib/thumb/v7e-m+fp/hard\libc-musl.a(snprintf.o)
 .debug_frame   0x0000ce78       0x3c c:/program files/microchip/xc32/v4.10/bin/bin/../../lib/gcc/pic32c/8.3.1/../../../../pic32c/lib/thumb/v7e-m+fp/hard\libc-musl.a(sprintf.o)
 .debug_frame   0x0000ceb4       0x20 c:/program files/microchip/xc32/v4.10/bin/bin/../../lib/gcc/pic32c/8.3.1/../../../../pic32c/lib/thumb/v7e-m+fp/hard\libc-musl.a(vsprintf.o)
 .debug_frame   0x0000ced4       0x28 c:/program files/microchip/xc32/v4.10/bin/bin/../../lib/gcc/pic32c/8.3.1/../../../../pic32c/lib/thumb/v7e-m+fp/hard\libc-musl.a(atoi.o)
 .debug_frame   0x0000cefc       0xc4 c:/program files/microchip/xc32/v4.10/bin/bin/../../lib/gcc/pic32c/8.3.1/../../../../pic32c/lib/thumb/v7e-m+fp/hard\libc-musl.a(strtol.o)
 .debug_frame   0x0000cfc0       0x2c c:/program files/microchip/xc32/v4.10/bin/bin/../../lib/gcc/pic32c/8.3.1/../../../../pic32c/lib/thumb/v7e-m+fp/hard\libc-musl.a(memcmp.o)
 .debug_frame   0x0000cfec       0x28 c:/program files/microchip/xc32/v4.10/bin/bin/../../lib/gcc/pic32c/8.3.1/../../../../pic32c/lib/thumb/v7e-m+fp/hard\libc-musl.a(memcpy.o)
 .debug_frame   0x0000d014       0x28 c:/program files/microchip/xc32/v4.10/bin/bin/../../lib/gcc/pic32c/8.3.1/../../../../pic32c/lib/thumb/v7e-m+fp/hard\libc-musl.a(memmove.o)
 .debug_frame   0x0000d03c       0x20 c:/program files/microchip/xc32/v4.10/bin/bin/../../lib/gcc/pic32c/8.3.1/../../../../pic32c/lib/thumb/v7e-m+fp/hard\libc-musl.a(memset.o)
 .debug_frame   0x0000d05c       0x20 c:/program files/microchip/xc32/v4.10/bin/bin/../../lib/gcc/pic32c/8.3.1/../../../../pic32c/lib/thumb/v7e-m+fp/hard\libc-musl.a(strlen.o)
 .debug_frame   0x0000d07c       0x28 c:/program files/microchip/xc32/v4.10/bin/bin/../../lib/gcc/pic32c/8.3.1/../../../../pic32c/lib/thumb/v7e-m+fp/hard\libc-musl.a(strchr.o)
 .debug_frame   0x0000d0a4       0x30 c:/program files/microchip/xc32/v4.10/bin/bin/../../lib/gcc/pic32c/8.3.1/../../../../pic32c/lib/thumb/v7e-m+fp/hard\libc-musl.a(strchrnul.o)
 .debug_frame   0x0000d0d4       0x20 c:/program files/microchip/xc32/v4.10/bin/bin/../../lib/gcc/pic32c/8.3.1/../../../../pic32c/lib/thumb/v7e-m+fp/hard\libc-musl.a(strcmp.o)
 .debug_frame   0x0000d0f4       0x28 c:/program files/microchip/xc32/v4.10/bin/bin/../../lib/gcc/pic32c/8.3.1/../../../../pic32c/lib/thumb/v7e-m+fp/hard\libc-musl.a(strcpy.o)
 .debug_frame   0x0000d11c       0x28 c:/program files/microchip/xc32/v4.10/bin/bin/../../lib/gcc/pic32c/8.3.1/../../../../pic32c/lib/thumb/v7e-m+fp/hard\libc-musl.a(strncmp.o)
 .debug_frame   0x0000d144       0x28 c:/program files/microchip/xc32/v4.10/bin/bin/../../lib/gcc/pic32c/8.3.1/../../../../pic32c/lib/thumb/v7e-m+fp/hard\libc-musl.a(strncpy.o)
 .debug_frame   0x0000d16c       0x34 c:/program files/microchip/xc32/v4.10/bin/bin/../../lib/gcc/pic32c/8.3.1/../../../../pic32c/lib/thumb/v7e-m+fp/hard\libc-musl.a(strrchr.o)
 .debug_frame   0x0000d1a0       0x2c c:/program files/microchip/xc32/v4.10/bin/bin/../../lib/gcc/pic32c/8.3.1/../../../../pic32c/lib/thumb/v7e-m+fp/hard\libc-musl.a(strtok.o)
 .debug_frame   0x0000d1cc       0x20 c:/program files/microchip/xc32/v4.10/bin/bin/../../lib/gcc/pic32c/8.3.1/../../../../pic32c/lib/thumb/v7e-m+fp/hard\libc-musl.a(gmtime.o)
 .debug_frame   0x0000d1ec       0x2c c:/program files/microchip/xc32/v4.10/bin/bin/../../lib/gcc/pic32c/8.3.1/../../../../pic32c/lib/thumb/v7e-m+fp/hard\libc-musl.a(gmtime_r.o)
 .debug_frame   0x0000d218       0x2c c:/program files/microchip/xc32/v4.10/bin/bin/../../lib/gcc/pic32c/8.3.1/../../../../pic32c/lib/thumb/v7e-m+fp/hard\libc-musl.a(time.o)
 .debug_frame   0x0000d244       0x40 c:/program files/microchip/xc32/v4.10/bin/bin/../../lib/gcc/pic32c/8.3.1/../../../../pic32c/lib/thumb/v7e-m+fp/hard\libc-musl.a(intscan.o)
 .debug_frame   0x0000d284       0x54 c:/program files/microchip/xc32/v4.10/bin/bin/../../lib/gcc/pic32c/8.3.1/../../../../pic32c/lib/thumb/v7e-m+fp/hard\libc-musl.a(shgetc.o)
 .debug_frame   0x0000d2d8       0x30 c:/program files/microchip/xc32/v4.10/bin/bin/../../lib/gcc/pic32c/8.3.1/../../../../pic32c/lib/thumb/v7e-m+fp/hard\libc-musl.a(__uflow.o)
 .debug_frame   0x0000d308       0x3c c:/program files/microchip/xc32/v4.10/bin/bin/../../lib/gcc/pic32c/8.3.1/../../../../pic32c/lib/thumb/v7e-m+fp/hard\libc-musl.a(vfprintf.o)
 .debug_frame   0x0000d344       0x28 c:/program files/microchip/xc32/v4.10/bin/bin/../../lib/gcc/pic32c/8.3.1/../../../../pic32c/lib/thumb/v7e-m+fp/hard\libc-musl.a(memrchr.o)
 .debug_frame   0x0000d36c       0x20 c:/program files/microchip/xc32/v4.10/bin/bin/../../lib/gcc/pic32c/8.3.1/../../../../pic32c/lib/thumb/v7e-m+fp/hard\libc-musl.a(stpcpy.o)
 .debug_frame   0x0000d38c       0x28 c:/program files/microchip/xc32/v4.10/bin/bin/../../lib/gcc/pic32c/8.3.1/../../../../pic32c/lib/thumb/v7e-m+fp/hard\libc-musl.a(stpncpy.o)
 .debug_frame   0x0000d3b4       0x34 c:/program files/microchip/xc32/v4.10/bin/bin/../../lib/gcc/pic32c/8.3.1/../../../../pic32c/lib/thumb/v7e-m+fp/hard\libc-musl.a(strcspn.o)
 .debug_frame   0x0000d3e8       0x34 c:/program files/microchip/xc32/v4.10/bin/bin/../../lib/gcc/pic32c/8.3.1/../../../../pic32c/lib/thumb/v7e-m+fp/hard\libc-musl.a(strspn.o)
 .debug_frame   0x0000d41c       0x38 c:/program files/microchip/xc32/v4.10/bin/bin/../../lib/gcc/pic32c/8.3.1/../../../../pic32c/lib/thumb/v7e-m+fp/hard\libc-musl.a(__secs_to_tm.o)
 .debug_frame   0x0000d454       0x30 c:/program files/microchip/xc32/v4.10/bin/bin/../../lib/gcc/pic32c/8.3.1/../../../../pic32c/lib/thumb/v7e-m+fp/hard\libc-musl.a(clock_gettime.o)
 .debug_frame   0x0000d484       0x20 c:/program files/microchip/xc32/v4.10/bin/bin/../../lib/gcc/pic32c/8.3.1/../../../../pic32c/lib/thumb/v7e-m+fp/hard\libc-musl.a(gettimeofday.o)
 .debug_frame   0x0000d4a4       0x20 c:/program files/microchip/xc32/v4.10/bin/bin/../../lib/gcc/pic32c/8.3.1/../../../../pic32c/lib/thumb/v7e-m+fp/hard\libc-musl.a(syscall_ret.o)
 .debug_frame   0x0000d4c4       0x38 c:/program files/microchip/xc32/v4.10/bin/bin/../../lib/gcc/pic32c/8.3.1/../../../../pic32c/lib/thumb/v7e-m+fp/hard\libc-musl.a(__toread.o)
 .debug_frame   0x0000d4fc       0xd8 c:/program files/microchip/xc32/v4.10/bin/bin/../../lib/gcc/pic32c/8.3.1/../../../../pic32c/lib/thumb/v7e-m+fp/hard\libc-musl.a(__printf_core.o)
 .debug_frame   0x0000d5d4       0x40 c:/program files/microchip/xc32/v4.10/bin/bin/../../lib/gcc/pic32c/8.3.1/../../../../pic32c/lib/thumb/v7e-m+fp/hard\libc-musl.a(__fmt_a.o)
 .debug_frame   0x0000d614       0x3c c:/program files/microchip/xc32/v4.10/bin/bin/../../lib/gcc/pic32c/8.3.1/../../../../pic32c/lib/thumb/v7e-m+fp/hard\libc-musl.a(__fmt_d.o)
 .debug_frame   0x0000d650       0x50 c:/program files/microchip/xc32/v4.10/bin/bin/../../lib/gcc/pic32c/8.3.1/../../../../pic32c/lib/thumb/v7e-m+fp/hard\libc-musl.a(__fmt_fp.o)
 .debug_frame   0x0000d6a0       0x34 c:/program files/microchip/xc32/v4.10/bin/bin/../../lib/gcc/pic32c/8.3.1/../../../../pic32c/lib/thumb/v7e-m+fp/hard\libc-musl.a(__fmt_o.o)
 .debug_frame   0x0000d6d4       0x34 c:/program files/microchip/xc32/v4.10/bin/bin/../../lib/gcc/pic32c/8.3.1/../../../../pic32c/lib/thumb/v7e-m+fp/hard\libc-musl.a(__fmt_s.o)
 .debug_frame   0x0000d708       0x5c c:/program files/microchip/xc32/v4.10/bin/bin/../../lib/gcc/pic32c/8.3.1/../../../../pic32c/lib/thumb/v7e-m+fp/hard\libc-musl.a(__fmt_u.o)
 .debug_frame   0x0000d764       0x40 c:/program files/microchip/xc32/v4.10/bin/bin/../../lib/gcc/pic32c/8.3.1/../../../../pic32c/lib/thumb/v7e-m+fp/hard\libc-musl.a(__fmt_x.o)
 .debug_frame   0x0000d7a4       0x20 c:/program files/microchip/xc32/v4.10/bin/bin/../../lib/gcc/pic32c/8.3.1/../../../../pic32c/lib/thumb/v7e-m+fp/hard\libc-musl.a(__pop_float.o)
 .debug_frame   0x0000d7c4       0x2c c:/program files/microchip/xc32/v4.10/bin/bin/../../lib/gcc/pic32c/8.3.1/../../../../pic32c/lib/thumb/v7e-m+fp/hard\libc-musl.a(__pop_int.o)
 .debug_frame   0x0000d7f0       0x28 c:/program files/microchip/xc32/v4.10/bin/bin/../../lib/gcc/pic32c/8.3.1/../../../../pic32c/lib/thumb/v7e-m+fp/hard\libc-musl.a(__pop_ptr.o)
 .debug_frame   0x0000d818       0x44 c:/program files/microchip/xc32/v4.10/bin/bin/../../lib/gcc/pic32c/8.3.1/thumb/v7e-m+fp/hard\libgcc.a(_aeabi_ldivmod.o)
 .debug_frame   0x0000d85c       0x2c c:/program files/microchip/xc32/v4.10/bin/bin/../../lib/gcc/pic32c/8.3.1/thumb/v7e-m+fp/hard\libgcc.a(_aeabi_uldivmod.o)
 .debug_frame   0x0000d888       0x38 c:/program files/microchip/xc32/v4.10/bin/bin/../../lib/gcc/pic32c/8.3.1/thumb/v7e-m+fp/hard\libgcc.a(_udivmoddi4.o)
 .debug_frame   0x0000d8c0       0x20 c:/program files/microchip/xc32/v4.10/bin/bin/../../lib/gcc/pic32c/8.3.1/../../../../pic32c/lib/thumb/v7e-m+fp/hard\libpic32c.a(sbrk.o)

.debug_ranges   0x00000000     0x5718
 .debug_ranges  0x00000000       0xf0 build/FreeRTOS/production/_ext/1231519722/drv_ethphy.o
 .debug_ranges  0x000000f0       0xd8 build/FreeRTOS/production/_ext/41526634/drv_gmac.o
 .debug_ranges  0x000001c8      0x198 build/FreeRTOS/production/_ext/41526634/drv_gmac_lib_samE5x.o
 .debug_ranges  0x00000360      0x1c8 build/FreeRTOS/production/_ext/1149484450/drv_miim.o
 .debug_ranges  0x00000528       0xe8 build/FreeRTOS/production/_ext/540595297/icmp.o
 .debug_ranges  0x00000610      0x468 build/FreeRTOS/production/_ext/540595297/tcp.o
 .debug_ranges  0x00000a78      0x398 build/FreeRTOS/production/_ext/540595297/arp.o
 .debug_ranges  0x00000e10      0x168 build/FreeRTOS/production/_ext/540595297/tcpip_commands.o
 .debug_ranges  0x00000f78      0x220 build/FreeRTOS/production/_ext/540595297/iperf.o
 .debug_ranges  0x00001198      0x1e0 build/FreeRTOS/production/_ext/540595297/ipv4.o
 .debug_ranges  0x00001378       0xb8 build/FreeRTOS/production/_ext/540595297/tcpip_heap_internal.o
 .debug_ranges  0x00001430      0x398 build/FreeRTOS/production/_ext/540595297/dhcp.o
 .debug_ranges  0x000017c8      0x1f8 build/FreeRTOS/production/_ext/540595297/dns.o
 .debug_ranges  0x000019c0       0x78 build/FreeRTOS/production/_ext/540595297/tcpip_helpers.o
 .debug_ranges  0x00001a38      0x678 build/FreeRTOS/production/_ext/540595297/tcpip_manager.o
 .debug_ranges  0x000020b0       0x60 build/FreeRTOS/production/_ext/540595297/tcpip_packet.o
 .debug_ranges  0x00002110      0x2c8 build/FreeRTOS/production/_ext/540595297/udp.o
 .debug_ranges  0x000023d8      0x140 build/FreeRTOS/production/_ext/2092608928/plib_sercom1_usart.o
 .debug_ranges  0x00002518       0xc0 build/FreeRTOS/production/_ext/1005353002/sys_command.o
 .debug_ranges  0x000025d8       0x48 build/FreeRTOS/production/_ext/832704728/sys_time.o
 .debug_ranges  0x00002620       0x10 build/FreeRTOS/production/_ext/161576091/interrupts.o
 .debug_ranges  0x00002630       0x18 build/FreeRTOS/production/_ext/161576091/startup_xc32.o
 .debug_ranges  0x00002648       0xc0 build/FreeRTOS/production/_ext/404212886/queue.o
 .debug_ranges  0x00002708      0x158 build/FreeRTOS/production/_ext/404212886/FreeRTOS_tasks.o
 .debug_ranges  0x00002860      0x6a0 build/FreeRTOS/production/_ext/1664057780/asn.o
 .debug_ranges  0x00002f00       0x40 build/FreeRTOS/production/_ext/1664057780/coding.o
 .debug_ranges  0x00002f40      0x168 build/FreeRTOS/production/_ext/1664057780/cryptocb.o
 .debug_ranges  0x000030a8       0x18 build/FreeRTOS/production/_ext/1664057780/md5.o
 .debug_ranges  0x000030c0      0x358 build/FreeRTOS/production/_ext/1664057780/rsa.o
 .debug_ranges  0x00003418      0x1d0 build/FreeRTOS/production/_ext/1664057780/tfm.o
 .debug_ranges  0x000035e8      0xa68 build/FreeRTOS/production/_ext/1664057780/aes.o
 .debug_ranges  0x00004050      0x3d8 build/FreeRTOS/production/_ext/1664057780/des3.o
 .debug_ranges  0x00004428       0xe0 build/FreeRTOS/production/_ext/1664057780/random.o
 .debug_ranges  0x00004508      0x678 build/FreeRTOS/production/_ext/1664057780/sha.o
 .debug_ranges  0x00004b80      0x358 build/FreeRTOS/production/_ext/1664057780/sha256.o
 .debug_ranges  0x00004ed8      0x158 build/FreeRTOS/production/_ext/1664057780/ecc.o
 .debug_ranges  0x00005030       0x10 c:/program files/microchip/xc32/v4.10/bin/bin/../../lib/gcc/pic32c/8.3.1/../../../../pic32c/lib/thumb/v7e-m+fp/hard\libpic32c.a(data_init.o)
 .debug_ranges  0x00005040       0x18 c:/program files/microchip/xc32/v4.10/bin/bin/../../lib/gcc/pic32c/8.3.1/../../../../pic32c/lib/thumb/v7e-m+fp/hard\libc-musl.a(isalnum.o)
 .debug_ranges  0x00005058       0x18 c:/program files/microchip/xc32/v4.10/bin/bin/../../lib/gcc/pic32c/8.3.1/../../../../pic32c/lib/thumb/v7e-m+fp/hard\libc-musl.a(isxdigit.o)
 .debug_ranges  0x00005070       0x18 c:/program files/microchip/xc32/v4.10/bin/bin/../../lib/gcc/pic32c/8.3.1/../../../../pic32c/lib/thumb/v7e-m+fp/hard\libc-musl.a(tolower.o)
 .debug_ranges  0x00005088       0x18 c:/program files/microchip/xc32/v4.10/bin/bin/../../lib/gcc/pic32c/8.3.1/../../../../pic32c/lib/thumb/v7e-m+fp/hard\libc-musl.a(toupper.o)
 .debug_ranges  0x000050a0       0x40 c:/program files/microchip/xc32/v4.10/bin/bin/../../lib/gcc/pic32c/8.3.1/../../../../pic32c/lib/thumb/v7e-m+fp/hard\libc-musl.a(__libc_start_main.o)
 .debug_ranges  0x000050e0      0x1a0 c:/program files/microchip/xc32/v4.10/bin/bin/../../lib/gcc/pic32c/8.3.1/../../../../pic32c/lib/thumb/v7e-m+fp/hard\libc-musl.a(malloc.o)
 .debug_ranges  0x00005280       0x10 c:/program files/microchip/xc32/v4.10/bin/bin/../../lib/gcc/pic32c/8.3.1/../../../../pic32c/lib/thumb/v7e-m+fp/hard\libc-musl.a(expand_heap.o)
 .debug_ranges  0x00005290       0x18 c:/program files/microchip/xc32/v4.10/bin/bin/../../lib/gcc/pic32c/8.3.1/../../../../pic32c/lib/thumb/v7e-m+fp/hard\libc-musl.a(rand.o)
 .debug_ranges  0x000052a8       0x10 c:/program files/microchip/xc32/v4.10/bin/bin/../../lib/gcc/pic32c/8.3.1/../../../../pic32c/lib/thumb/v7e-m+fp/hard\libc-musl.a(vsnprintf.o)
 .debug_ranges  0x000052b8       0x10 c:/program files/microchip/xc32/v4.10/bin/bin/../../lib/gcc/pic32c/8.3.1/../../../../pic32c/lib/thumb/v7e-m+fp/hard\libc-musl.a(snprintf.o)
 .debug_ranges  0x000052c8       0x10 c:/program files/microchip/xc32/v4.10/bin/bin/../../lib/gcc/pic32c/8.3.1/../../../../pic32c/lib/thumb/v7e-m+fp/hard\libc-musl.a(sprintf.o)
 .debug_ranges  0x000052d8       0x10 c:/program files/microchip/xc32/v4.10/bin/bin/../../lib/gcc/pic32c/8.3.1/../../../../pic32c/lib/thumb/v7e-m+fp/hard\libc-musl.a(vsprintf.o)
 .debug_ranges  0x000052e8       0x10 c:/program files/microchip/xc32/v4.10/bin/bin/../../lib/gcc/pic32c/8.3.1/../../../../pic32c/lib/thumb/v7e-m+fp/hard\libc-musl.a(atoi.o)
 .debug_ranges  0x000052f8       0x40 c:/program files/microchip/xc32/v4.10/bin/bin/../../lib/gcc/pic32c/8.3.1/../../../../pic32c/lib/thumb/v7e-m+fp/hard\libc-musl.a(strtol.o)
 .debug_ranges  0x00005338       0x10 c:/program files/microchip/xc32/v4.10/bin/bin/../../lib/gcc/pic32c/8.3.1/../../../../pic32c/lib/thumb/v7e-m+fp/hard\libc-musl.a(memcmp.o)
 .debug_ranges  0x00005348       0x10 c:/program files/microchip/xc32/v4.10/bin/bin/../../lib/gcc/pic32c/8.3.1/../../../../pic32c/lib/thumb/v7e-m+fp/hard\libc-musl.a(memcpy.o)
 .debug_ranges  0x00005358       0x10 c:/program files/microchip/xc32/v4.10/bin/bin/../../lib/gcc/pic32c/8.3.1/../../../../pic32c/lib/thumb/v7e-m+fp/hard\libc-musl.a(memmove.o)
 .debug_ranges  0x00005368       0x10 c:/program files/microchip/xc32/v4.10/bin/bin/../../lib/gcc/pic32c/8.3.1/../../../../pic32c/lib/thumb/v7e-m+fp/hard\libc-musl.a(memset.o)
 .debug_ranges  0x00005378       0x10 c:/program files/microchip/xc32/v4.10/bin/bin/../../lib/gcc/pic32c/8.3.1/../../../../pic32c/lib/thumb/v7e-m+fp/hard\libc-musl.a(strlen.o)
 .debug_ranges  0x00005388       0x10 c:/program files/microchip/xc32/v4.10/bin/bin/../../lib/gcc/pic32c/8.3.1/../../../../pic32c/lib/thumb/v7e-m+fp/hard\libc-musl.a(strchr.o)
 .debug_ranges  0x00005398       0x10 c:/program files/microchip/xc32/v4.10/bin/bin/../../lib/gcc/pic32c/8.3.1/../../../../pic32c/lib/thumb/v7e-m+fp/hard\libc-musl.a(strchrnul.o)
 .debug_ranges  0x000053a8       0x10 c:/program files/microchip/xc32/v4.10/bin/bin/../../lib/gcc/pic32c/8.3.1/../../../../pic32c/lib/thumb/v7e-m+fp/hard\libc-musl.a(strcmp.o)
 .debug_ranges  0x000053b8       0x10 c:/program files/microchip/xc32/v4.10/bin/bin/../../lib/gcc/pic32c/8.3.1/../../../../pic32c/lib/thumb/v7e-m+fp/hard\libc-musl.a(strcpy.o)
 .debug_ranges  0x000053c8       0x10 c:/program files/microchip/xc32/v4.10/bin/bin/../../lib/gcc/pic32c/8.3.1/../../../../pic32c/lib/thumb/v7e-m+fp/hard\libc-musl.a(strncmp.o)
 .debug_ranges  0x000053d8       0x10 c:/program files/microchip/xc32/v4.10/bin/bin/../../lib/gcc/pic32c/8.3.1/../../../../pic32c/lib/thumb/v7e-m+fp/hard\libc-musl.a(strncpy.o)
 .debug_ranges  0x000053e8       0x10 c:/program files/microchip/xc32/v4.10/bin/bin/../../lib/gcc/pic32c/8.3.1/../../../../pic32c/lib/thumb/v7e-m+fp/hard\libc-musl.a(strrchr.o)
 .debug_ranges  0x000053f8       0x10 c:/program files/microchip/xc32/v4.10/bin/bin/../../lib/gcc/pic32c/8.3.1/../../../../pic32c/lib/thumb/v7e-m+fp/hard\libc-musl.a(strtok.o)
 .debug_ranges  0x00005408       0x10 c:/program files/microchip/xc32/v4.10/bin/bin/../../lib/gcc/pic32c/8.3.1/../../../../pic32c/lib/thumb/v7e-m+fp/hard\libc-musl.a(gmtime.o)
 .debug_ranges  0x00005418       0x10 c:/program files/microchip/xc32/v4.10/bin/bin/../../lib/gcc/pic32c/8.3.1/../../../../pic32c/lib/thumb/v7e-m+fp/hard\libc-musl.a(gmtime_r.o)
 .debug_ranges  0x00005428       0x10 c:/program files/microchip/xc32/v4.10/bin/bin/../../lib/gcc/pic32c/8.3.1/../../../../pic32c/lib/thumb/v7e-m+fp/hard\libc-musl.a(time.o)
 .debug_ranges  0x00005438       0x28 c:/program files/microchip/xc32/v4.10/bin/bin/../../lib/gcc/pic32c/8.3.1/../../../../pic32c/lib/thumb/v7e-m+fp/hard\libc-musl.a(intscan.o)
 .debug_ranges  0x00005460       0x18 c:/program files/microchip/xc32/v4.10/bin/bin/../../lib/gcc/pic32c/8.3.1/../../../../pic32c/lib/thumb/v7e-m+fp/hard\libc-musl.a(shgetc.o)
 .debug_ranges  0x00005478       0x10 c:/program files/microchip/xc32/v4.10/bin/bin/../../lib/gcc/pic32c/8.3.1/../../../../pic32c/lib/thumb/v7e-m+fp/hard\libc-musl.a(__uflow.o)
 .debug_ranges  0x00005488       0x18 c:/program files/microchip/xc32/v4.10/bin/bin/../../lib/gcc/pic32c/8.3.1/../../../../pic32c/lib/thumb/v7e-m+fp/hard\libc-musl.a(vfprintf.o)
 .debug_ranges  0x000054a0       0x10 c:/program files/microchip/xc32/v4.10/bin/bin/../../lib/gcc/pic32c/8.3.1/../../../../pic32c/lib/thumb/v7e-m+fp/hard\libc-musl.a(memrchr.o)
 .debug_ranges  0x000054b0       0x10 c:/program files/microchip/xc32/v4.10/bin/bin/../../lib/gcc/pic32c/8.3.1/../../../../pic32c/lib/thumb/v7e-m+fp/hard\libc-musl.a(stpcpy.o)
 .debug_ranges  0x000054c0       0x10 c:/program files/microchip/xc32/v4.10/bin/bin/../../lib/gcc/pic32c/8.3.1/../../../../pic32c/lib/thumb/v7e-m+fp/hard\libc-musl.a(stpncpy.o)
 .debug_ranges  0x000054d0       0x10 c:/program files/microchip/xc32/v4.10/bin/bin/../../lib/gcc/pic32c/8.3.1/../../../../pic32c/lib/thumb/v7e-m+fp/hard\libc-musl.a(strcspn.o)
 .debug_ranges  0x000054e0       0x10 c:/program files/microchip/xc32/v4.10/bin/bin/../../lib/gcc/pic32c/8.3.1/../../../../pic32c/lib/thumb/v7e-m+fp/hard\libc-musl.a(strspn.o)
 .debug_ranges  0x000054f0       0x10 c:/program files/microchip/xc32/v4.10/bin/bin/../../lib/gcc/pic32c/8.3.1/../../../../pic32c/lib/thumb/v7e-m+fp/hard\libc-musl.a(__secs_to_tm.o)
 .debug_ranges  0x00005500       0x10 c:/program files/microchip/xc32/v4.10/bin/bin/../../lib/gcc/pic32c/8.3.1/../../../../pic32c/lib/thumb/v7e-m+fp/hard\libc-musl.a(clock_gettime.o)
 .debug_ranges  0x00005510       0x10 c:/program files/microchip/xc32/v4.10/bin/bin/../../lib/gcc/pic32c/8.3.1/../../../../pic32c/lib/thumb/v7e-m+fp/hard\libc-musl.a(gettimeofday.o)
 .debug_ranges  0x00005520       0x10 c:/program files/microchip/xc32/v4.10/bin/bin/../../lib/gcc/pic32c/8.3.1/../../../../pic32c/lib/thumb/v7e-m+fp/hard\libc-musl.a(syscall_ret.o)
 .debug_ranges  0x00005530       0x18 c:/program files/microchip/xc32/v4.10/bin/bin/../../lib/gcc/pic32c/8.3.1/../../../../pic32c/lib/thumb/v7e-m+fp/hard\libc-musl.a(__toread.o)
 .debug_ranges  0x00005548       0x68 c:/program files/microchip/xc32/v4.10/bin/bin/../../lib/gcc/pic32c/8.3.1/../../../../pic32c/lib/thumb/v7e-m+fp/hard\libc-musl.a(__printf_core.o)
 .debug_ranges  0x000055b0       0x10 c:/program files/microchip/xc32/v4.10/bin/bin/../../lib/gcc/pic32c/8.3.1/../../../../pic32c/lib/thumb/v7e-m+fp/hard\libc-musl.a(__fmt_a.o)
 .debug_ranges  0x000055c0       0x10 c:/program files/microchip/xc32/v4.10/bin/bin/../../lib/gcc/pic32c/8.3.1/../../../../pic32c/lib/thumb/v7e-m+fp/hard\libc-musl.a(__fmt_d.o)
 .debug_ranges  0x000055d0       0x10 c:/program files/microchip/xc32/v4.10/bin/bin/../../lib/gcc/pic32c/8.3.1/../../../../pic32c/lib/thumb/v7e-m+fp/hard\libc-musl.a(__fmt_fp.o)
 .debug_ranges  0x000055e0       0x10 c:/program files/microchip/xc32/v4.10/bin/bin/../../lib/gcc/pic32c/8.3.1/../../../../pic32c/lib/thumb/v7e-m+fp/hard\libc-musl.a(__fmt_o.o)
 .debug_ranges  0x000055f0       0x10 c:/program files/microchip/xc32/v4.10/bin/bin/../../lib/gcc/pic32c/8.3.1/../../../../pic32c/lib/thumb/v7e-m+fp/hard\libc-musl.a(__fmt_s.o)
 .debug_ranges  0x00005600       0x18 c:/program files/microchip/xc32/v4.10/bin/bin/../../lib/gcc/pic32c/8.3.1/../../../../pic32c/lib/thumb/v7e-m+fp/hard\libc-musl.a(__fmt_u.o)
 .debug_ranges  0x00005618       0x10 c:/program files/microchip/xc32/v4.10/bin/bin/../../lib/gcc/pic32c/8.3.1/../../../../pic32c/lib/thumb/v7e-m+fp/hard\libc-musl.a(__fmt_x.o)
 .debug_ranges  0x00005628       0x10 c:/program files/microchip/xc32/v4.10/bin/bin/../../lib/gcc/pic32c/8.3.1/../../../../pic32c/lib/thumb/v7e-m+fp/hard\libc-musl.a(__pop_float.o)
 .debug_ranges  0x00005638       0x10 c:/program files/microchip/xc32/v4.10/bin/bin/../../lib/gcc/pic32c/8.3.1/../../../../pic32c/lib/thumb/v7e-m+fp/hard\libc-musl.a(__pop_int.o)
 .debug_ranges  0x00005648       0x10 c:/program files/microchip/xc32/v4.10/bin/bin/../../lib/gcc/pic32c/8.3.1/../../../../pic32c/lib/thumb/v7e-m+fp/hard\libc-musl.a(__pop_ptr.o)
 .debug_ranges  0x00005658       0xb0 c:/program files/microchip/xc32/v4.10/bin/bin/../../lib/gcc/pic32c/8.3.1/thumb/v7e-m+fp/hard\libgcc.a(_udivmoddi4.o)
 .debug_ranges  0x00005708       0x10 c:/program files/microchip/xc32/v4.10/bin/bin/../../lib/gcc/pic32c/8.3.1/../../../../pic32c/lib/thumb/v7e-m+fp/hard\libpic32c.a(sbrk.o)

.note.GNU-stack
                0x00000000        0x0
 .note.GNU-stack
                0x00000000        0x0 c:/program files/microchip/xc32/v4.10/bin/bin/../../lib/gcc/pic32c/8.3.1/../../../../pic32c/lib/thumb/v7e-m+fp/hard\libc-musl.a(isalnum.o)
 .note.GNU-stack
                0x00000000        0x0 c:/program files/microchip/xc32/v4.10/bin/bin/../../lib/gcc/pic32c/8.3.1/../../../../pic32c/lib/thumb/v7e-m+fp/hard\libc-musl.a(isxdigit.o)
 .note.GNU-stack
                0x00000000        0x0 c:/program files/microchip/xc32/v4.10/bin/bin/../../lib/gcc/pic32c/8.3.1/../../../../pic32c/lib/thumb/v7e-m+fp/hard\libc-musl.a(tolower.o)
 .note.GNU-stack
                0x00000000        0x0 c:/program files/microchip/xc32/v4.10/bin/bin/../../lib/gcc/pic32c/8.3.1/../../../../pic32c/lib/thumb/v7e-m+fp/hard\libc-musl.a(toupper.o)
 .note.GNU-stack
                0x00000000        0x0 c:/program files/microchip/xc32/v4.10/bin/bin/../../lib/gcc/pic32c/8.3.1/../../../../pic32c/lib/thumb/v7e-m+fp/hard\libc-musl.a(__libc_start_main.o)
 .note.GNU-stack
                0x00000000        0x0 c:/program files/microchip/xc32/v4.10/bin/bin/../../lib/gcc/pic32c/8.3.1/../../../../pic32c/lib/thumb/v7e-m+fp/hard\libc-musl.a(libc.o)
 .note.GNU-stack
                0x00000000        0x0 c:/program files/microchip/xc32/v4.10/bin/bin/../../lib/gcc/pic32c/8.3.1/../../../../pic32c/lib/thumb/v7e-m+fp/hard\libc-musl.a(malloc.o)
 .note.GNU-stack
                0x00000000        0x0 c:/program files/microchip/xc32/v4.10/bin/bin/../../lib/gcc/pic32c/8.3.1/../../../../pic32c/lib/thumb/v7e-m+fp/hard\libc-musl.a(expand_heap.o)
 .note.GNU-stack
                0x00000000        0x0 c:/program files/microchip/xc32/v4.10/bin/bin/../../lib/gcc/pic32c/8.3.1/../../../../pic32c/lib/thumb/v7e-m+fp/hard\libc-musl.a(rand.o)
 .note.GNU-stack
                0x00000000        0x0 c:/program files/microchip/xc32/v4.10/bin/bin/../../lib/gcc/pic32c/8.3.1/../../../../pic32c/lib/thumb/v7e-m+fp/hard\libc-musl.a(vsnprintf.o)
 .note.GNU-stack
                0x00000000        0x0 c:/program files/microchip/xc32/v4.10/bin/bin/../../lib/gcc/pic32c/8.3.1/../../../../pic32c/lib/thumb/v7e-m+fp/hard\libc-musl.a(snprintf.o)
 .note.GNU-stack
                0x00000000        0x0 c:/program files/microchip/xc32/v4.10/bin/bin/../../lib/gcc/pic32c/8.3.1/../../../../pic32c/lib/thumb/v7e-m+fp/hard\libc-musl.a(sprintf.o)
 .note.GNU-stack
                0x00000000        0x0 c:/program files/microchip/xc32/v4.10/bin/bin/../../lib/gcc/pic32c/8.3.1/../../../../pic32c/lib/thumb/v7e-m+fp/hard\libc-musl.a(vsprintf.o)
 .note.GNU-stack
                0x00000000        0x0 c:/program files/microchip/xc32/v4.10/bin/bin/../../lib/gcc/pic32c/8.3.1/../../../../pic32c/lib/thumb/v7e-m+fp/hard\libc-musl.a(atoi.o)
 .note.GNU-stack
                0x00000000        0x0 c:/program files/microchip/xc32/v4.10/bin/bin/../../lib/gcc/pic32c/8.3.1/../../../../pic32c/lib/thumb/v7e-m+fp/hard\libc-musl.a(strtol.o)
 .note.GNU-stack
                0x00000000        0x0 c:/program files/microchip/xc32/v4.10/bin/bin/../../lib/gcc/pic32c/8.3.1/../../../../pic32c/lib/thumb/v7e-m+fp/hard\libc-musl.a(memcmp.o)
 .note.GNU-stack
                0x00000000        0x0 c:/program files/microchip/xc32/v4.10/bin/bin/../../lib/gcc/pic32c/8.3.1/../../../../pic32c/lib/thumb/v7e-m+fp/hard\libc-musl.a(memcpy.o)
 .note.GNU-stack
                0x00000000        0x0 c:/program files/microchip/xc32/v4.10/bin/bin/../../lib/gcc/pic32c/8.3.1/../../../../pic32c/lib/thumb/v7e-m+fp/hard\libc-musl.a(memmove.o)
 .note.GNU-stack
                0x00000000        0x0 c:/program files/microchip/xc32/v4.10/bin/bin/../../lib/gcc/pic32c/8.3.1/../../../../pic32c/lib/thumb/v7e-m+fp/hard\libc-musl.a(memset.o)
 .note.GNU-stack
                0x00000000        0x0 c:/program files/microchip/xc32/v4.10/bin/bin/../../lib/gcc/pic32c/8.3.1/../../../../pic32c/lib/thumb/v7e-m+fp/hard\libc-musl.a(strlen.o)
 .note.GNU-stack
                0x00000000        0x0 c:/program files/microchip/xc32/v4.10/bin/bin/../../lib/gcc/pic32c/8.3.1/../../../../pic32c/lib/thumb/v7e-m+fp/hard\libc-musl.a(strchr.o)
 .note.GNU-stack
                0x00000000        0x0 c:/program files/microchip/xc32/v4.10/bin/bin/../../lib/gcc/pic32c/8.3.1/../../../../pic32c/lib/thumb/v7e-m+fp/hard\libc-musl.a(strchrnul.o)
 .note.GNU-stack
                0x00000000        0x0 c:/program files/microchip/xc32/v4.10/bin/bin/../../lib/gcc/pic32c/8.3.1/../../../../pic32c/lib/thumb/v7e-m+fp/hard\libc-musl.a(strcmp.o)
 .note.GNU-stack
                0x00000000        0x0 c:/program files/microchip/xc32/v4.10/bin/bin/../../lib/gcc/pic32c/8.3.1/../../../../pic32c/lib/thumb/v7e-m+fp/hard\libc-musl.a(strcpy.o)
 .note.GNU-stack
                0x00000000        0x0 c:/program files/microchip/xc32/v4.10/bin/bin/../../lib/gcc/pic32c/8.3.1/../../../../pic32c/lib/thumb/v7e-m+fp/hard\libc-musl.a(strncmp.o)
 .note.GNU-stack
                0x00000000        0x0 c:/program files/microchip/xc32/v4.10/bin/bin/../../lib/gcc/pic32c/8.3.1/../../../../pic32c/lib/thumb/v7e-m+fp/hard\libc-musl.a(strncpy.o)
 .note.GNU-stack
                0x00000000        0x0 c:/program files/microchip/xc32/v4.10/bin/bin/../../lib/gcc/pic32c/8.3.1/../../../../pic32c/lib/thumb/v7e-m+fp/hard\libc-musl.a(strrchr.o)
 .note.GNU-stack
                0x00000000        0x0 c:/program files/microchip/xc32/v4.10/bin/bin/../../lib/gcc/pic32c/8.3.1/../../../../pic32c/lib/thumb/v7e-m+fp/hard\libc-musl.a(strtok.o)
 .note.GNU-stack
                0x00000000        0x0 c:/program files/microchip/xc32/v4.10/bin/bin/../../lib/gcc/pic32c/8.3.1/../../../../pic32c/lib/thumb/v7e-m+fp/hard\libc-musl.a(gmtime.o)
 .note.GNU-stack
                0x00000000        0x0 c:/program files/microchip/xc32/v4.10/bin/bin/../../lib/gcc/pic32c/8.3.1/../../../../pic32c/lib/thumb/v7e-m+fp/hard\libc-musl.a(gmtime_r.o)
 .note.GNU-stack
                0x00000000        0x0 c:/program files/microchip/xc32/v4.10/bin/bin/../../lib/gcc/pic32c/8.3.1/../../../../pic32c/lib/thumb/v7e-m+fp/hard\libc-musl.a(time.o)
 .note.GNU-stack
                0x00000000        0x0 c:/program files/microchip/xc32/v4.10/bin/bin/../../lib/gcc/pic32c/8.3.1/../../../../pic32c/lib/thumb/v7e-m+fp/hard\libc-musl.a(__environ.o)
 .note.GNU-stack
                0x00000000        0x0 c:/program files/microchip/xc32/v4.10/bin/bin/../../lib/gcc/pic32c/8.3.1/../../../../pic32c/lib/thumb/v7e-m+fp/hard\libc-musl.a(__errno_location.o)
 .note.GNU-stack
                0x00000000        0x0 c:/program files/microchip/xc32/v4.10/bin/bin/../../lib/gcc/pic32c/8.3.1/../../../../pic32c/lib/thumb/v7e-m+fp/hard\libc-musl.a(intscan.o)
 .note.GNU-stack
                0x00000000        0x0 c:/program files/microchip/xc32/v4.10/bin/bin/../../lib/gcc/pic32c/8.3.1/../../../../pic32c/lib/thumb/v7e-m+fp/hard\libc-musl.a(shgetc.o)
 .note.GNU-stack
                0x00000000        0x0 c:/program files/microchip/xc32/v4.10/bin/bin/../../lib/gcc/pic32c/8.3.1/../../../../pic32c/lib/thumb/v7e-m+fp/hard\libc-musl.a(__uflow.o)
 .note.GNU-stack
                0x00000000        0x0 c:/program files/microchip/xc32/v4.10/bin/bin/../../lib/gcc/pic32c/8.3.1/../../../../pic32c/lib/thumb/v7e-m+fp/hard\libc-musl.a(vfprintf.o)
 .note.GNU-stack
                0x00000000        0x0 c:/program files/microchip/xc32/v4.10/bin/bin/../../lib/gcc/pic32c/8.3.1/../../../../pic32c/lib/thumb/v7e-m+fp/hard\libc-musl.a(memrchr.o)
 .note.GNU-stack
                0x00000000        0x0 c:/program files/microchip/xc32/v4.10/bin/bin/../../lib/gcc/pic32c/8.3.1/../../../../pic32c/lib/thumb/v7e-m+fp/hard\libc-musl.a(stpcpy.o)
 .note.GNU-stack
                0x00000000        0x0 c:/program files/microchip/xc32/v4.10/bin/bin/../../lib/gcc/pic32c/8.3.1/../../../../pic32c/lib/thumb/v7e-m+fp/hard\libc-musl.a(stpncpy.o)
 .note.GNU-stack
                0x00000000        0x0 c:/program files/microchip/xc32/v4.10/bin/bin/../../lib/gcc/pic32c/8.3.1/../../../../pic32c/lib/thumb/v7e-m+fp/hard\libc-musl.a(strcspn.o)
 .note.GNU-stack
                0x00000000        0x0 c:/program files/microchip/xc32/v4.10/bin/bin/../../lib/gcc/pic32c/8.3.1/../../../../pic32c/lib/thumb/v7e-m+fp/hard\libc-musl.a(strspn.o)
 .note.GNU-stack
                0x00000000        0x0 c:/program files/microchip/xc32/v4.10/bin/bin/../../lib/gcc/pic32c/8.3.1/../../../../pic32c/lib/thumb/v7e-m+fp/hard\libc-musl.a(__secs_to_tm.o)
 .note.GNU-stack
                0x00000000        0x0 c:/program files/microchip/xc32/v4.10/bin/bin/../../lib/gcc/pic32c/8.3.1/../../../../pic32c/lib/thumb/v7e-m+fp/hard\libc-musl.a(clock_gettime.o)
 .note.GNU-stack
                0x00000000        0x0 c:/program files/microchip/xc32/v4.10/bin/bin/../../lib/gcc/pic32c/8.3.1/../../../../pic32c/lib/thumb/v7e-m+fp/hard\libc-musl.a(gettimeofday.o)
 .note.GNU-stack
                0x00000000        0x0 c:/program files/microchip/xc32/v4.10/bin/bin/../../lib/gcc/pic32c/8.3.1/../../../../pic32c/lib/thumb/v7e-m+fp/hard\libc-musl.a(syscall_ret.o)
 .note.GNU-stack
                0x00000000        0x0 c:/program files/microchip/xc32/v4.10/bin/bin/../../lib/gcc/pic32c/8.3.1/../../../../pic32c/lib/thumb/v7e-m+fp/hard\libc-musl.a(__toread.o)
 .note.GNU-stack
                0x00000000        0x0 c:/program files/microchip/xc32/v4.10/bin/bin/../../lib/gcc/pic32c/8.3.1/../../../../pic32c/lib/thumb/v7e-m+fp/hard\libc-musl.a(__printf_core.o)
 .note.GNU-stack
                0x00000000        0x0 c:/program files/microchip/xc32/v4.10/bin/bin/../../lib/gcc/pic32c/8.3.1/../../../../pic32c/lib/thumb/v7e-m+fp/hard\libc-musl.a(__fmt_a.o)
 .note.GNU-stack
                0x00000000        0x0 c:/program files/microchip/xc32/v4.10/bin/bin/../../lib/gcc/pic32c/8.3.1/../../../../pic32c/lib/thumb/v7e-m+fp/hard\libc-musl.a(__fmt_d.o)
 .note.GNU-stack
                0x00000000        0x0 c:/program files/microchip/xc32/v4.10/bin/bin/../../lib/gcc/pic32c/8.3.1/../../../../pic32c/lib/thumb/v7e-m+fp/hard\libc-musl.a(__fmt_fp.o)
 .note.GNU-stack
                0x00000000        0x0 c:/program files/microchip/xc32/v4.10/bin/bin/../../lib/gcc/pic32c/8.3.1/../../../../pic32c/lib/thumb/v7e-m+fp/hard\libc-musl.a(__fmt_o.o)
 .note.GNU-stack
                0x00000000        0x0 c:/program files/microchip/xc32/v4.10/bin/bin/../../lib/gcc/pic32c/8.3.1/../../../../pic32c/lib/thumb/v7e-m+fp/hard\libc-musl.a(__fmt_s.o)
 .note.GNU-stack
                0x00000000        0x0 c:/program files/microchip/xc32/v4.10/bin/bin/../../lib/gcc/pic32c/8.3.1/../../../../pic32c/lib/thumb/v7e-m+fp/hard\libc-musl.a(__fmt_u.o)
 .note.GNU-stack
                0x00000000        0x0 c:/program files/microchip/xc32/v4.10/bin/bin/../../lib/gcc/pic32c/8.3.1/../../../../pic32c/lib/thumb/v7e-m+fp/hard\libc-musl.a(__fmt_x.o)
 .note.GNU-stack
                0x00000000        0x0 c:/program files/microchip/xc32/v4.10/bin/bin/../../lib/gcc/pic32c/8.3.1/../../../../pic32c/lib/thumb/v7e-m+fp/hard\libc-musl.a(__pop_float.o)
 .note.GNU-stack
                0x00000000        0x0 c:/program files/microchip/xc32/v4.10/bin/bin/../../lib/gcc/pic32c/8.3.1/../../../../pic32c/lib/thumb/v7e-m+fp/hard\libc-musl.a(__pop_int.o)
 .note.GNU-stack
                0x00000000        0x0 c:/program files/microchip/xc32/v4.10/bin/bin/../../lib/gcc/pic32c/8.3.1/../../../../pic32c/lib/thumb/v7e-m+fp/hard\libc-musl.a(__pop_ptr.o)

__xc_reference_data
                0x00000000       0x44
 __xc_reference_data
                0x00000000        0x4 c:/program files/microchip/xc32/v4.10/bin/bin/../../lib/gcc/pic32c/8.3.1/../../../../pic32c/lib/thumb/v7e-m+fp/hard\libc-musl.a(vfprintf.o)
                0x00000000                __vfprintf_needs_fmt
 __xc_reference_data
                0x00000004       0x40 c:/program files/microchip/xc32/v4.10/bin/bin/../../lib/gcc/pic32c/8.3.1/../../../../pic32c/lib/thumb/v7e-m+fp/hard\libc-musl.a(__io_fmt_needed.o)
                0x00000004                __io_fmt_needed

.stack          0x200262e0      0x100
 .stack         0x200262e0      0x100 stack

.bss%1          0x20000000     0xcad9
 .bss           0x20000000     0xa008 build/FreeRTOS/production/_ext/1665200909/heap_1.o
 .bss           0x2000a008     0x2040 build/FreeRTOS/production/_ext/2092608928/plib_sercom1_usart.o
 .bss           0x2000c048      0xa91 build/FreeRTOS/production/_ext/1005353002/sys_command.o

.bss%4          0x2000cadc      0xf00
 .bss           0x2000cadc      0x8d4 build/FreeRTOS/production/_ext/540595297/tcpip_commands.o
                0x2000d3a4                icmpStartTick
 .bss           0x2000d3b0      0x374 build/FreeRTOS/production/_ext/540595297/tcpip_manager.o
                0x2000d720                _TCPIP_Stack_LeaveCondLoop
 .bss           0x2000d724      0x2b8 build/FreeRTOS/production/_ext/1360937237/bc_test.o
                0x2000d724                bc_test
                0x2000d758                auto_conf_msg_transmit
                0x2000d798                auto_conf_msg_receive
                0x2000d7dc                member

.bss%7          0x2000d9e0      0x20c
 .bss           0x2000d9e0      0x20c c:/program files/microchip/xc32/v4.10/bin/bin/../../lib/gcc/pic32c/8.3.1/../../../../pic32c/lib/thumb/v7e-m+fp/hard\libc-musl.a(malloc.o)

.bss%8          0x2000dbf0      0x334
 .bss           0x2000dbf0      0x11c build/FreeRTOS/production/_ext/540595297/iperf.o
                0x2000dcd4                g_bfr
 .bss           0x2000dd0c      0x114 build/FreeRTOS/production/_ext/2072568807/sys_random_h2_adapter.o
 .bss           0x2000de20      0x104 build/FreeRTOS/production/_ext/404212886/FreeRTOS_tasks.o
                0x2000deac                pxCurrentTCB

.bss%11         0x2000df28      0x1bc
 .bss           0x2000df28       0xe0 build/FreeRTOS/production/_ext/832704728/sys_time.o
 .bss           0x2000e008       0xdc build/FreeRTOS/production/_ext/548640822/sys_console.o

.data%13        0x2000e0e4       0xd5
 .data          0x2000e0e4       0xd5 build/FreeRTOS/production/_ext/41526634/drv_gmac.o

.bss%14         0x2000e1c0      0x36a
 .bss           0x2000e1c0       0xb4 build/FreeRTOS/production/_ext/41526634/drv_gmac_lib_samE5x.o
                0x2000e1c0                gmac_queue
                0x2000e270                drvGmacQueEvents
 .bss           0x2000e274       0xb4 build/FreeRTOS/production/_ext/540595297/icmp.o
 .bss           0x2000e328       0x94 build/FreeRTOS/production/_ext/1149484450/drv_miim.o
 .bss           0x2000e3bc       0x70 build/FreeRTOS/production/_ext/1231519722/drv_ethphy.o
 .bss           0x2000e42c       0x60 build/FreeRTOS/production/_ext/1664057780/cryptocb.o
 .bss           0x2000e48c       0x50 c:/program files/microchip/xc32/v4.10/bin/bin/../../lib/gcc/pic32c/8.3.1/../../../../pic32c/lib/thumb/v7e-m+fp/hard\libc-musl.a(libc.o)
                0x2000e48c                __progname_full
                0x2000e48c                program_invocation_name
                0x2000e490                program_invocation_short_name
                0x2000e490                __progname
                0x2000e494                __sysinfo
                0x2000e498                __hwcap
                0x2000e49c                __libc
 .bss           0x2000e4dc       0x4e build/FreeRTOS/production/_ext/540595297/ipv4.o

.bss%21         0x2000e52c       0x4c
 .bss           0x2000e52c       0x4c build/FreeRTOS/production/_ext/540595297/arp.o

.data%22        0x2000e578       0x74
 .data          0x2000e578       0x40 build/FreeRTOS/production/_ext/1360937237/bc_com.o
                0x2000e57c                bc_com_states_str
 .data          0x2000e5b8       0x34 build/FreeRTOS/production/_ext/1360937237/bc_test.o
                0x2000e5bc                app_states_str

.bss%24         0x2000e5ec       0x60
 .bss           0x2000e5ec       0x30 build/FreeRTOS/production/_ext/540595297/dhcp.o
 .bss           0x2000e61c       0x30 build/FreeRTOS/production/_ext/540595297/dns.o

.data%26        0x2000e64c       0x30
 .data          0x2000e64c       0x30 build/FreeRTOS/production/_ext/161576091/initialization.o
                0x2000e64c                gmac_queue_config
                0x2000e660                tcpipHeapConfig
                0x2000e670                drvlan867xTmo

.bss%27         0x2000e67c       0x5c
 .bss           0x2000e67c       0x30 build/FreeRTOS/production/_ext/1360937237/bc_com.o
                0x2000e67c                bc_com
 .bss           0x2000e6ac       0x2c c:/program files/microchip/xc32/v4.10/bin/bin/../../lib/gcc/pic32c/8.3.1/../../../../pic32c/lib/thumb/v7e-m+fp/hard\libc-musl.a(gmtime.o)

.data%29        0x2000e6d8       0x28
 .data          0x2000e6d8       0x28 build/FreeRTOS/production/_ext/540595297/tcpip_helpers.o

.bss%30         0x2000e700       0x3e
 .bss           0x2000e700       0x20 build/FreeRTOS/production/_ext/540595297/tcp.o
 .bss           0x2000e720       0x1e build/FreeRTOS/production/_ext/1360937237/app.o
                0x2000e728                clientObj

.bss%32         0x2000e740       0x51
 .bss           0x2000e740       0x1c c:/program files/microchip/xc32/v4.10/bin/bin/../../lib/gcc/pic32c/8.3.1/thumb/v7e-m+fp/hard/crtbegin.o
 .bss           0x2000e75c       0x1c build/FreeRTOS/production/_ext/540595297/udp.o
 .bss           0x2000e778       0x19 build/FreeRTOS/production/_ext/161576091/initialization.o
                0x2000e778                sysObj
                0x2000e78c                rxPrioNumToQueIndxGmac
                0x2000e790                txPrioNumToQueIndxGmac

.bss%35         0x2000e794       0x1c
 .bss           0x2000e794       0x10 build/FreeRTOS/production/_ext/161576091/tasks.o
                0x2000e794                xSYS_CMD_Tasks
                0x2000e798                xAPP_Tasks
                0x2000e79c                xBC_COM_Tasks
                0x2000e7a0                xBC_TEST_Tasks
 .bss           0x2000e7a4        0xc build/FreeRTOS/production/_ext/548640822/sys_console_uart.o

.data%37        0x2000e7b0        0x8
 .data          0x2000e7b0        0x8 build/FreeRTOS/production/_ext/540595297/tcpip_commands.o

.bss%38         0x2000e7b8       0x1f
 .bss           0x2000e7b8        0x8 build/FreeRTOS/production/_ext/579449528/plib_tc0.o
 .bss           0x2000e7c0        0x8 build/FreeRTOS/production/_ext/147610190/sys_debug.o
                0x2000e7c0                gblErrLvl
 .bss           0x2000e7c8        0x8 build/FreeRTOS/production/_ext/2072568807/sys_time_h2_adapter.o
 .bss           0x2000e7d0        0x7 build/FreeRTOS/production/_ext/1231519722/drv_extphy_lan867x.o

.data%42        0x2000e7d8        0x6
 .data          0x2000e7d8        0x6 build/FreeRTOS/production/_ext/540595297/arp.o

.data%43        0x2000d9dc        0x4
 .data          0x2000d9dc        0x4 build/FreeRTOS/production/_ext/540595297/tcpip_manager.o

.bss%44         0x2000dbec        0x4
 .bss           0x2000dbec        0x4 build/FreeRTOS/production/_ext/540595297/tcpip_packet.o

.data%45        0x2000df24        0x4
 .data          0x2000df24        0x4 build/FreeRTOS/production/_ext/246609638/port.o

.data%46        0x2000e1bc        0x4
 .data          0x2000e1bc        0x4 build/FreeRTOS/production/_ext/404212886/FreeRTOS_tasks.o
                0x2000e1bc                uxTopUsedPriority

.bss%47         0x2000e7e0       0x20
 .bss           0x2000e7e0        0x4 build/FreeRTOS/production/_ext/1664057780/asn.o
 .bss           0x2000e7e4        0x4 build/FreeRTOS/production/_ext/1664057780/wc_port.o
 .bss           0x2000e7e8        0x4 c:/program files/microchip/xc32/v4.10/bin/bin/../../lib/gcc/pic32c/8.3.1/../../../../pic32c/lib/thumb/v7e-m+fp/hard\libpic32c.a(data_init.o)
 .bss           0x2000e7ec        0x4 c:/program files/microchip/xc32/v4.10/bin/bin/../../lib/gcc/pic32c/8.3.1/../../../../pic32c/lib/thumb/v7e-m+fp/hard\libc-musl.a(rand.o)
 .bss           0x2000e7f0        0x4 c:/program files/microchip/xc32/v4.10/bin/bin/../../lib/gcc/pic32c/8.3.1/../../../../pic32c/lib/thumb/v7e-m+fp/hard\libc-musl.a(strtok.o)
 .bss           0x2000e7f4        0x4 c:/program files/microchip/xc32/v4.10/bin/bin/../../lib/gcc/pic32c/8.3.1/../../../../pic32c/lib/thumb/v7e-m+fp/hard\libc-musl.a(__environ.o)
                0x2000e7f4                __environ
                0x2000e7f4                environ
                0x2000e7f4                ___environ
                0x2000e7f4                _environ
 .bss           0x2000e7f8        0x4 c:/program files/microchip/xc32/v4.10/bin/bin/../../lib/gcc/pic32c/8.3.1/../../../../pic32c/lib/thumb/v7e-m+fp/hard\libc-musl.a(__errno_location.o)
                0x2000e7f8                __errno_val
 .bss           0x2000e7fc        0x4 c:/program files/microchip/xc32/v4.10/bin/bin/../../lib/gcc/pic32c/8.3.1/../../../../pic32c/lib/thumb/v7e-m+fp/hard\libpic32c.a(sbrk.o)

.bss%55         0x2000e52a        0x2
 .bss           0x2000e52a        0x2 build/FreeRTOS/production/_ext/320424729/plib_nvmctrl.o

.data%56        0x2000e73e        0x2
 .data          0x2000e73e        0x2 build/FreeRTOS/production/_ext/832704728/sys_time.o

.bss%57         0x2000e800        0x1
 .bss           0x2000e800        0x1 build/FreeRTOS/production/_ext/41526634/drv_gmac.o
                0x2000e800                interruptStat_mac0

.eh_frame%z1    0x00000000        0x0
 .eh_frame      0x00000000        0x0 c:/program files/microchip/xc32/v4.10/bin/bin/../../lib/gcc/pic32c/8.3.1/thumb/v7e-m+fp/hard/crtbegin.o

.text%58        0x0000028c    0x18254
 .text          0x0000028c     0x528c build/FreeRTOS/production/_ext/1664057780/asn.o
                0x00000502                SetASNLength
                0x0000054e                GetLength_ex
                0x00000604                GetLength
                0x000006a2                GetASNTag
                0x0000080a                GetSequence
                0x00000822                GetSequence_ex
                0x0000083a                GetSet
                0x00000852                GetSet_ex
                0x0000086a                GetOctetString
                0x00000882                GetSigName
                0x000008fc                GetMyVersion
                0x00000954                GetInt
                0x000009aa                CheckBitString
                0x00000a68                OidFromId
                0x000010e8                GetASNObjectId
                0x0000112a                GetObjectId
                0x000011b4                GetAlgoId
                0x0000123a                ToTraditionalInline_ex
                0x000012fc                wc_RsaPrivateKeyDecode
                0x00001428                ToTraditionalInline
                0x00001438                ToTraditional_ex
                0x00001478                ToTraditional
                0x00001488                wc_GetPkcs8TraditionalOffset
                0x000014b8                wc_RsaPublicKeyDecode_ex
                0x0000161a                wc_RsaPublicKeyDecodeRaw
                0x000016ac                wc_RsaPublicKeyDecode
                0x000016f4                FreeAltNames
                0x00001716                AltNameNew
                0x00001730                FreeNameSubtrees
                0x00001752                CalcHashId
                0x0000175a                GetName
                0x00001b40                ExtractDate
                0x00001d40                DateGreaterThan
                0x00001dd2                wc_SetTimeCb
                0x00001de0                wc_Time
                0x00001df8                wc_ValidateDate
                0x00001f9c                wc_GetTime
                0x00001fbe                wc_GetDateInfo
                0x00001fd6                wc_GetDateAsCalendarTime
                0x00001ff8                SetLength
                0x0000205e                SetASNInt
                0x0000212c                SetBitString
                0x00002154                SetObjectId
                0x000021c8                SetSequence
                0x000021d6                SetOctetString
                0x000021e4                SetSet
                0x000021f2                SetImplicit
                0x00002214                SetExplicit
                0x00002220                SetAlgoID
                0x00002424                wc_EncodeSignature
                0x0000248a                wc_GetCTC_HashOID
                0x0000249a                InitSignatureCtx
                0x000024b6                InitDecodedCert
                0x00002500                wc_InitDecodedCert
                0x00002508                FreeSignatureCtx
                0x00002564                FreeDecodedCert
                0x000025e2                wc_FreeDecodedCert
                0x000025ea                GetCA
                0x000025ec                GetCAByName
                0x000025ee                MakeSigner
                0x00002606                FreeSigner
                0x00002638                FreeSignerTable
                0x00002676                SetMyVersion
                0x0000269e                wc_CreatePKCS8Key
                0x00002b5c                SetSerialNumber
                0x00002bf8                wc_GetSerialNumber
                0x00002c5e                wc_GetPubX509
                0x00002dcc                DecodeToKey
                0x00002f54                AllocDer
                0x00002fdc                FreeDer
                0x00003018                wc_AllocDer
                0x00003020                wc_FreeDer
                0x00003028                wc_PemGetHeaderFooter
                0x00003118                PemToDer
                0x0000334c                wc_PemToDer
                0x00003384                wc_KeyPemToDer
                0x00003408                wc_CertPemToDer
                0x0000347e                wc_GetPubKeyDerFromCert
                0x000034dc                wc_EccPublicKeyToDer
                0x000034f2                wc_EccPublicKeyToDer_ex
                0x00003508                wc_EccPublicKeyDerSize
                0x00003520                StoreECC_DSA_Sig
                0x0000359a                StoreECC_DSA_Sig_Bin
                0x00003682                DecodeECC_DSA_Sig_Bin
                0x0000372a                DecodeECC_DSA_Sig
                0x000037b2                wc_EccPrivateKeyDecode
                0x00003964                wc_CheckPrivateKey
                0x00003af0                wc_CheckPrivateKeyCert
                0x00003b16                wc_EccPublicKeyDecode
                0x00004066                ParseCertRelative
                0x000053b0                ParseCert
                0x0000542e                wc_ParseCert
                0x00005436                wc_EccKeyToDer
                0x0000544c                wc_EccKeyDerSize
                0x0000546e                wc_EccPrivateKeyToDer
                0x00005486                wc_EccPrivateKeyToPKCS8
                0x00005490                wc_EccKeyToPKCS8
                0x0000549a                GetNameHash
 .text          0x00005518     0x36c4 build/FreeRTOS/production/_ext/1664057780/ecc.o
                0x00005f88                wc_ecc_set_curve
                0x00006186                ecc_projective_add_point
                0x00006254                ecc_projective_dbl_point
                0x000062ca                ecc_map_ex
                0x00006404                ecc_map
                0x0000640e                wc_ecc_new_point_h
                0x00006426                wc_ecc_new_point
                0x0000643c                wc_ecc_del_point_h
                0x00006444                wc_ecc_del_point
                0x0000644e                wc_ecc_forcezero_point
                0x0000646c                wc_ecc_copy_point
                0x000064b0                wc_ecc_cmp_point
                0x000064f4                wc_ecc_is_valid_idx
                0x00006510                wc_ecc_get_curve_idx
                0x00006538                wc_ecc_get_name
                0x00006558                wc_ecc_get_curve_id
                0x00006578                wc_ecc_get_curve_size_from_id
                0x0000659c                wc_ecc_get_curve_idx_from_name
                0x000065e0                wc_ecc_get_curve_size_from_name
                0x00006604                wc_ecc_get_curve_id_from_name
                0x00006628                wc_ecc_get_curve_id_from_params
                0x00006724                wc_ecc_get_curve_id_from_dp_params
                0x0000685c                wc_ecc_get_curve_id_from_oid
                0x000068b4                wc_ecc_get_curve_params
                0x000068c8                wc_ecc_point_is_at_infinity
                0x000068f2                wc_ecc_gen_k
                0x0000698c                wc_ecc_init_ex
                0x000069da                wc_ecc_key_new
                0x00006a04                wc_ecc_init
                0x00006a12                wc_ecc_init_id
                0x00006a54                wc_ecc_init_label
                0x00006aae                wc_ecc_set_flags
                0x00006ac0                wc_ecc_free
                0x00006aec                wc_ecc_key_free
                0x00006b14                ecc_projective_add_point_safe
                0x00006c9a                ecc_projective_dbl_point_safe
                0x00006f44                wc_ecc_mulmod_ex
                0x00007046                wc_ecc_mulmod
                0x0000705e                wc_ecc_mulmod_ex2
                0x00007282                wc_ecc_shared_secret_gen
                0x000072aa                wc_ecc_shared_secret_ex
                0x00007348                wc_ecc_shared_secret
                0x00007590                wc_ecc_make_pub
                0x0000759e                wc_ecc_make_pub_ex
                0x00007682                wc_ecc_make_key_ex2
                0x00007692                wc_ecc_sign_hash_ex
                0x0000794c                wc_ecc_sign_hash
                0x00007a2e                wc_ecc_make_key_ex
                0x00007a3e                wc_ecc_make_key
                0x00007a48                wc_ecc_verify_hash_ex
                0x00007f74                wc_ecc_verify_hash
                0x0000804e                wc_ecc_import_point_der_ex
                0x0000812c                wc_ecc_import_point_der
                0x0000813c                wc_ecc_export_point_der
                0x00008248                wc_ecc_export_point_der_ex
                0x0000825a                wc_ecc_export_x963
                0x0000837c                wc_ecc_export_x963_ex
                0x0000838c                wc_ecc_is_point
                0x0000866c                wc_ecc_check_key
                0x00008678                wc_ecc_import_x963_ex
                0x0000874e                wc_ecc_import_x963
                0x00008758                wc_ecc_export_ex
                0x0000882c                wc_ecc_export_private_only
                0x0000885c                wc_ecc_export_public_raw
                0x00008896                wc_ecc_export_private_raw
                0x000088b2                wc_ecc_import_private_key_ex
                0x00008922                wc_ecc_import_private_key
                0x00008936                wc_ecc_rs_to_sig
                0x000089f6                wc_ecc_rs_raw_to_sig
                0x00008a36                wc_ecc_sig_to_rs
                0x00008a72                wc_ecc_import_raw_ex
                0x00008a86                wc_ecc_import_unsigned
                0x00008a9a                wc_ecc_import_raw
                0x00008b24                wc_ecc_size
                0x00008b36                wc_ecc_sig_size_calc
                0x00008b46                wc_ecc_sig_size
                0x00008b80                wc_ecc_get_oid
 .text          0x00008bdc     0x35d0 build/FreeRTOS/production/_ext/1664057780/tfm.o
                0x00008c80                CheckRunTimeSettings
                0x00008c84                CheckRunTimeFastMath
                0x00008c88                s_fp_add
                0x00008d6a                s_fp_sub
                0x00008e44                fp_mul_2
                0x00008ec4                fp_mul_d
                0x00008f98                fp_div_2
                0x00009022                fp_div_2_mod_ct
                0x0000911e                fp_submod_ct
                0x00009234                fp_addmod_ct
                0x0000936e                fp_cmp_d
                0x000093a6                fp_cmp_mag
                0x0000940c                fp_add
                0x00009456                fp_sub
                0x0000949e                fp_cmp
                0x000094d0                fp_montgomery_setup
                0x00009510                fp_montgomery_reduce_ex
                0x0000968a                fp_montgomery_reduce
                0x00009694                fp_to_unsigned_bin_at_pos
                0x000096ec                fp_to_unsigned_bin_len
                0x00009742                fp_is_bit_set
                0x0000976e                fp_set_bit
                0x000097a4                fp_count_bits
                0x000097be                fp_unsigned_bin_size
                0x000097da                fp_leading_bit
                0x000097fc                fp_lshd
                0x00009888                fp_reverse
                0x000098ba                fp_zero
                0x000098ce                fp_2expt
                0x0000990a                fp_read_unsigned_bin
                0x0000997a                fp_set
                0x00009990                fp_montgomery_calc_normalization
                0x00009a02                fp_rshd
                0x00009a72                fp_rshb
                0x00009b12                fp_init
                0x00009b1a                mp_init
                0x00009b26                fp_sub_d
                0x00009b50                fp_clear
                0x00009b64                fp_forcezero
                0x00009b82                mp_forcezero
                0x00009b8a                fp_free
                0x00009b8c                mp_clear
                0x00009b96                mp_free
                0x00009b98                mp_init_multi
                0x00009bd6                mp_add
                0x00009bde                mp_sub
                0x00009be6                mp_mul_d
                0x00009bee                mp_submod_ct
                0x00009bf6                mp_addmod_ct
                0x00009bfe                mp_cmp
                0x00009c06                mp_cmp_d
                0x00009c0e                mp_unsigned_bin_size
                0x00009c16                mp_to_unsigned_bin_at_pos
                0x00009c1e                mp_to_unsigned_bin_len
                0x00009c26                mp_read_unsigned_bin
                0x00009c2e                mp_sub_d
                0x00009c36                mp_2expt
                0x00009c40                fp_copy
                0x00009c64                fp_mul_2d
                0x00009d1e                fp_set_int
                0x00009d92                mp_mul_2d
                0x00009d9a                fp_mul_comba
                0x00009ee2                fp_mul
                0x00009f2a                mp_mul
                0x00009f32                fp_mod_2d
                0x0000a04a                fp_div_2d
                0x0000a0f4                mp_div_2d
                0x0000a0fe                fp_sqr_comba
                0x0000a294                fp_sqr
                0x0000a2cc                fp_invmod_mont_ct
                0x0000a48c                mp_invmod_mont_ct
                0x0000a5e0                fp_init_copy
                0x0000a5fa                fp_div
                0x0000a9b8                fp_mod
                0x0000aa04                fp_mulmod
                0x0000aa3c                mp_mulmod
                0x0000aa44                fp_submod
                0x0000aa7c                mp_submod
                0x0000aa84                fp_addmod
                0x0000aabc                mp_addmod
                0x0000afac                mp_mod
                0x0000afb4                fp_invmod
                0x0000b4f4                mp_invmod
                0x0000b4fc                mp_div
                0x0000b504                fp_exptmod
                0x0000b754                mp_exptmod
                0x0000b75c                fp_exptmod_ex
                0x0000b83c                mp_exptmod_ex
                0x0000b84c                fp_exptmod_nct
                0x0000b8dc                mp_exptmod_nct
                0x0000b8e4                fp_to_unsigned_bin
                0x0000b90e                mp_to_unsigned_bin
                0x0000b916                mp_init_copy
                0x0000b920                mp_copy
                0x0000b92a                mp_isodd
                0x0000b93a                mp_iszero
                0x0000b944                mp_count_bits
                0x0000b94c                mp_leading_bit
                0x0000b954                mp_rshb
                0x0000b95c                mp_rshd
                0x0000b964                mp_set_int
                0x0000b96c                mp_is_bit_set
                0x0000b974                mp_set_bit
                0x0000b97c                fp_sqrmod
                0x0000b9b0                mp_sqrmod
                0x0000b9b8                mp_montgomery_calc_normalization
                0x0000b9c0                fp_cnt_lsb
                0x0000bc0c                mp_mod_d
                0x0000bc18                mp_prime_is_prime
                0x0000bc20                mp_prime_is_prime_ex
                0x0000be08                mp_cond_swap_ct
                0x0000be10                fp_add_d
                0x0000be3a                mp_add_d
                0x0000be42                mp_read_radix
                0x0000bfc4                mp_sqr
                0x0000bfcc                mp_montgomery_reduce
                0x0000bfd4                mp_montgomery_reduce_ex
                0x0000bfdc                mp_montgomery_setup
                0x0000bfe4                mp_div_2
                0x0000bfee                mp_div_2_mod_ct
                0x0000bff6                mp_set
                0x0000c000                mp_radix_size
                0x0000c0c8                mp_toradix
                0x0000c194                mp_abs
                0x0000c1a2                mp_lshd
 .text          0x0000c1ac     0x30b4 build/FreeRTOS/production/_ext/540595297/tcp.o
                0x0000d274                TCPIP_TCP_Task
                0x0000e0aa                TCPIP_TCP_SocketTraceSet
                0x0000e0ae                TCPIP_TCP_Initialize
                0x0000e1d4                TCPIP_TCP_Deinitialize
                0x0000e2b0                TCPIP_TCP_ServerOpen
                0x0000e358                TCPIP_TCP_ClientOpen
                0x0000e372                TCPIP_TCP_WasReset
                0x0000e39c                TCPIP_TCP_WasDisconnected
                0x0000e3b2                TCPIP_TCP_IsConnected
                0x0000e3d8                TCPIP_TCP_Disconnect
                0x0000e3f2                TCPIP_TCP_Abort
                0x0000e406                TCPIP_TCP_Connect
                0x0000e434                TCPIP_TCP_Close
                0x0000e470                TCPIP_TCP_SocketFlagsGet
                0x0000e482                TCPIP_TCP_SocketsNumberGet
                0x0000e48c                TCPIP_TCP_Flush
                0x0000e4b2                TCPIP_TCP_PutIsReady
                0x0000e4cc                TCPIP_TCP_ArrayPut
                0x0000e63c                TCPIP_TCP_Put
                0x0000e654                TCPIP_TCP_StringPut
                0x0000e66e                TCPIP_TCP_FifoTxFullGet
                0x0000e6b4                TCPIP_TCP_SocketInfoGet
                0x0000e72e                TCPIP_TCP_FifoTxFreeGet
                0x0000e754                TCPIP_TCP_Discard
                0x0000e77a                TCPIP_TCP_GetIsReady
                0x0000e78c                TCPIP_TCP_ArrayGet
                0x0000e858                TCPIP_TCP_Get
                0x0000e862                TCPIP_TCP_FifoRxFreeGet
                0x0000e880                TCPIP_TCP_ArrayPeek
                0x0000e8e6                TCPIP_TCP_Peek
                0x0000e900                TCPIP_TCP_ArrayFind
                0x0000eb3c                TCPIP_TCP_Find
                0x0000eb5e                TCPIP_TCP_FifoSizeAdjust
                0x0000ee50                TCPIP_TCP_SocketNetSet
                0x0000ee78                TCPIP_TCP_SocketNetGet
                0x0000ee88                TCPIP_TCP_Bind
                0x0000ef48                TCPIP_TCP_OptionsSet
                0x0000f04e                TCPIP_TCP_OptionsGet
                0x0000f112                TCPIP_TCP_DestinationIPAddressSet
                0x0000f15a                TCPIP_TCP_RemoteBind
                0x0000f1ac                TCPIP_TCP_SourceIPAddressSet
                0x0000f1de                TCPIP_TCP_SignalHandlerRegister
                0x0000f222                TCPIP_TCP_SignalHandlerDeregister
                0x0000f25c                TCPIP_TCP_IsReady
 .text          0x0000f260     0x2f64 build/FreeRTOS/production/_ext/1664057780/aes.o
                0x0000fd24                wc_AesSetIV
                0x0000fff8                wc_AesSetKey
                0x0001001e                wc_AesSetKeyDirect
                0x00010044                wc_AesEncryptDirect
                0x00010052                wc_AesDecryptDirect
                0x00010060                wc_AesCbcEncrypt
                0x0001012e                wc_AesCbcDecrypt
                0x00010222                wc_AesGcmSetKey
                0x0001028a                GHASH
                0x00010624                wc_AesGcmSetExtIV
                0x0001066e                wc_AesGcmSetIV
                0x000106f4                wc_GmacSetKey
                0x0001070c                wc_AesCcmSetKey
                0x00010730                wc_AesCcmCheckTagSize
                0x00010754                wc_AesCcmEncrypt
                0x00010b74                wc_AesCcmDecrypt
                0x00011022                wc_AesCcmSetNonce
                0x0001105e                wc_AesCcmEncrypt_ex
                0x00011138                wc_AesInit
                0x00011152                wc_AesInit_Id
                0x0001118e                wc_AesInit_Label
                0x000111ec                wc_AesFree
                0x00011206                wc_AesGetKeySize
                0x00011248                wc_AesEcbEncrypt
                0x000112aa                wc_AesCtrEncrypt
                0x0001154c                wc_AesGcmEncrypt
                0x000118aa                wc_AesGcmEncrypt_ex
                0x000119a0                wc_Gmac
                0x00011a64                wc_GmacUpdate
                0x00011a90                wc_AesGcmDecrypt
                0x00011dee                wc_GmacVerify
                0x00011e92                wc_AesEcbDecrypt
                0x00011ef4                wc_AesOfbEncrypt
                0x0001205c                wc_AesOfbDecrypt
 .text          0x000121c4     0x21c4 build/FreeRTOS/production/_ext/540595297/tcpip_manager.o
                0x000125d4                TCPIP_STACK_Status
                0x000125ec                TCPIP_STACK_InitializeDataGet
                0x0001261c                TCPIP_STACK_NetDefaultGet
                0x00012628                TCPIP_STACK_NetDefaultSet
                0x00012648                TCPIP_STACK_NetMulticastGet
                0x0001264c                TCPIP_STACK_NetMulticastSet
                0x00012650                _TCPIPStackIpAddFromAnyNet
                0x000126a4                TCPIP_STACK_MacToNet
                0x000126d8                TCPIP_STACK_MacToNetIndex
                0x00012714                TCPIP_STACK_NumberOfNetworksGet
                0x00012720                TCPIP_STACK_IndexToNet
                0x0001273c                TCPIP_STACK_NetIndexGet
                0x0001274a                TCPIP_Stack_UserHandleToNet
                0x00012784                TCPIP_STACK_MACIdToNet
                0x000127c4                TCPIP_STACK_NetNameGet
                0x000127ce                TCPIP_STACK_NetAliasNameGet
                0x00012808                TCPIP_STACK_MACObjectGet
                0x0001280e                TCPIP_STACK_NetByAddress
                0x00012848                TCPIP_STACK_IPAddToNet
                0x0001286c                TCPIP_STACK_MatchNetAddress
                0x000128ac                TCPIP_STACK_NetAddressGatewaySet
                0x000128c8                TCPIP_STACK_NetAddressGateway
                0x000128e0                TCPIP_STACK_NetAddressDnsPrimary
                0x000128f8                TCPIP_STACK_NetAddressDnsSecond
                0x00012910                TCPIP_STACK_NetAddressDnsPrimarySet
                0x0001292c                TCPIP_STACK_NetAddressDnsSecondSet
                0x00012948                TCPIP_STACK_NetAddressMacSet
                0x0001296a                TCPIP_STACK_NetBIOSName
                0x00012970                TCPIP_STACK_NetBiosNameSet
                0x000129a2                TCPIP_STACK_NetMACIdGet
                0x000129ba                TCPIP_STACK_NetMACTypeGet
                0x000129d4                TCPIP_STACK_NetMACStatisticsGet
                0x000129fc                TCPIP_STACK_NetMACRegisterStatisticsGet
                0x00012a24                TCPIP_STACK_ModuleConfigGet
                0x00012a68                TCPIP_STACK_NetConfigGet
                0x00012ab8                TCPIP_STACK_NetConfigSet
                0x00012c62                TCPIP_STACK_StringToMACId
                0x00012cac                TCPIP_STACK_NetHandleGet
                0x00012ce4                TCPIP_STACK_MACIdToString
                0x00012d18                TCPIP_STACK_NetAddressBcast
                0x00012d36                TCPIP_STACK_NetIsUp
                0x00012d52                TCPIP_STACK_DNSServiceSelect
                0x00012d78                TCPIP_STACK_AddressServiceSelect
                0x00012d9e                TCPIP_STACK_AddressServiceCanStart
                0x00012db4                TCPIP_STACK_NetAddressSet
                0x00012e38                _TCPIPStackAddressServiceIsRunning
                0x00012e42                TCPIP_STACK_DNSServiceCanStart
                0x00012e70                TCPIP_STACK_AddressServiceDefaultSet
                0x00012fe6                TCPIP_STACK_AddressServiceEvent
                0x0001302a                TCPIP_STACK_EventsPendingGet
                0x0001304a                TCPIP_STACK_NetIxGet
                0x00013058                TCPIP_STACK_NetAddressGet
                0x00013070                TCPIP_STACK_NetAddress
                0x0001308e                TCPIP_STACK_NetStaticIPv6AddressGet
                0x00013092                TCPIP_STACK_NetDefaultIPv6GatewayGet
                0x00013096                _TCPIPStackSetConfigAddress
                0x000130d6                TCPIP_STACK_NetMaskGet
                0x000130ee                TCPIP_STACK_NetMask
                0x0001310a                TCPIP_STACK_GatewayAddressSet
                0x00013112                TCPIP_STACK_PrimaryDNSAddressSet
                0x0001311a                TCPIP_STACK_SecondaryDNSAddressSet
                0x00013122                TCPIP_STACK_AddressIsOfNetUp
                0x00013154                TCPIP_STACK_NetIsBcastAddress
                0x0001317c                TCPIP_STACK_IsBcastAddress
                0x000131a8                TCPIP_STACK_NetworkIsLinked
                0x000131c6                TCPIP_STACK_NetIsLinked
                0x000131e2                _TCPIPStackHandleToNetLinked
                0x00013202                TCPIP_STACK_NetIsReady
                0x0001321c                _TCPIPStackAnyNetLinked
                0x00013264                _TCPIPStackAnyNetDirected
                0x000132a4                TCPIP_STACK_NetMACId
                0x000132b0                TCPIP_STACK_NetToMAC
                0x000132ba                TCPIP_STACK_NetUpMACAddressGet
                0x000132ce                TCPIP_STACK_NetAddressMac
                0x000132d6                _TCPIPStackSignalHandlerRegister
                0x00013320                _TCPIPStackSignalHandlerSetParams
                0x0001334c                _TCPIPStackSignalHandlerDeregister
                0x0001335a                _TCPIPStackModuleSignalGet
                0x00013398                _TCPIPStackModuleSignalRequest
                0x000133f4                _TCPIPStackModuleRxInsert
                0x0001343c                _TCPIPStackModuleRxExtract
                0x00013468                _TCPIPStackModuleRxPurge
                0x000139c4                TCPIP_STACK_Initialize
                0x00013a38                TCPIP_STACK_Deinitialize
                0x00013a50                TCPIP_STACK_NetUp
                0x00013b0c                TCPIP_STACK_NetDown
                0x00013b40                TCPIP_STACK_Task
                0x00014180                _TCPIPStackInsertRxPacket
                0x000141e4                TCPIP_STACK_VersionGet
                0x000141ec                TCPIP_STACK_VersionStrGet
                0x000141f4                TCPIP_MODULE_SignalFunctionRegister
                0x00014230                TCPIP_MODULE_SignalFunctionDeregister
                0x0001423e                TCPIP_MODULE_SignalGet
                0x00014264                TCPIP_STACK_HeapHandleGet
                0x00014278                TCPIP_STACK_HEAP_Size
                0x00014286                TCPIP_STACK_HEAP_MaxSize
                0x00014294                TCPIP_STACK_HEAP_FreeSize
                0x000142a2                TCPIP_STACK_HEAP_HighWatermark
                0x000142b0                TCPIP_STACK_HEAP_LastError
                0x000142c0                _TCPIPStackHeapConfig
                0x000142c8                TCPIP_STACK_NetGetType
                0x000142d0                _TCPIP_SecCountGet
                0x000142dc                _TCPIP_MsecCountGet
                0x000142e8                _TCPIPStack_Assert
                0x0001432c                _TCPIPStackPacketTx
                0x00014364                _TCPIPStack_Condition
 .text          0x00014388     0x2188 build/FreeRTOS/production/_ext/540595297/iperf.o
                0x00015698                TCPIP_IPERF_Task
                0x00016406                TCPIP_IPERF_Initialize
                0x000164bc                TCPIP_IPERF_Deinitialize
 .text          0x00016510     0x1fd0 build/FreeRTOS/production/_ext/540595297/tcpip_commands.o
                0x00017ef0                TCPIP_COMMAND_Task
                0x000183f8                TCPIP_Commands_Initialize
                0x000184a8                TCPIP_Commands_Deinitialize

.rodata%66      0x000184e0     0x1b74
 .rodata        0x000184e0     0x1b74 build/FreeRTOS/production/_ext/540595297/tcpip_commands.o

.text%67        0x0001a054     0x8426
 .text          0x0001a054     0x1b14 build/FreeRTOS/production/_ext/540595297/udp.o
                0x0001a364                TCPIP_UDP_Task
                0x0001a868                TCPIP_UDP_Initialize
                0x0001a954                TCPIP_UDP_OpenServerSkt
                0x0001a9f0                TCPIP_UDP_ServerOpen
                0x0001a9fa                TCPIP_UDP_OpenClientSkt
                0x0001aa34                TCPIP_UDP_ClientOpen
                0x0001aa3e                TCPIP_UDP_BcastIPV4AddressSet
                0x0001aa9a                TCPIP_UDP_IsConnected
                0x0001aac8                TCPIP_UDP_Close
                0x0001aaf8                TCPIP_UDP_Disconnect
                0x0001aba0                TCPIP_UDP_Deinitialize
                0x0001acb4                TCPIP_UDP_SocketInfoGet
                0x0001ada6                TCPIP_UDP_TxOffsetSet
                0x0001ade4                TCPIP_UDP_TxPointerGet
                0x0001adfe                TCPIP_UDP_PutIsReady
                0x0001ae4e                TCPIP_UDP_TxPutIsReady
                0x0001ae56                TCPIP_UDP_ArrayPut
                0x0001aea0                TCPIP_UDP_Put
                0x0001aeb8                TCPIP_UDP_StringPut
                0x0001aee2                TCPIP_UDP_Flush
                0x0001b11a                TCPIP_UDP_TxCountGet
                0x0001b13c                TCPIP_UDP_GetIsReady
                0x0001b164                TCPIP_UDP_ArrayGet
                0x0001b242                TCPIP_UDP_RxOffsetSet
                0x0001b276                TCPIP_UDP_Get
                0x0001b280                TCPIP_UDP_Discard
                0x0001b2a2                TCPIP_UDP_SocketNetSet
                0x0001b304                TCPIP_UDP_SocketNetGet
                0x0001b314                TCPIP_UDP_SourceIPAddressSet
                0x0001b358                TCPIP_UDP_Bind
                0x0001b458                TCPIP_UDP_OptionsSet
                0x0001b7f4                TCPIP_UDP_OptionsGet
                0x0001b950                TCPIP_UDP_DestinationIPAddressSet
                0x0001b99a                TCPIP_UDP_RemoteBind
                0x0001ba64                TCPIP_UDP_DestinationPortSet
                0x0001ba84                TCPIP_UDP_SetSplitPayload
                0x0001badc                TCPIP_UDP_SignalHandlerRegister
                0x0001bb22                TCPIP_UDP_SignalHandlerDeregister
                0x0001bb5c                TCPIP_UDP_SocketsNumberGet
 .text          0x0001bb68     0x1728 build/FreeRTOS/production/_ext/540595297/dhcp.o
                0x0001c86c                TCPIP_DHCP_Task
                0x0001cc60                TCPIP_DHCP_Initialize
                0x0001cdc8                TCPIP_DHCP_Deinitialize
                0x0001ce04                TCPIP_DHCP_Disable
                0x0001ce64                TCPIP_DHCP_Enable
                0x0001cec0                TCPIP_DHCP_Renew
                0x0001cf10                TCPIP_DHCP_Request
                0x0001cfa8                TCPIP_DHCP_IsEnabled
                0x0001cfe4                TCPIP_DHCP_IsActive
                0x0001d00c                TCPIP_DHCP_IsBound
                0x0001d048                TCPIP_DHCP_IsServerDetected
                0x0001d084                TCPIP_DHCP_RequestTimeoutSet
                0x0001d0d8                TCPIP_DHCP_ConnectionHandler
                0x0001d154                TCPIP_DHCP_HandlerRegister
                0x0001d188                TCPIP_DHCP_HandlerDeRegister
                0x0001d1ac                TCPIP_DHCP_InfoGet
                0x0001d240                TCPIP_DHCP_HostNameCallbackRegister
 .text          0x0001d290     0x15cc build/FreeRTOS/production/_ext/1231519722/drv_ethphy.o
                0x0001d32e                DRV_ETHPHY_Deinitialize
                0x0001d344                DRV_ETHPHY_Status
                0x0001d364                DRV_ETHPHY_Tasks
                0x0001d38c                DRV_ETHPHY_Open
                0x0001d3f4                DRV_ETHPHY_Close
                0x0001d420                DRV_ETHPHY_Setup
                0x0001d6a4                DRV_ETHPHY_ClientStatus
                0x0001d6c4                DRV_ETHPHY_ClientOperationResult
                0x0001d6e4                DRV_ETHPHY_PhyAddressGet
                0x0001d70c                DRV_ETHPHY_HWConfigFlagsGet
                0x0001d748                DRV_ETHPHY_VendorDataGet
                0x0001d774                DRV_ETHPHY_VendorDataSet
                0x0001d798                DRV_ETHPHY_VendorSMIReadStart
                0x0001d818                DRV_ETHPHY_VendorSMIWriteStart
                0x0001d898                DRV_ETHPHY_Initialize
                0x0001d8f4                DRV_ETHPHY_Reinitialize
                0x0001d974                DRV_ETHPHY_VendorSMIReadResultGet
                0x0001d9f0                DRV_ETHPHY_VendorSMIOperationIsComplete
                0x0001ddd6                DRV_ETHPHY_ClientOperationAbort
                0x0001de00                DRV_ETHPHY_Reset
                0x0001de40                DRV_ETHPHY_LinkStatusGet
                0x0001de90                DRV_ETHPHY_NegotiationResultGet
                0x0001ded8                DRV_ETHPHY_NegotiationIsComplete
                0x0001df18                DRV_ETHPHY_RestartNegotiation
 .text          0x0001e85c     0x15b8 build/FreeRTOS/production/_ext/404212886/FreeRTOS_tasks.o
                0x0001e988                xTaskCreate
                0x0001eb6c                vTaskDelete
                0x0001ec38                uxTaskPriorityGet
                0x0001ec58                uxTaskPriorityGetFromISR
                0x0001ec84                vTaskPrioritySet
                0x0001ed84                vTaskResume
                0x0001ee2c                vTaskStartScheduler
                0x0001ee90                vTaskEndScheduler
                0x0001eeb4                vTaskSuspendAll
                0x0001eec8                xTaskGetTickCount
                0x0001eed4                xTaskGetTickCountFromISR
                0x0001eee0                uxTaskGetNumberOfTasks
                0x0001eeec                pcTaskGetName
                0x0001ef04                xTaskIncrementTick
                0x0001f084                xTaskResumeAll
                0x0001f1bc                xTaskDelayUntil
                0x0001f228                vTaskDelay
                0x0001f25c                xTaskCatchUpTicks
                0x0001f284                vTaskSwitchContext
                0x0001f328                vTaskSuspend
                0x0001f3f4                vTaskPlaceOnEventList
                0x0001f414                vTaskPlaceOnUnorderedEventList
                0x0001f45c                xTaskRemoveFromEventList
                0x0001f538                vTaskRemoveFromUnorderedEventList
                0x0001f5e8                vTaskSetTimeOutState
                0x0001f608                vTaskInternalSetTimeOutState
                0x0001f61c                xTaskCheckForTimeOut
                0x0001f67c                vTaskMissedYield
                0x0001f68c                xTaskGetCurrentTaskHandle
                0x0001f698                xTaskPriorityInherit
                0x0001f76c                xTaskPriorityDisinherit
                0x0001f804                vTaskPriorityDisinheritAfterTimeout
                0x0001f8b0                uxTaskResetEventItemValue
                0x0001f8d0                pvTaskIncrementMutexHeldCount
                0x0001f8f0                ulTaskGenericNotifyTake
                0x0001f994                xTaskGenericNotifyWait
                0x0001fa54                xTaskGenericNotify
                0x0001fb70                xTaskGenericNotifyFromISR
                0x0001fcb4                vTaskGenericNotifyGiveFromISR
                0x0001fda8                xTaskGenericNotifyStateClear
                0x0001fde4                ulTaskGenericNotifyValueClear
 .text          0x0001fe14     0x137c build/FreeRTOS/production/_ext/540595297/dns.o
                0x000206c8                TCPIP_DNS_ClientInitialize
                0x000208e0                TCPIP_DNS_ClientDeinitialize
                0x0002093c                TCPIP_DNS_Resolve
                0x00020946                TCPIP_DNS_Send_Query
                0x00020950                TCPIP_DNS_GetIPv4Addresses
                0x00020960                TCPIP_DNS_GetIPv6Addresses
                0x00020970                TCPIP_DNS_GetIPAddressesNumber
                0x000209d0                TCPIP_DNS_IsResolved
                0x000209ea                TCPIP_DNS_IsNameResolved
                0x000209f4                TCPIP_DNS_ClientInfoGet
                0x00020a2c                TCPIP_DNS_EntryQuery
                0x00020b80                TCPIP_DNS_RemoveEntry
                0x00020fb8                TCPIP_DNS_ClientTask
                0x000210a8                TCPIP_DNS_RemoveAll
                0x000210fc                TCPIP_DNS_IsEnabled
                0x00021116                TCPIP_DNS_Enable
                0x00021122                TCPIP_DNS_Disable
 .text          0x00021190     0x12ea build/FreeRTOS/production/_ext/1664057780/rsa.o
                0x000216c4                wc_InitRsaKey_ex
                0x00021750                wc_InitRsaKey
                0x0002175c                wc_InitRsaKey_Id
                0x000217a2                wc_InitRsaKey_Label
                0x00021802                wc_FreeRsaKey
                0x00021892                wc_RsaPad_ex
                0x0002197c                wc_RsaUnPad_ex
                0x00021a90                wc_hash2mgf
                0x00021aaa                wc_RsaEncryptSize
                0x00021dc6                wc_RsaFunction
                0x00022000                wc_RsaPrivateDecryptInline
                0x0002202c                wc_RsaPrivateDecryptInline_ex
                0x00022064                wc_RsaPrivateDecrypt
                0x0002208e                wc_RsaPrivateDecrypt_ex
                0x000220c4                wc_RsaSSL_VerifyInline
                0x000220ee                wc_RsaSSL_Verify_ex2
                0x00022142                wc_RsaSSL_Verify_ex
                0x0002215a                wc_RsaSSL_Verify
                0x0002229a                wc_RsaPublicEncrypt
                0x000222c2                wc_RsaPublicEncrypt_ex
                0x000222f6                wc_RsaSSL_Sign
                0x00022320                wc_RsaFlattenPublicKey
                0x000223aa                wc_RsaExportKey

.text%73        0x0002247c     0x63e0
 .text          0x0002247c     0x12c8 build/FreeRTOS/production/_ext/41526634/drv_gmac_lib_samE5x.o
                0x0002247c                DRV_PIC32CGMAC_LibInitTransfer
                0x000224ec                DRV_PIC32CGMAC_LibTransferEnable
                0x0002250a                DRV_PIC32CGMAC_LibClose
                0x00022522                DRV_PIC32CGMAC_LibMACOpen
                0x00022582                DRV_PIC32CGMAC_LibRxQueFilterInit
                0x00022586                DRV_PIC32CGMAC_LibTxInit
                0x0002264a                DRV_PIC32CGMAC_LibTxSendPacket
                0x0002274a                DRV_PIC32CGMAC_LibTxAckPacket
                0x000228e0                DRV_PIC32CGMAC_LibTxAckErrPacket
                0x00022964                DRV_PIC32CGMAC_SingleListHeadRemove
                0x00022980                DRV_PIC32CGMAC_LibTxAckPendPacket
                0x000229b6                DRV_PIC32CGMAC_SingleListTailAdd
                0x00022a9e                DRV_PIC32CGMAC_LibRxBuffersAppend
                0x00022bbc                DRV_PIC32CGMAC_LibRxGetPacket
                0x00022f38                DRV_PIC32CGMAC_LibRxInit
                0x0002307a                DRV_PIC32CGMAC_SingleListHeadAdd
                0x00023092                DRV_GMAC_LibDescriptorsPoolAdd
                0x000230cc                DRV_PIC32CGMAC_LibRxFilterHash_Calculate
                0x00023280                DRV_PIC32CGMAC_LibSetMacAddr
                0x000232ac                DRV_PIC32CGMAC_LibInit
                0x00023334                DRV_PIC32CGMAC_LibGetMacAddr
                0x00023368                DRV_PIC32CGMAC_LibRxBuffersCountGet
                0x000233ec                DRV_PIC32CGMAC_LibSetPriorityToQueueNum
                0x000233fe                DRV_PIC32CGMAC_LibGetPriorityFromQueueNum
                0x00023402                DRV_PIC32CGMAC_LibGetHighPrioReadyQue
                0x00023418                DRV_PIC32CGMAC_LibClearPriorityQue
                0x00023454                DRV_PIC32CGMAC_LibSysInt_Disable
                0x00023480                DRV_PIC32CGMAC_LibSysIntStatus_Clear
                0x000234ac                DRV_PIC32CGMAC_LibSysInt_Enable
                0x000234d8                DRV_PIC32CGMAC_LibSysInt_Restore
                0x000234f4                DRV_PIC32CGMAC_LibReadInterruptStatus
                0x000234fc                DRV_PIC32CGMAC_LibEnableInterrupt
                0x00023504                DRV_PIC32CGMAC_LibDisableInterrupt
                0x0002350c                GMAC_InterruptHandler
                0x0002353c                DRV_PIC32CGMAC_LibSetRxFilter
                0x00023550                DRV_PIC32CGMAC_LibClearTxComplete
                0x0002355a                DRV_PIC32CGMAC_LibIsTxComplete
                0x00023566                DRV_PIC32CGMAC_LibTxEnable
                0x00023580                DRV_PIC32CGMAC_LibGetTxOctetLow
                0x0002358a                DRV_PIC32CGMAC_LibGetTxOctetHigh
                0x00023594                DRV_PIC32CGMAC_LibGetTxFrameCount
                0x0002359e                DRV_PIC32CGMAC_LibGetTxBCastFrameCount
                0x000235a8                DRV_PIC32CGMAC_LibGetTxMCastFrameCount
                0x000235b2                DRV_PIC32CGMAC_LibGetTxPauseFrameCount
                0x000235bc                DRV_PIC32CGMAC_LibGetTx64ByteFrameCount
                0x000235c6                DRV_PIC32CGMAC_LibGetTx127ByteFrameCount
                0x000235d0                DRV_PIC32CGMAC_LibGetTx255ByteFrameCount
                0x000235da                DRV_PIC32CGMAC_LibGetTx511ByteFrameCount
                0x000235e4                DRV_PIC32CGMAC_LibGetTx1023ByteFrameCount
                0x000235ee                DRV_PIC32CGMAC_LibGetTx1518ByteFrameCount
                0x000235f8                DRV_PIC32CGMAC_LibGetTxGT1518ByteFrameCount
                0x00023602                DRV_PIC32CGMAC_LibGetTxUnderRunFrameCount
                0x0002360c                DRV_PIC32CGMAC_LibGetTxSingleCollFrameCount
                0x00023616                DRV_PIC32CGMAC_LibGetTxMultiCollFrameCount
                0x00023620                DRV_PIC32CGMAC_LibGetTxExcessCollFrameCount
                0x0002362a                DRV_PIC32CGMAC_LibGetTxLateCollFrameCount
                0x00023634                DRV_PIC32CGMAC_LibGetTxDeferFrameCount
                0x0002363e                DRV_PIC32CGMAC_LibGetTxCSErrorFrameCount
                0x00023648                DRV_PIC32CGMAC_LibGetRxOctetLow
                0x00023652                DRV_PIC32CGMAC_LibGetRxOctetHigh
                0x0002365c                DRV_PIC32CGMAC_LibGetRxFrameCount
                0x00023666                DRV_PIC32CGMAC_LibGetRxBCastFrameCount
                0x00023670                DRV_PIC32CGMAC_LibGetRxMCastFrameCount
                0x0002367a                DRV_PIC32CGMAC_LibGetRxPauseFrameCount
                0x00023684                DRV_PIC32CGMAC_LibGetRx64ByteFrameCount
                0x0002368e                DRV_PIC32CGMAC_LibGetRx127ByteFrameCount
                0x00023698                DRV_PIC32CGMAC_LibGetRx255ByteFrameCount
                0x000236a2                DRV_PIC32CGMAC_LibGetRx511ByteFrameCount
                0x000236ac                DRV_PIC32CGMAC_LibGetRx1023ByteFrameCount
                0x000236b6                DRV_PIC32CGMAC_LibGetRx1518ByteFrameCount
                0x000236c0                DRV_PIC32CGMAC_LibGetRxGT1518ByteFrameCount
                0x000236ca                DRV_PIC32CGMAC_LibGetRxUnderSizeFrameCount
                0x000236d4                DRV_PIC32CGMAC_LibGetRxOverSizeFrameCount
                0x000236de                DRV_PIC32CGMAC_LibGetRxJabberFrameCount
                0x000236e8                DRV_PIC32CGMAC_LibGetRxFCSErrorFrameCount
                0x000236f2                DRV_PIC32CGMAC_LibGetRxLFErrorFrameCount
                0x000236fc                DRV_PIC32CGMAC_LibGetRxSymErrorFrameCount
                0x00023706                DRV_PIC32CGMAC_LibGetRxAlignErrorFrameCount
                0x00023710                DRV_PIC32CGMAC_LibGetRxResErrorFrameCount
                0x0002371a                DRV_PIC32CGMAC_LibGetRxOverRunFrameCount
                0x00023724                DRV_PIC32CGMAC_LibGetRxIPHdrCSErrorFrameCount
                0x0002372e                DRV_PIC32CGMAC_LibGetRxTCPCSErrorFrameCount
                0x00023738                DRV_PIC32CGMAC_LibGetRxUDPCSErrorFrameCount
 .text          0x00023744     0x1200 build/FreeRTOS/production/_ext/41526634/drv_gmac.o
                0x00023744                DRV_GMAC_Reinitialize
                0x00023746                DRV_GMAC_Status
                0x00023774                DRV_GMAC_ConfigGet
                0x000237bc                DRV_GMAC_Open
                0x000237e8                DRV_GMAC_Close
                0x00023808                DRV_GMAC_LinkCheck
                0x00023850                DRV_GMAC_PowerMode
                0x00023882                DRV_GMAC_EventPendingGet
                0x00023a76                DRV_GMAC_Initialize
                0x00023dfc                DRV_GMAC_Deinitialize
                0x00024004                DRV_GMAC_Tasks
                0x000241a0                DRV_GMAC_PacketTx
                0x00024274                DRV_GMAC_Process
                0x00024308                DRV_GMAC_PacketRx
                0x000244b4                DRV_GMAC_RxFilterHashTableEntrySet
                0x0002450c                DRV_GMAC_StatisticsGet
                0x000245d4                DRV_GMAC_RegisterStatisticsGet
                0x00024640                DRV_GMAC_ParametersGet
                0x000246a4                DRV_GMAC_EventMaskSet
                0x00024834                DRV_GMAC_EventAcknowledge
                0x000248d4                DRV_GMAC_Tasks_ISR
 .text          0x00024944     0x1190 build/FreeRTOS/production/_ext/1664057780/sha.o
                0x000256fc                wc_InitSha_ex
                0x00025744                wc_ShaUpdate
                0x000258a0                wc_ShaFinalRaw
                0x000258f4                wc_ShaFinal
                0x00025a50                wc_InitSha
                0x00025a5e                wc_ShaFree
                0x00025a60                wc_ShaCopy
                0x00025a8a                wc_ShaGetHash
                0x00025abe                wc_ShaSetFlags
                0x00025ac6                wc_ShaGetFlags
 .text          0x00025ad4     0x1154 build/FreeRTOS/production/_ext/540595297/tcpip_helpers.o
                0x00025b0c                TCPIP_Helper_StringToIPAddress
                0x00025c2c                TCPIP_Helper_IPAddressToString
                0x00025c78                TCPIP_Helper_StringToIPv6Address
                0x00025fa2                TCPIP_Helper_IPv6AddressToString
                0x00026044                TCPIP_Helper_IsPrivateAddress
                0x00026070                TCPIP_Helper_StringToMACAddress
                0x00026108                TCPIP_Helper_MACAddressToString
                0x0002614c                TCPIP_Helper_StringToPowerMode
                0x0002617c                TCPIP_Helper_PowerModeToString
                0x00026190                TCPIP_Helper_Base64Decode
                0x0002627e                TCPIP_Helper_Base64Encode
                0x00026394                TCPIP_Helper_CalcIPChecksum
                0x00026404                TCPIP_Helper_ChecksumFold
                0x00026412                TCPIP_Helper_PacketChecksum
                0x00026494                TCPIP_Helper_PacketCopy
                0x0002650c                TCPIP_Helper_FormatNetBIOSName
                0x0002654e                TCPIP_Helper_FindCommonPrefix
                0x000265a0                TCPIP_Helper_SingleListInitialize
                0x000265aa                TCPIP_Helper_SingleListHeadAdd
                0x000265c0                TCPIP_Helper_SingleListTailAdd
                0x000265da                TCPIP_Helper_SingleListMidAdd
                0x000265e8                TCPIP_Helper_SingleListHeadRemove
                0x00026604                TCPIP_Helper_SingleListNextRemove
                0x0002662a                TCPIP_Helper_SingleListNodeRemove
                0x00026670                TCPIP_Helper_SingleListFind
                0x00026690                TCPIP_Helper_SingleListAppend
                0x000266aa                TCPIP_Helper_ProtectedSingleListInitialize
                0x000266cc                TCPIP_Helper_ProtectedSingleListDeinitialize
                0x000266fc                TCPIP_Helper_ProtectedSingleListHeadAdd
                0x00026726                TCPIP_Helper_ProtectedSingleListTailAdd
                0x00026750                TCPIP_Helper_ProtectedSingleListMidAdd
                0x00026780                TCPIP_Helper_ProtectedSingleListHeadRemove
                0x000267ac                TCPIP_Helper_ProtectedSingleListNextRemove
                0x000267dc                TCPIP_Helper_ProtectedSingleListNodeRemove
                0x0002680c                TCPIP_Helper_ProtectedSingleListAppend
                0x00026836                TCPIP_Helper_ProtectedSingleListRemoveAll
                0x00026860                TCPIP_Helper_ProtectedSingleListLock
                0x00026880                TCPIP_Helper_ProtectedSingleListUnlock
                0x0002689c                TCPIP_Helper_DoubleListInitialize
                0x000268a6                TCPIP_Helper_DoubleListHeadAdd
                0x000268c8                TCPIP_Helper_DoubleListTailAdd
                0x000268ea                TCPIP_Helper_DoubleListMidAdd
                0x000268fe                TCPIP_Helper_DoubleListHeadRemove
                0x00026922                TCPIP_Helper_DoubleListTailRemove
                0x00026946                TCPIP_Helper_DoubleListMidRemove
                0x00026958                TCPIP_Helper_DoubleListNodeRemove
                0x00026978                TCPIP_Helper_DoubleListFind
                0x00026998                TCPIP_Helper_ProtectedDoubleListInitialize
                0x000269ba                TCPIP_Helper_ProtectedDoubleListDeinitialize
                0x000269ea                TCPIP_Helper_ProtectedDoubleListHeadAdd
                0x00026a14                TCPIP_Helper_ProtectedDoubleListTailAdd
                0x00026a3e                TCPIP_Helper_ProtectedDoubleListMidAdd
                0x00026a6c                TCPIP_Helper_ProtectedDoubleListHeadRemove
                0x00026a98                TCPIP_Helper_ProtectedDoubleListTailRemove
                0x00026ac4                TCPIP_Helper_ProtectedDoubleListMidRemove
                0x00026aee                TCPIP_Helper_ProtectedDoubleListNodeRemove
                0x00026b18                TCPIP_Helper_ProtectedDoubleListRemoveAll
                0x00026b42                TCPIP_Helper_ProtectedDoubleListLock
                0x00026b56                TCPIP_Helper_ProtectedDoubleListUnlock
                0x00026b66                TCPIP_Helper_TCPSecurePortGet
                0x00026b7c                TCPIP_Helper_UDPSecurePortGet
                0x00026b92                TCPIP_Helper_SecurePortGetByIndex
                0x00026bc8                TCPIP_Helper_SecurePortSet
 .text          0x00026c28      0xf48 build/FreeRTOS/production/_ext/540595297/arp.o
                0x00026c48                TCPIP_ARP_HashKeyCompare
                0x00026c54                TCPIP_ARP_HashKeyCopy
                0x0002702c                TCPIP_ARP_Task
                0x000272ec                TCPIP_ARP_HashEntryDelete
                0x0002731c                TCPIP_ARP_HashKeyHash
                0x00027334                TCPIP_ARP_Initialize
                0x00027518                TCPIP_ARP_Deinitialize
                0x00027560                TCPIP_ARP_HandlerRegister
                0x00027594                TCPIP_ARP_HandlerDeRegister
                0x000275b8                TCPIP_ARP_Resolve
                0x000275fe                TCPIP_ARP_Probe
                0x0002765a                TCPIP_ARP_IsResolved
                0x000276ec                TCPIP_ARP_EntrySet
                0x000277d4                TCPIP_ARP_EntryGet
                0x00027836                TCPIP_ARP_EntryRemove
                0x000278a8                TCPIP_ARP_EntryRemoveNet
                0x00027998                TCPIP_ARP_EntryRemoveAll
                0x00027a1c                TCPIP_ARP_EntryQuery
                0x00027ac4                TCPIP_ARP_CacheEntriesNoGet
                0x00027b1c                TCPIP_ARP_CacheThresholdSet
 .text          0x00027b70      0xcec build/FreeRTOS/production/_ext/540595297/ipv4.o
                0x00027cc4                TCPIP_IPV4_Task
                0x00027ef0                TCPIP_IPv4_ArpStatGet
                0x00027ef4                TCPIP_IPv4_ForwardStatGet
                0x00027ef8                TCPIP_IPV4_Initialize
                0x00028000                TCPIP_IPV4_Deinitialize
                0x000280c0                TCPIP_IPV4_SelectDestInterface
                0x0002810e                TCPIP_IPV4_SelectSourceInterface
                0x00028158                TCPIP_IPV4_PktTx
                0x00028388                TCPIP_IPV4_PacketTransmit
                0x00028394                TCPIP_IPV4_PacketFormatTx
                0x000284b8                IPv4RegisterFilter
                0x0002850c                Ipv4DeRegisterFilter
                0x00028534                Ipv4FilterSetActive
                0x00028594                TCPIP_IPV4_PacketFilterSet
                0x000285bc                TCPIP_IPV4_PacketFilterClear
                0x000285e4                TCPIP_IPV4_MacPacketSwitchTxToRx
                0x00028668                TCPIP_IPV4_MacPacketTransmit
                0x000286c8                TCPIP_IPV4_PacketAlloc
                0x00028740                TCPIP_IPV4_PacketOptionFieldSet
                0x00028776                TCPIP_IPV4_PacketOptionListGet
                0x000287cc                TCPIP_IPV4_PacketOptionGet
                0x0002883c                TCPIP_IPV4_MaxDatagramDataSizeGet
                0x00028858                TCPIP_IPV4_IsFragmentationEnabled

.rodata%79      0x0002885c      0xb90
 .rodata        0x0002885c      0xb90 build/FreeRTOS/production/_ext/1664057780/ecc.o
                0x0002885c                ecc_sets
                0x00028994                ecc_sets_count

.text%80        0x000293ec     0x1624
 .text          0x000293ec      0xb54 build/FreeRTOS/production/_ext/1231519722/drv_extphy_lan867x.o
                0x000295e0                Lan867x_Write_Register
                0x00029626                Lan867x_Read_Register
                0x00029810                Lan867x_Write_Bit_Register
 .text          0x00029f40      0xad0 build/FreeRTOS/production/_ext/1005353002/sys_command.o
                0x0002a350                SYS_CMD_Initialize
                0x0002a374                SYS_CMD_READY_TO_READ
                0x0002a378                SYS_CMD_ADDGRP
                0x0002a3f0                SYS_CMD_MESSAGE
                0x0002a3fc                SYS_CMD_PRINT
                0x0002a478                SYS_CMDIO_GET_HANDLE
                0x0002a498                SYS_CMDIO_ADD
                0x0002a528                SYS_CMD_Tasks
                0x0002a9a0                SYS_CMD_DELETE

.rodata%82      0x0002aa10      0xacc
 .rodata        0x0002aa10      0xacc build/FreeRTOS/production/_ext/540595297/iperf.o

.text%83        0x0002b4dc     0x4584
 .text          0x0002b4dc      0xabc build/FreeRTOS/production/_ext/1664057780/random.o
                0x0002ba40                wc_RNG_DRBG_Reseed
                0x0002ba5a                wc_RNG_TestSeed
                0x0002bac2                wc_FreeRng
                0x0002baf6                wc_rng_free
                0x0002bb1e                wc_RNG_HealthTest_ex
                0x0002bbc0                wc_RNG_HealthTest
                0x0002bbec                wc_GenerateSeed
                0x0002bde4                wc_rng_new
                0x0002be1a                wc_InitRng
                0x0002be34                wc_InitRng_ex
                0x0002be4a                wc_InitRngNonce
                0x0002be60                wc_InitRngNonce_ex
                0x0002be70                wc_RNG_GenerateBlock
                0x0002bf8c                wc_RNG_GenerateByte
 .text          0x0002bf98      0xabc build/FreeRTOS/production/_ext/1664057780/sha256.o
                0x0002c2a4                wc_InitSha256_ex
                0x0002c314                wc_Sha256Update
                0x0002c458                wc_Sha256FinalRaw
                0x0002c4b2                wc_Sha256Final
                0x0002c640                wc_InitSha224_ex
                0x0002c6a4                wc_Sha224Update
                0x0002c7d0                wc_Sha224Final
                0x0002c93c                wc_InitSha224
                0x0002c950                wc_Sha224Free
                0x0002c952                wc_InitSha256
                0x0002c966                wc_Sha256Free
                0x0002c968                wc_Sha224Copy
                0x0002c992                wc_Sha224GetHash
                0x0002c9ce                wc_Sha224SetFlags
                0x0002c9d6                wc_Sha224GetFlags
                0x0002c9e2                wc_Sha256Copy
                0x0002ca0c                wc_Sha256GetHash
                0x0002ca40                wc_Sha256SetFlags
                0x0002ca48                wc_Sha256GetFlags
 .text          0x0002ca54      0xaa4 build/FreeRTOS/production/_ext/1664057780/cryptocb.o
                0x0002cacc                wc_CryptoCb_Init
                0x0002cae8                wc_CryptoCb_GetDevIdAtIndex
                0x0002cafa                wc_CryptoCb_RegisterDevice
                0x0002cb28                wc_CryptoCb_UnRegisterDevice
                0x0002cb3e                wc_CryptoCb_Rsa
                0x0002cbb8                wc_CryptoCb_RsaCheckPrivKey
                0x0002cc18                wc_CryptoCb_MakeEccKey
                0x0002cc86                wc_CryptoCb_Ecdh
                0x0002ccf2                wc_CryptoCb_EccSign
                0x0002cd66                wc_CryptoCb_EccVerify
                0x0002cdda                wc_CryptoCb_EccCheckPrivKey
                0x0002ce38                wc_CryptoCb_AesGcmEncrypt
                0x0002ceb2                wc_CryptoCb_AesGcmDecrypt
                0x0002cf2c                wc_CryptoCb_AesCcmEncrypt
                0x0002cfa6                wc_CryptoCb_AesCcmDecrypt
                0x0002d020                wc_CryptoCb_AesCbcEncrypt
                0x0002d088                wc_CryptoCb_AesCbcDecrypt
                0x0002d0f2                wc_CryptoCb_AesCtrEncrypt
                0x0002d15c                wc_CryptoCb_AesEcbEncrypt
                0x0002d1c6                wc_CryptoCb_AesEcbDecrypt
                0x0002d232                wc_CryptoCb_Des3Encrypt
                0x0002d29c                wc_CryptoCb_Des3Decrypt
                0x0002d308                wc_CryptoCb_ShaHash
                0x0002d36e                wc_CryptoCb_Sha256Hash
                0x0002d3d4                wc_CryptoCb_Hmac
                0x0002d444                wc_CryptoCb_RandomBlock
                0x0002d4a0                wc_CryptoCb_RandomSeed
                0x0002d4f0                wc_CryptoCb_DefaultDevID
 .text          0x0002d4f8      0xaa0 build/FreeRTOS/production/_ext/832704728/sys_time.o
                0x0002d8c4                SYS_TIME_Initialize
                0x0002d9b4                SYS_TIME_Deinitialize
                0x0002d9e8                SYS_TIME_Status
                0x0002d9fc                SYS_TIME_FrequencyGet
                0x0002da08                SYS_TIME_Counter64Get
                0x0002da38                SYS_TIME_CounterGet
                0x0002da40                SYS_TIME_CounterSet
                0x0002da5c                SYS_TIME_CountToUS
                0x0002daa4                SYS_TIME_CountToMS
                0x0002dae4                SYS_TIME_USToCount
                0x0002db04                SYS_TIME_MSToCount
                0x0002db20                SYS_TIME_TimerCreate
                0x0002db3c                SYS_TIME_TimerReload
                0x0002dbc4                SYS_TIME_TimerDestroy
                0x0002dce4                SYS_TIME_TimerStart
                0x0002dd3c                SYS_TIME_TimerStop
                0x0002dd78                SYS_TIME_TimerCounterGet
                0x0002de04                SYS_TIME_TimerPeriodHasExpired
                0x0002de2c                SYS_TIME_DelayUS
                0x0002de80                SYS_TIME_DelayMS
                0x0002ded0                SYS_TIME_DelayIsComplete
                0x0002dee8                SYS_TIME_CallbackRegisterUS
                0x0002df40                SYS_TIME_CallbackRegisterMS
 .text          0x0002df98      0x950 build/FreeRTOS/production/_ext/1664057780/md5.o
                0x0002e668                wc_InitMd5_ex
                0x0002e6a4                wc_Md5Update
                0x0002e7a2                wc_Md5Final
                0x0002e85c                wc_InitMd5
                0x0002e872                wc_Md5Free
                0x0002e874                wc_Md5Copy
                0x0002e89e                wc_Md5GetHash
                0x0002e8d2                wc_Md5SetFlags
                0x0002e8da                wc_Md5GetFlags
 .text          0x0002e8e8      0x8cc build/FreeRTOS/production/_ext/404212886/queue.o
                0x0002ea16                xQueueGenericReset
                0x0002eaa4                xQueueGenericCreate
                0x0002eaee                xQueueCreateCountingSemaphore
                0x0002eb14                xQueueGenericSend
                0x0002ec38                xQueueCreateMutex
                0x0002ec5c                xQueueGenericSendFromISR
                0x0002ecd8                xQueueGiveFromISR
                0x0002ed4a                xQueueReceive
                0x0002ee58                xQueueSemaphoreTake
                0x0002efac                xQueuePeek
                0x0002f0b8                xQueueReceiveFromISR
                0x0002f136                xQueuePeekFromISR
                0x0002f166                uxQueueMessagesWaiting
                0x0002f178                uxQueueSpacesAvailable
                0x0002f18e                uxQueueMessagesWaitingFromISR
                0x0002f192                vQueueDelete
                0x0002f19a                xQueueIsQueueEmptyFromISR
                0x0002f1a4                xQueueIsQueueFullFromISR
 .text          0x0002f1b4      0x8ac build/FreeRTOS/production/_ext/1664057780/des3.o
                0x0002f68a                wc_Des_CbcEncrypt
                0x0002f702                wc_Des_CbcDecrypt
                0x0002f786                wc_Des3_CbcEncrypt
                0x0002f844                wc_Des3_CbcDecrypt
                0x0002f90a                wc_Des_SetIV
                0x0002f922                wc_Des_SetKey
                0x0002f93e                wc_Des3_SetIV
                0x0002f966                wc_Des3_SetKey
                0x0002fa2a                wc_Des3Init
                0x0002fa44                wc_Des3Free

.rodata%90      0x0002fa60      0x898
 .rodata        0x0002fa60      0x898 build/FreeRTOS/production/_ext/1664057780/des3.o

.text%91        0x000302f8      0x808
 .text          0x000302f8      0x808 build/FreeRTOS/production/_ext/1149484450/drv_miim.o
                0x000302f8                DRV_MIIM_Reinitialize
                0x000302fa                DRV_MIIM_Status
                0x0003039e                DRV_MIIM_ClientStatus
                0x000303b4                DRV_MIIM_RegisterCallback
                0x000303f0                DRV_MIIM_DeregisterCallback
                0x0003041e                DRV_MIIM_Setup
                0x000304fe                DRV_MIIM_Open
                0x00030578                Helper_SingleListInitialize
                0x00030582                Helper_SingleListTailAdd
                0x0003059c                DRV_MIIM_Initialize
                0x00030614                Helper_SingleListHeadRemove
                0x000306f4                DRV_MIIM_Read
                0x0003070e                DRV_MIIM_Write
                0x00030728                DRV_MIIM_Scan
                0x00030742                Helper_SingleListNodeRemove
                0x0003087c                DRV_MIIM_Deinitialize
                0x000308b6                DRV_MIIM_Close
                0x000308ce                DRV_MIIM_Tasks
                0x00030a1a                DRV_MIIM_OperationResult
                0x00030aaa                DRV_MIIM_OperationAbort

.rodata%92      0x00030b00      0x798
 .rodata        0x00030b00      0x798 build/FreeRTOS/production/_ext/41526634/drv_gmac.o
                0x00031240                DRV_GMAC_Object

.text%93        0x00031298      0x770
 .text          0x00031298      0x770 build/FreeRTOS/production/_ext/1360937237/bc_test.o
                0x00031298                BC_TEST_TimerCallback
                0x00031354                BC_TEST_Print_State_Change
                0x00031384                BC_TEST_DumpMem
                0x00031438                BC_TEST_Tasks
                0x000317e0                BC_TEST_miim_init
                0x0003185c                BC_TEST_miim_close
                0x00031984                BC_TEST_Command_Init
                0x000319a8                BC_TEST_Initialize

.rodata%94      0x00031a08      0x738
 .rodata        0x00031a08      0x738 build/FreeRTOS/production/_ext/1360937237/bc_test.o
                0x00031ee4                msd_cmd_tbl

.text%95        0x00032140      0xd30
 .text          0x00032140      0x6b0 build/FreeRTOS/production/_ext/1609394304/crypto.o
                0x00032140                CRYPT_MD5_Initialize
                0x00032152                CRYPT_MD5_DataSizeSet
                0x0003215e                CRYPT_MD5_DataAdd
                0x00032176                CRYPT_MD5_Finalize
                0x0003218e                CRYPT_SHA_Initialize
                0x0003219e                CRYPT_SHA_DataSizeSet
                0x000321aa                CRYPT_SHA_DataAdd
                0x000321c2                CRYPT_SHA_Finalize
                0x000321da                CRYPT_SHA256_Initialize
                0x000321ea                CRYPT_SHA256_DataSizeSet
                0x000321f6                CRYPT_SHA256_DataAdd
                0x0003220e                CRYPT_SHA256_Finalize
                0x00032226                CRYPT_SHA224_Initialize
                0x00032236                CRYPT_SHA224_DataAdd
                0x0003224e                CRYPT_SHA224_Finalize
                0x00032266                CRYPT_HMAC_SetKey
                0x000322ae                CRYPT_HMAC_DataAdd
                0x000322c6                CRYPT_HMAC_Finalize
                0x000322de                CRYPT_RNG_Initialize
                0x000322ee                CRYPT_RNG_Deinitialize
                0x00032300                CRYPT_RNG_Get
                0x00032318                CRYPT_RNG_BlockGenerate
                0x00032330                CRYPT_TDES_KeySet
                0x00032348                CRYPT_TDES_IvSet
                0x00032360                CRYPT_TDES_CBC_Encrypt
                0x00032380                CRYPT_TDES_CBC_Decrypt
                0x000323a0                CRYPT_AES_KeySet
                0x000323c0                CRYPT_AES_IvSet
                0x000323d8                CRYPT_AES_CBC_Encrypt
                0x000323f8                CRYPT_AES_CBC_Decrypt
                0x00032418                CRYPT_AES_CTR_Encrypt
                0x00032438                CRYPT_AES_GCM_SetKey
                0x00032450                CRYPT_AES_GCM_Encrypt
                0x00032484                CRYPT_AES_GCM_Decrypt
                0x000324b0                CRYPT_AES_DIRECT_Encrypt
                0x000324c2                CRYPT_AES_DIRECT_Decrypt
                0x000324e4                CRYPT_RSA_Initialize
                0x0003250c                CRYPT_RSA_Free
                0x0003252c                CRYPT_RSA_PublicKeyDecode
                0x00032556                CRYPT_RSA_PrivateKeyDecode
                0x00032580                CRYPT_RSA_PublicEncrypt
                0x000325be                CRYPT_RSA_PrivateDecrypt
                0x000325f0                CRYPT_RSA_EncryptSizeGet
                0x00032602                CRYPT_ECC_Initialize
                0x00032626                CRYPT_ECC_Free
                0x00032646                CRYPT_ECC_PublicExport
                0x0003266e                CRYPT_ECC_PublicImport
                0x00032690                CRYPT_ECC_PrivateImport
                0x000326c6                CRYPT_ECC_DHE_KeyMake
                0x000326e8                CRYPT_ECC_DHE_SharedSecretMake
                0x00032722                CRYPT_ECC_DSA_HashSign
                0x0003276c                CRYPT_ECC_DSA_HashVerify
                0x000327ae                CRYPT_ECC_KeySizeGet
                0x000327c0                CRYPT_ECC_SignatureSizeGet
                0x000327d2                CRYPT_ERROR_StringGet
 .text          0x000327f0      0x680 build/FreeRTOS/production/_ext/2092608928/plib_sercom1_usart.o
                0x00032808                SERCOM1_USART_Initialize
                0x00032888                SERCOM1_USART_FrequencyGet
                0x00032890                SERCOM1_USART_SerialSetup
                0x000329d4                SERCOM1_USART_ErrorGet
                0x000329e4                SERCOM1_USART_Read
                0x00032a60                SERCOM1_USART_ReadCountGet
                0x00032ac0                SERCOM1_USART_ReadFreeBufferCountGet
                0x00032ad4                SERCOM1_USART_ReadBufferSizeGet
                0x00032ae0                SERCOM1_USART_ReadNotificationEnable
                0x00032af8                SERCOM1_USART_ReadThresholdSet
                0x00032b04                SERCOM1_USART_ReadCallbackRegister
                0x00032b10                SERCOM1_USART_TransmitComplete
                0x00032b20                SERCOM1_USART_WriteCountGet
                0x00032b28                SERCOM1_USART_Write
                0x00032c00                SERCOM1_USART_WriteFreeBufferCountGet
                0x00032c14                SERCOM1_USART_WriteBufferSizeGet
                0x00032c20                SERCOM1_USART_WriteNotificationEnable
                0x00032c30                SERCOM1_USART_WriteThresholdSet
                0x00032c3c                SERCOM1_USART_WriteCallbackRegister
                0x00032c48                SERCOM1_USART_InterruptHandler
                0x00032dec                SERCOM1_USART_Virtual_Receive

.rodata%97      0x00032e70      0x600
 .rodata        0x00032e70      0x600 build/FreeRTOS/production/_ext/540595297/tcpip_manager.o

.text%98        0x00033470      0x59c
 .text          0x00033470      0x59c build/FreeRTOS/production/_ext/1664057780/hmac.o
                0x000334c0                wc_HmacSizeByType
                0x000334f0                _InitHmac
                0x00033532                wc_HmacUpdate
                0x000335e2                wc_HmacFinal
                0x0003375c                wc_HmacInit
                0x00033786                wc_HmacInit_Id
                0x000337c0                wc_HmacInit_Label
                0x0003381a                wc_HmacFree
                0x00033878                wc_HmacSetKey
                0x00033a08                wolfSSL_GetHmacMaxSize

.rodata%99      0x00033a0c      0x584
 .rodata        0x00033a0c      0x584 build/FreeRTOS/production/_ext/1664057780/asn.o
                0x00033f44                pem_struct_min_sz
                0x00033f48                END_PUB_KEY
                0x00033f4c                BEGIN_PUB_KEY
                0x00033f50                END_DSA_PRIV
                0x00033f54                BEGIN_DSA_PRIV
                0x00033f58                END_EC_PRIV
                0x00033f5c                BEGIN_EC_PRIV
                0x00033f60                END_ENC_PRIV_KEY
                0x00033f64                BEGIN_ENC_PRIV_KEY
                0x00033f68                END_PRIV_KEY
                0x00033f6c                BEGIN_PRIV_KEY
                0x00033f70                END_RSA_PUB
                0x00033f74                BEGIN_RSA_PUB
                0x00033f78                END_RSA_PRIV
                0x00033f7c                BEGIN_RSA_PRIV
                0x00033f80                END_X509_CRL
                0x00033f84                BEGIN_X509_CRL
                0x00033f88                END_CERT
                0x00033f8c                BEGIN_CERT

.text.__fmt_fp%100
                0x00033f90      0x4d0
 .text.__fmt_fp
                0x00033f90      0x4d0 c:/program files/microchip/xc32/v4.10/bin/bin/../../lib/gcc/pic32c/8.3.1/../../../../pic32c/lib/thumb/v7e-m+fp/hard\libc-musl.a(__fmt_fp.o)
                0x00033f90                __fmt_f_needed
                0x00033f90                __fmt_fp

.text%101       0x00034460      0x4be
 .text          0x00034460      0x4be build/FreeRTOS/production/_ext/1664057780/hash.o
                0x00034460                wc_HashTypeConvert
                0x0003446c                wc_HashGetOID
                0x000344ac                wc_OidGetHash
                0x000344dc                wc_HashGetDigestSize
                0x00034518                wc_HashGetBlockSize
                0x00034548                wc_HashInit_ex
                0x000345a2                wc_HashInit
                0x000345b0                wc_HashUpdate
                0x0003461a                wc_HashFinal
                0x00034672                wc_HashFree
                0x000346c2                wc_HashSetFlags
                0x00034712                wc_HashGetFlags
                0x00034762                wc_Md5Hash
                0x0003479e                wc_ShaHash
                0x000347f4                wc_Sha224Hash
                0x00034830                wc_Sha256Hash
                0x00034886                wc_Hash

.text%102       0x00034920      0x4b4
 .text          0x00034920      0x4b4 build/FreeRTOS/production/_ext/540595297/icmp.o
                0x00034940                TCPIP_ICMP_Task
                0x00034b5c                TCPIP_ICMP_Initialize
                0x00034bec                TCPIP_ICMP_Deinitialize
                0x00034c18                TCPIP_ICMP_EchoRequest
                0x00034d74                TCPIP_ICMP_EchoRequestCancel

.text.__fmt_a%103
                0x00034dd8      0x498
 .text.__fmt_a  0x00034dd8      0x498 c:/program files/microchip/xc32/v4.10/bin/bin/../../lib/gcc/pic32c/8.3.1/../../../../pic32c/lib/thumb/v7e-m+fp/hard\libc-musl.a(__fmt_a.o)
                0x00034dd8                __fmt_a_needed
                0x00034dd8                __fmt_a

.rodata%104     0x00035270      0x484
 .rodata        0x00035270      0x484 build/FreeRTOS/production/_ext/1664057780/tfm.o

.dinit%105      0x000356f4      0x480
 .dinit         0x000356f4      0x480 data_init

.text.__intscan%106
                0x00035b74      0x408
 .text.__intscan
                0x00035b74      0x408 c:/program files/microchip/xc32/v4.10/bin/bin/../../lib/gcc/pic32c/8.3.1/../../../../pic32c/lib/thumb/v7e-m+fp/hard\libc-musl.a(intscan.o)
                0x00035b74                __intscan

.text%107       0x00035f7c      0x6b4
 .text          0x00035f7c      0x380 build/FreeRTOS/production/_ext/540595297/tcpip_heap_internal.o
                0x0003620c                TCPIP_HEAP_CreateInternal
 .text          0x000362fc      0x334 build/FreeRTOS/production/_ext/1664057780/coding.o
                0x000362fc                Base64_SkipNewline
                0x0003638c                Base64_Decode

.rodata%109     0x00036630      0x310
 .rodata        0x00036630      0x310 build/FreeRTOS/production/_ext/1005353002/sys_command.o
                0x00036798                sysConsoleApi

.text%110       0x00036940      0x304
 .text          0x00036940      0x304 build/FreeRTOS/production/_ext/548640822/sys_console.o
                0x00036940                SYS_CONSOLE_Initialize
                0x000369a4                SYS_CONSOLE_Status
                0x000369f4                SYS_CONSOLE_HandleGet
                0x000369fe                SYS_CONSOLE_DeviceGet
                0x00036a18                SYS_CONSOLE_Tasks
                0x00036a40                SYS_CONSOLE_Read
                0x00036a74                SYS_CONSOLE_ReadFreeBufferCountGet
                0x00036aa8                SYS_CONSOLE_ReadCountGet
                0x00036adc                SYS_CONSOLE_Write
                0x00036b10                SYS_CONSOLE_WriteFreeBufferCountGet
                0x00036b44                SYS_CONSOLE_WriteCountGet
                0x00036b78                SYS_CONSOLE_Print
                0x00036be8                SYS_CONSOLE_Message
                0x00036c18                SYS_CONSOLE_Flush

.text.__printf_core%111
                0x00036c44      0x2f4
 .text.__printf_core
                0x00036c44      0x2f4 c:/program files/microchip/xc32/v4.10/bin/bin/../../lib/gcc/pic32c/8.3.1/../../../../pic32c/lib/thumb/v7e-m+fp/hard\libc-musl.a(__printf_core.o)
                0x00036c44                __printf_core

.text%112       0x00036f38      0xaa0
 .text          0x00036f38      0x2ec build/FreeRTOS/production/_ext/320424729/plib_nvmctrl.o
                0x00036f38                NVMCTRL_Initialize
                0x00036f48                NVMCTRL_Read
                0x00036f58                NVMCTRL_SetWriteMode
                0x00036f6c                NVMCTRL_QuadWordWrite
                0x00036fb8                NVMCTRL_DoubleWordWrite
                0x00036ff8                NVMCTRL_PageBufferWrite
                0x00037024                NVMCTRL_PageBufferCommit
                0x0003704c                NVMCTRL_PageWrite
                0x0003708c                NVMCTRL_BlockErase
                0x000370a8                NVMCTRL_USER_ROW_RowErase
                0x000370d8                NVMCTRL_ErrorGet
                0x000370f8                NVMCTRL_StatusGet
                0x00037104                NVMCTRL_IsBusy
                0x00037118                NVMCTRL_USER_ROW_PageWrite
                0x00037184                NVMCTRL_RegionLock
                0x00037194                NVMCTRL_RegionUnlock
                0x000371a4                NVMCTRL_RegionLockStatusGet
                0x000371b0                NVMCTRL_SecurityBitSet
                0x000371c0                NVMCTRL_SmartEEPROM_IsBusy
                0x000371d0                NVMCTRL_SmartEEPROMStatusGet
                0x000371dc                NVMCTRL_SmartEEPROM_IsActiveSectorFull
                0x000371ec                NVMCTRL_BankSwap
                0x000371fc                NVMCTRL_SmartEEPROMSectorReallocate
                0x0003720c                NVMCTRL_SmartEEPROMFlushPageBuffer
 .text          0x00037224      0x2bc c:/program files/microchip/xc32/v4.10/bin/bin/../../lib/gcc/pic32c/8.3.1/thumb/v7e-m+fp/hard\libgcc.a(_udivmoddi4.o)
                0x00037224                __udivmoddi4
 .text          0x000374e0      0x2a4 build/FreeRTOS/production/_ext/540595297/tcpip_packet.o
                0x000374e0                TCPIP_PKT_Initialize
                0x00037510                TCPIP_PKT_Deinitialize
                0x0003751c                _TCPIP_PKT_PacketAcknowledge
                0x0003754c                TCPIP_PKT_SegmentAppend
                0x00037560                TCPIP_PKT_PacketMACFormat
                0x00037598                TCPIP_PKT_DataSegmentGet
                0x0003760a                TCPIP_PKT_PayloadLen
                0x00037628                TCPIP_PKT_GapDcptOffset
                0x0003762e                TCPIP_PKT_GapDcptSize
                0x00037632                _TCPIP_PKT_PacketAlloc
                0x000376b4                _TCPIP_PKT_SocketAlloc
                0x000376e0                _TCPIP_PKT_PacketFree
                0x0003771c                _TCPIP_PKT_SegmentAlloc
                0x00037768                _TCPIP_PKT_SegmentFree
 .text          0x00037784      0x254 build/FreeRTOS/production/_ext/1360937237/bc_com.o
                0x00037784                BC_COM_Initialize
                0x00037798                BC_COM_Initialize_Runtime
                0x000377c0                BC_COM_DeInitialize_Runtime
                0x000377e8                BC_COM_listen
                0x000377fc                BC_COM_listen_stop
                0x00037808                BC_COM_is_data_received
                0x00037814                BC_COM_read_data
                0x00037838                BC_COM_send
                0x0003785c                BC_COM_is_idle
                0x00037870                BC_COM_Print_State_Change
                0x00037890                BC_COM_Tasks

.text.__aeabi_dadd%116
                0x000379d8      0x240
 .text.__aeabi_dadd
                0x000379d8      0x240 c:/program files/microchip/xc32/v4.10/bin/bin/../../lib/gcc/pic32c/8.3.1/../../../../pic32c/lib/thumb/v7e-m+fp/hard\libm-emfloat.a(floatasmops_arm.o)
                0x000379d8                __aeabi_dadd

.text%117       0x00037c18      0x22c
 .text          0x00037c18      0x22c build/FreeRTOS/production/_ext/1360937237/app.o
                0x00037c18                APP_Initialize
                0x00037c24                local_miim_init
                0x00037ca4                local_miim_close
                0x00037cc4                APP_Tasks
                0x00037e10                Write_Phy_Register
                0x00037e20                Write_Bit_Phy_Register
                0x00037e34                Read_Phy_Register

.rodata%118     0x00037e44      0x228
 .rodata        0x00037e44      0x228 build/FreeRTOS/production/_ext/1664057780/aes.o

.text%119       0x0003806c      0x21a
 .text          0x0003806c      0x21a build/FreeRTOS/production/_ext/540595297/oahash.o
                0x000380f4                TCPIP_OAHASH_Initialize
                0x0003811a                TCPIP_OAHASH_EntryLookup
                0x00038182                TCPIP_OAHASH_EntryLookupOrInsert
                0x000381e6                TCPIP_OAHASH_EntryRemove
                0x000381fe                TCPIP_OAHASH_EntriesRemoveAll
                0x0003822e                TCPIP_OAHASH_EntryGet
                0x00038240                TCPIP_OAHASH_EntryGetIndex

.rodata%120     0x00038288      0x218
 .rodata        0x00038288      0x218 build/FreeRTOS/production/_ext/161576091/initialization.o
                0x00038288                TCPIP_HOSTS_CONFIGURATION
                0x000382c0                TCPIP_STACK_MODULE_CONFIG_TBL
                0x00038310                sysTimeInitData
                0x00038318                sysConsole0Init
                0x00038324                sysCmdInit
                0x00038328                debugInit
                0x0003832c                sysConsole0UARTInitData
                0x00038330                sysConsole0UARTPlibAPI
                0x00038348                sysTimePlibAPI
                0x00038364                TCPIP_STACK_MODULE_CONFIG_TBL_SIZE
                0x00038368                TCPIP_HOSTS_CONFIGURATION_SIZE
                0x000383d0                tcpipIPv4InitData
                0x000383e0                tcpipDNSClientInitData
                0x000383f8                tcpipICMPInitData
                0x000383fc                tcpipDHCPInitData
                0x0003840c                tcpipTCPInitData
                0x00038414                tcpipUDPInitData
                0x0003841c                tcpipARPInitData
                0x00038444                tcpipGMACInitData
                0x0003847c                tcpipPhyInitData_LAN867x

.text%121       0x000384a0      0x1f4
 .text          0x000384a0      0x1f4 build/FreeRTOS/production/_ext/1664057780/wc_port.o
                0x000384a0                wolfCrypt_Init
                0x000384c0                wolfCrypt_Cleanup
                0x000384e4                wc_InitAndAllocMutex
                0x000384ee                wc_strtok
                0x00038572                wc_strsep
                0x000385b2                wc_strlcpy
                0x000385f6                wc_strlcat
                0x00038626                wc_InitMutex
                0x0003862a                wc_FreeMutex
                0x0003862e                wc_LockMutex
                0x00038632                wc_UnLockMutex
                0x00038636                mystrnstr

.text%122       0x000386a0      0x1f0
 .text          0x000386a0      0x1f0 build/FreeRTOS/production/_ext/246609638/port.o
                0x000386fc                pxPortInitialiseStack
                0x00038728                vPortSVCHandler
                0x00038754                vPortEndScheduler
                0x00038756                vPortEnterCritical
                0x00038774                vPortExitCritical
                0x00038788                xPortPendSVHandler
                0x000387f4                xPortSysTickHandler
                0x00038820                vPortSetupTimerInterrupt
                0x00038848                xPortStartScheduler

.rodata%123     0x00038890      0x1c8
 .rodata        0x00038890      0x1c8 build/FreeRTOS/production/_ext/1360937237/bc_com.o

.text.__secs_to_tm%124
                0x00038a58      0x1c8
 .text.__secs_to_tm
                0x00038a58      0x1c8 c:/program files/microchip/xc32/v4.10/bin/bin/../../lib/gcc/pic32c/8.3.1/../../../../pic32c/lib/thumb/v7e-m+fp/hard\libc-musl.a(__secs_to_tm.o)
                0x00038a58                __secs_to_tm

.text.__aeabi_ddiv%125
                0x00038c20      0x1c4
 .text.__aeabi_ddiv
                0x00038c20      0x1c4 c:/program files/microchip/xc32/v4.10/bin/bin/../../lib/gcc/pic32c/8.3.1/../../../../pic32c/lib/thumb/v7e-m+fp/hard\libm-emfloat.a(floatasmops_arm.o)
                0x00038c20                __aeabi_ddiv

.text.malloc%126
                0x00038de4      0x1b0
 .text.malloc   0x00038de4      0x1b0 c:/program files/microchip/xc32/v4.10/bin/bin/../../lib/gcc/pic32c/8.3.1/../../../../pic32c/lib/thumb/v7e-m+fp/hard\libc-musl.a(malloc.o)
                0x00038de4                malloc

.text%127       0x00038f94      0x650
 .text          0x00038f94      0x1a0 build/FreeRTOS/production/_ext/2072568807/sys_random_h2_adapter.o
                0x00039044                SYS_RANDOM_CryptoInitialize
                0x00039054                SYS_RANDOM_CryptoDeinitialize
                0x000390a8                SYS_RANDOM_CryptoGet
                0x000390d4                SYS_RANDOM_CryptoBlockGet
                0x00039108                SYS_RANDOM_CryptoByteGet
 .text          0x00039134      0x198 build/FreeRTOS/production/_ext/891571577/osal_freertos.o
                0x00039134                OSAL_CRIT_Enter
                0x0003914c                OSAL_CRIT_Leave
                0x00039162                OSAL_SEM_Create
                0x000391ba                OSAL_SEM_Delete
                0x000391cc                OSAL_SEM_Pend
                0x000391ea                OSAL_SEM_Post
                0x00039202                OSAL_SEM_PostISR
                0x0003923c                OSAL_SEM_GetCount
                0x0003924e                OSAL_MUTEX_Create
                0x00039266                OSAL_MUTEX_Delete
                0x00039280                OSAL_MUTEX_Lock
                0x0003929e                OSAL_MUTEX_Unlock
                0x000392b6                OSAL_Malloc
                0x000392be                OSAL_Free
                0x000392c6                OSAL_Initialize
 .text          0x000392cc      0x198 build/FreeRTOS/production/_ext/548640822/sys_console_uart.o
                0x000392cc                Console_UART_Flush
                0x000392d0                Console_UART_Status
                0x000392e0                Console_UART_Tasks
                0x000392e2                Console_UART_Initialize
                0x0003931c                Console_UART_Read
                0x00039358                Console_UART_WriteCountGet
                0x0003938c                Console_UART_WriteFreeBufferCountGet
                0x000393c0                Console_UART_Write
                0x000393fc                Console_UART_ReadFreeBufferCountGet
                0x00039430                Console_UART_ReadCountGet
 .text          0x00039464      0x180 build/FreeRTOS/production/_ext/1664057780/wolfmath.o
                0x00039464                get_digit_count
                0x0003946e                get_digit
                0x0003948e                mp_cond_copy
                0x00039544                get_rand_digit
                0x0003954e                wc_export_int

.rodata%131     0x000395e4      0x180
 .rodata        0x000395e4      0x180 build/FreeRTOS/production/_ext/1664057780/random.o
                0x000395e4                seedB_data
                0x00039614                outputB_data
                0x00039694                reseedSeedA_data
                0x000396b4                seedA_data
                0x000396e4                outputA_data

.text%132       0x00039764      0x158
 .text          0x00039764      0x158 build/FreeRTOS/production/_ext/540595297/helpers.o
                0x00039764                uitoa
                0x000397c0                hexatob
                0x000397fc                btohexa_high
                0x00039808                btohexa_low
                0x00039816                strncpy_m
                0x00039884                stricmp

.rodata%133     0x000398bc      0x144
 .rodata        0x000398bc      0x144 build/FreeRTOS/production/_ext/1360937237/app.o

.text%134       0x00039a00      0x138
 .text          0x00039a00      0x138 build/FreeRTOS/production/_ext/579449528/plib_tc0.o
                0x00039a00                TC0_TimerInitialize
                0x00039a40                TC0_TimerStart
                0x00039a58                TC0_TimerStop
                0x00039a70                TC0_TimerFrequencyGet
                0x00039a78                TC0_TimerCommandSet
                0x00039a90                TC0_Timer16bitCounterGet
                0x00039ab8                TC0_Timer16bitCounterSet
                0x00039acc                TC0_Timer16bitPeriodSet
                0x00039ae0                TC0_Timer16bitPeriodGet
                0x00039aec                TC0_Timer16bitCompareSet
                0x00039b00                TC0_TimerCallbackRegister
                0x00039b0c                TC0_TimerInterruptHandler

.rodata%135     0x00039b38      0x134
 .rodata        0x00039b38      0x134 build/FreeRTOS/production/_ext/1231519722/drv_ethphy.o
                0x00039b54                DRV_ETHPHY_OBJECT_BASE_Default

.text%136       0x00039c6c      0x134
 .text          0x00039c6c      0x134 build/FreeRTOS/production/_ext/161576091/tasks.o
                0x00039c6c                _TCPIP_STACK_Task
                0x00039c84                lSYS_CMD_Tasks
                0x00039c94                _DRV_MIIM_Task
                0x00039cdc                SYS_Tasks
                0x00039d78                SYS_Task_Start_TCP

.text.__aeabi_dmul%137
                0x00039da0      0x130
 .text.__aeabi_dmul
                0x00039da0      0x130 c:/program files/microchip/xc32/v4.10/bin/bin/../../lib/gcc/pic32c/8.3.1/../../../../pic32c/lib/thumb/v7e-m+fp/hard\libm-emfloat.a(floatasmops_arm.o)
                0x00039da0                __aeabi_dmul

.rodata%138     0x00039ed0      0x128
 .rodata        0x00039ed0      0x128 build/FreeRTOS/production/_ext/1231519722/drv_extphy_lan867x.o
                0x00039fe4                DRV_ETHPHY_OBJECT_LAN867x

.text%139       0x00039ff8      0x124
 .text          0x00039ff8      0x124 build/FreeRTOS/production/_ext/1494856054/plib_port.o
                0x00039ff8                PORT_Initialize
                0x0003a088                PORT_GroupRead
                0x0003a08c                PORT_GroupWrite
                0x0003a098                PORT_GroupLatchRead
                0x0003a09c                PORT_GroupSet
                0x0003a0a0                PORT_GroupClear
                0x0003a0a4                PORT_GroupToggle
                0x0003a0a8                PORT_GroupInputEnable
                0x0003a0ac                PORT_GroupOutputEnable
                0x0003a0b0                PORT_PinPeripheralFunctionConfig
                0x0003a0fa                PORT_PinGPIOConfig

.text.__fmt_x%140
                0x0003a11c      0x124
 .text.__fmt_x  0x0003a11c      0x124 c:/program files/microchip/xc32/v4.10/bin/bin/../../lib/gcc/pic32c/8.3.1/../../../../pic32c/lib/thumb/v7e-m+fp/hard\libc-musl.a(__fmt_x.o)
                0x0003a11c                __fmt_x_needed
                0x0003a11c                __fmt_x

.rodata%141     0x0003a240      0x10a
 .rodata        0x0003a240      0x10a c:/program files/microchip/xc32/v4.10/bin/bin/../../lib/gcc/pic32c/8.3.1/../../../../pic32c/lib/thumb/v7e-m+fp/hard\libc-musl.a(intscan.o)

.rodata%142     0x0003a34c      0x100
 .rodata        0x0003a34c      0x100 build/FreeRTOS/production/_ext/1664057780/sha256.o

.text.free%143  0x0003a44c       0xf8
 .text.free     0x0003a44c       0xf8 c:/program files/microchip/xc32/v4.10/bin/bin/../../lib/gcc/pic32c/8.3.1/../../../../pic32c/lib/thumb/v7e-m+fp/hard\libc-musl.a(malloc.o)
                0x0003a44c                free

.text%144       0x0003a544       0xe8
 .text          0x0003a544       0xe8 build/FreeRTOS/production/_ext/892004133/plib_clock.o
                0x0003a544                CLOCK_Initialize

.text.floor%145
                0x0003a630       0xcc
 .text.floor    0x0003a630       0xcc c:/program files/microchip/xc32/v4.10/bin/bin/../../lib/gcc/pic32c/8.3.1/../../../../pic32c/lib/thumb/v7e-m+fp/hard\libm-emfloat.a(lib_a-_FLOOR.o)
                0x0003a630                floor

.text%146       0x0003a6fc       0xc2
 .text          0x0003a6fc       0xc2 build/FreeRTOS/production/_ext/540595297/tcpip_notify.o
                0x0003a6fc                TCPIP_Notification_Initialize
                0x0003a704                TCPIP_Notification_Add
                0x0003a72e                TCPIP_Notification_Remove
                0x0003a74e                TCPIP_Notification_CbackRemove
                0x0003a794                TCPIP_Notification_RemoveAll
                0x0003a7ae                TCPIP_Notification_Deinitialize

.text%147       0x0003a7c0      0x160
 .text          0x0003a7c0       0xb0 build/FreeRTOS/production/_ext/1494909205/plib_nvic.o
                0x0003a7c0                NVIC_Initialize
                0x0003a844                NVIC_INT_Enable
                0x0003a84c                NVIC_INT_Disable
                0x0003a85e                NVIC_INT_Restore
 .text          0x0003a870       0xb0 build/FreeRTOS/production/_ext/161576091/initialization.o
                0x0003a870                TCPIP_STACK_Init
                0x0003a898                SYS_Initialize
                0x0003a910                SYS_Initialization_TCP_Stack

.text.__fmt_d%149
                0x0003a920       0xa8
 .text.__fmt_d  0x0003a920       0xa8 c:/program files/microchip/xc32/v4.10/bin/bin/../../lib/gcc/pic32c/8.3.1/../../../../pic32c/lib/thumb/v7e-m+fp/hard\libc-musl.a(__fmt_d.o)
                0x0003a920                __fmt_d
                0x0003a920                __fmt_d_needed

.text%150       0x0003a9c8       0xa4
 .text          0x0003a9c8       0xa4 build/FreeRTOS/production/_ext/2072568807/sys_time_h2_adapter.o
                0x0003a9c8                sy_time_h2_adapter_callback
                0x0003a9d8                SYS_TMR_CallbackPeriodic
                0x0003a9f4                SYS_TMR_TickCountGet
                0x0003aa1c                SYS_TMR_TickCountGetLong
                0x0003aa44                SYS_TMR_TickCounterFrequencyGet

.rodata%151     0x0003aa6c       0xa0
 .rodata        0x0003aa6c       0xa0 build/FreeRTOS/production/_ext/540595297/dhcp.o

.text%152       0x0003ab0c       0xa0
 .text          0x0003ab0c       0xa0 build/FreeRTOS/production/_ext/1665200909/heap_1.o
                0x0003ab0c                pvPortMalloc
                0x0003ab8c                vPortFree
                0x0003ab8e                vPortInitialiseBlocks
                0x0003ab9c                xPortGetFreeHeapSize

.text.__pop_int%153
                0x0003abac       0xa0
 .text.__pop_int
                0x0003abac       0xa0 c:/program files/microchip/xc32/v4.10/bin/bin/../../lib/gcc/pic32c/8.3.1/../../../../pic32c/lib/thumb/v7e-m+fp/hard\libc-musl.a(__pop_int.o)
                0x0003abac                __pop_int_needed
                0x0003abac                __pop_int

.text%154       0x0003ac4c       0xa0
 .text          0x0003ac4c       0xa0 c:/program files/microchip/xc32/v4.10/bin/bin/../../lib/gcc/pic32c/8.3.1/thumb/v7e-m+fp/hard\libgcc.a(_aeabi_ldivmod.o)
                0x0003ac4c                __aeabi_ldivmod

.text.__shgetc%155
                0x0003acec       0x92
 .text.__shgetc
                0x0003acec       0x92 c:/program files/microchip/xc32/v4.10/bin/bin/../../lib/gcc/pic32c/8.3.1/../../../../pic32c/lib/thumb/v7e-m+fp/hard\libc-musl.a(shgetc.o)
                0x0003acec                __shgetc

.text%156       0x0003ad7e       0x8a
 .text          0x0003ad7e       0x8a build/FreeRTOS/production/_ext/404212886/list.o
                0x0003ad7e                vListInitialise
                0x0003ad94                vListInitialiseItem
                0x0003ad9a                vListInsertEnd
                0x0003adb0                vListInsert
                0x0003ade4                uxListRemove

.text.Reset_Handler%157
                0x0003ae08       0x88
 .text.Reset_Handler
                0x0003ae08       0x88 build/FreeRTOS/production/_ext/161576091/startup_xc32.o
                0x0003ae08                Reset_Handler

.text.__pic32c_data_initialization%158
                0x0003ae90       0x88
 .text.__pic32c_data_initialization
                0x0003ae90       0x88 c:/program files/microchip/xc32/v4.10/bin/bin/../../lib/gcc/pic32c/8.3.1/../../../../pic32c/lib/thumb/v7e-m+fp/hard\libpic32c.a(data_init.o)
                0x0003ae90                __pic32c_data_initialization

.text.strspn%159
                0x0003af18       0x7e
 .text.strspn   0x0003af18       0x7e c:/program files/microchip/xc32/v4.10/bin/bin/../../lib/gcc/pic32c/8.3.1/../../../../pic32c/lib/thumb/v7e-m+fp/hard\libc-musl.a(strspn.o)
                0x0003af18                strspn

.text.__pad%160
                0x0003af96       0x7e
 .text.__pad    0x0003af96       0x7e c:/program files/microchip/xc32/v4.10/bin/bin/../../lib/gcc/pic32c/8.3.1/../../../../pic32c/lib/thumb/v7e-m+fp/hard\libc-musl.a(__printf_core.o)
                0x0003af96                __pad

.text%161       0x0003b014       0x7c
 .text          0x0003b014       0x7c build/FreeRTOS/production/_ext/1690414130/sys_int.o
                0x0003b014                SYS_INT_Enable
                0x0003b01c                SYS_INT_Disable
                0x0003b024                SYS_INT_Restore
                0x0003b02c                SYS_INT_SourceDisable
                0x0003b070                SYS_INT_SourceRestore

.text.__pop_ptr%162
                0x0003b090       0x7c
 .text.__pop_ptr
                0x0003b090       0x7c c:/program files/microchip/xc32/v4.10/bin/bin/../../lib/gcc/pic32c/8.3.1/../../../../pic32c/lib/thumb/v7e-m+fp/hard\libc-musl.a(__pop_ptr.o)
                0x0003b090                __pop_ptr
                0x0003b090                __pop_ptr_needed

.rodata%163     0x0003b10c       0x78
 .rodata        0x0003b10c       0x78 build/FreeRTOS/production/_ext/540595297/ipv4.o

.text.__cvt_u%164
                0x0003b184       0x78
 .text.__cvt_u  0x0003b184       0x78 c:/program files/microchip/xc32/v4.10/bin/bin/../../lib/gcc/pic32c/8.3.1/../../../../pic32c/lib/thumb/v7e-m+fp/hard\libc-musl.a(__fmt_u.o)
                0x0003b184                __cvt_u

.text.strcspn%165
                0x0003b1fc       0x76
 .text.strcspn  0x0003b1fc       0x76 c:/program files/microchip/xc32/v4.10/bin/bin/../../lib/gcc/pic32c/8.3.1/../../../../pic32c/lib/thumb/v7e-m+fp/hard\libc-musl.a(strcspn.o)
                0x0003b1fc                strcspn

.text.__fmt_o%166
                0x0003b272       0x72
 .text.__fmt_o  0x0003b272       0x72 c:/program files/microchip/xc32/v4.10/bin/bin/../../lib/gcc/pic32c/8.3.1/../../../../pic32c/lib/thumb/v7e-m+fp/hard\libc-musl.a(__fmt_o.o)
                0x0003b272                __fmt_o
                0x0003b272                __fmt_o_needed

.text%167       0x0003b2e4       0x60
 .text          0x0003b2e4       0x60 build/FreeRTOS/production/_ext/540595297/hash_fnv.o
                0x0003b2e4                fnv_32_hash
                0x0003b314                fnv_32a_hash

.rodata%168     0x0003b344       0xc0
 .rodata        0x0003b344       0x60 build/FreeRTOS/production/_ext/540595297/tcpip_helpers.o
 .rodata        0x0003b3a4       0x60 build/FreeRTOS/production/_ext/161576091/tasks.o

.text.vsnprintf%170
                0x0003b404       0x60
 .text.vsnprintf
                0x0003b404       0x60 c:/program files/microchip/xc32/v4.10/bin/bin/../../lib/gcc/pic32c/8.3.1/../../../../pic32c/lib/thumb/v7e-m+fp/hard\libc-musl.a(vsnprintf.o)
                0x0003b404                vsnprintf

.text.__strchrnul%171
                0x0003b464       0x60
 .text.__strchrnul
                0x0003b464       0x60 c:/program files/microchip/xc32/v4.10/bin/bin/../../lib/gcc/pic32c/8.3.1/../../../../pic32c/lib/thumb/v7e-m+fp/hard\libc-musl.a(strchrnul.o)
                0x0003b464                strchrnul
                0x0003b464                __strchrnul

.text%172       0x0003b4c4       0x5c
 .text          0x0003b4c4       0x5c build/FreeRTOS/production/_ext/147610190/sys_debug.o
                0x0003b4c4                SYS_DEBUG_Initialize
                0x0003b4dc                SYS_DEBUG_ConsoleInstanceGet
                0x0003b4e8                SYS_DEBUG_Status
                0x0003b4f4                SYS_DEBUG_ErrorLevelSet
                0x0003b500                SYS_DEBUG_ErrorLevelGet
                0x0003b50c                SYS_DEBUG_Redirect

.text.__libc_start_init%173
                0x0003b520       0x5c
 .text.__libc_start_init
                0x0003b520       0x5c c:/program files/microchip/xc32/v4.10/bin/bin/../../lib/gcc/pic32c/8.3.1/../../../../pic32c/lib/thumb/v7e-m+fp/hard\libc-musl.a(__libc_start_main.o)
                0x0003b520                __libc_init_array

.rodata%174     0x0003b57c       0x5c
 .rodata        0x0003b57c       0x5c c:/program files/microchip/xc32/v4.10/bin/bin/../../lib/gcc/pic32c/8.3.1/../../../../pic32c/lib/thumb/v7e-m+fp/hard\libc-musl.a(malloc.o)

.text.unbin%175
                0x0003b5d8       0x58
 .text.unbin    0x0003b5d8       0x58 c:/program files/microchip/xc32/v4.10/bin/bin/../../lib/gcc/pic32c/8.3.1/../../../../pic32c/lib/thumb/v7e-m+fp/hard\libc-musl.a(malloc.o)

.text.__fmt_s%176
                0x0003b630       0x58
 .text.__fmt_s  0x0003b630       0x58 c:/program files/microchip/xc32/v4.10/bin/bin/../../lib/gcc/pic32c/8.3.1/../../../../pic32c/lib/thumb/v7e-m+fp/hard\libc-musl.a(__fmt_s.o)
                0x0003b630                __fmt_s
                0x0003b630                __fmt_0_needed
                0x0003b630                __fmt_s_needed

.text.__fmt_u%177
                0x0003b688       0x56
 .text.__fmt_u  0x0003b688       0x56 c:/program files/microchip/xc32/v4.10/bin/bin/../../lib/gcc/pic32c/8.3.1/../../../../pic32c/lib/thumb/v7e-m+fp/hard\libc-musl.a(__fmt_u.o)
                0x0003b688                __fmt_u_needed
                0x0003b688                __fmt_u

.text.strtox%178
                0x0003b6de       0x54
 .text.strtox   0x0003b6de       0x54 c:/program files/microchip/xc32/v4.10/bin/bin/../../lib/gcc/pic32c/8.3.1/../../../../pic32c/lib/thumb/v7e-m+fp/hard\libc-musl.a(strtol.o)

.rodata%179     0x0003b734       0xa0
 .rodata        0x0003b734       0x50 build/FreeRTOS/production/_ext/540595297/tcp.o
 .rodata        0x0003b784       0x50 build/FreeRTOS/production/_ext/1664057780/coding.o

.text.__aeabi_d2iz%181
                0x0003b7d4       0x4c
 .text.__aeabi_d2iz
                0x0003b7d4       0x4c c:/program files/microchip/xc32/v4.10/bin/bin/../../lib/gcc/pic32c/8.3.1/../../../../pic32c/lib/thumb/v7e-m+fp/hard\libm-emfloat.a(floatasmops_arm.o)
                0x0003b7d4                __aeabi_d2iz

.text.__toread%182
                0x0003b820       0x4a
 .text.__toread
                0x0003b820       0x4a c:/program files/microchip/xc32/v4.10/bin/bin/../../lib/gcc/pic32c/8.3.1/../../../../pic32c/lib/thumb/v7e-m+fp/hard\libc-musl.a(__toread.o)
                0x0003b820                __toread

.text.strtok%183
                0x0003b86c       0x48
 .text.strtok   0x0003b86c       0x48 c:/program files/microchip/xc32/v4.10/bin/bin/../../lib/gcc/pic32c/8.3.1/../../../../pic32c/lib/thumb/v7e-m+fp/hard\libc-musl.a(strtok.o)
                0x0003b86c                strtok

.text.atoi%184  0x0003b8b4       0x46
 .text.atoi     0x0003b8b4       0x46 c:/program files/microchip/xc32/v4.10/bin/bin/../../lib/gcc/pic32c/8.3.1/../../../../pic32c/lib/thumb/v7e-m+fp/hard\libc-musl.a(atoi.o)
                0x0003b8b4                atoi

.rodata%185     0x0003b8fc       0x44
 .rodata        0x0003b8fc       0x44 build/FreeRTOS/production/_ext/540595297/udp.o

.text%186       0x0003b940       0x84
 .text          0x0003b940       0x44 build/FreeRTOS/production/_ext/161576091/freertos_hooks.o
                0x0003b940                vApplicationStackOverflowHook
                0x0003b952                vApplicationMallocFailedHook
                0x0003b964                vApplicationIdleHook
                0x0003b966                vApplicationTickHook
                0x0003b968                vAssertCalled
 .text          0x0003b984       0x40 c:/program files/microchip/xc32/v4.10/bin/bin/../../lib/gcc/pic32c/8.3.1/thumb/v7e-m+fp/hard/crtbegin.o

.rodata%188     0x0003b9c4       0x40
 .rodata        0x0003b9c4       0x40 build/FreeRTOS/production/_ext/1149484450/drv_miim.o
                0x0003b9c4                DRV_MIIM_OBJECT_BASE_Default

.text.adjust_size%189
                0x0003ba04       0x40
 .text.adjust_size
                0x0003ba04       0x40 c:/program files/microchip/xc32/v4.10/bin/bin/../../lib/gcc/pic32c/8.3.1/../../../../pic32c/lib/thumb/v7e-m+fp/hard\libc-musl.a(malloc.o)

.text.__aeabi_dcmple%190
                0x0003ba44       0x3c
 .text.__aeabi_dcmple
                0x0003ba44       0x3c c:/program files/microchip/xc32/v4.10/bin/bin/../../lib/gcc/pic32c/8.3.1/../../../../pic32c/lib/thumb/v7e-m+fp/hard\libm-emfloat.a(floatasmops_arm.o)
                0x0003ba44                __aeabi_dcmple

.text%191       0x0003ba80       0x38
 .text          0x0003ba80       0x38 build/FreeRTOS/production/_ext/540595297/tcpip_heap_alloc.o
                0x0003ba80                _TCPIP_HEAP_BufferMapNonCached
                0x0003ba82                _TCPIP_HEAP_PointerMapCached
                0x0003ba84                TCPIP_HEAP_Create
                0x0003ba98                TCPIP_HEAP_Delete
                0x0003baa0                TCPIP_HEAP_MallocOutline
                0x0003baa8                TCPIP_HEAP_CallocOutline
                0x0003bab0                TCPIP_HEAP_FreeOutline

.text.__aeabi_dcmpgt%192
                0x0003bab8       0x38
 .text.__aeabi_dcmpgt
                0x0003bab8       0x38 c:/program files/microchip/xc32/v4.10/bin/bin/../../lib/gcc/pic32c/8.3.1/../../../../pic32c/lib/thumb/v7e-m+fp/hard\libm-emfloat.a(floatasmops_arm.o)
                0x0003bab8                __aeabi_dcmpgt

.text.__aeabi_dcmplt%193
                0x0003baf0       0x38
 .text.__aeabi_dcmplt
                0x0003baf0       0x38 c:/program files/microchip/xc32/v4.10/bin/bin/../../lib/gcc/pic32c/8.3.1/../../../../pic32c/lib/thumb/v7e-m+fp/hard\libm-emfloat.a(floatasmops_arm.o)
                0x0003baf0                __aeabi_dcmplt

.text.bin_index%194
                0x0003bb28       0x38
 .text.bin_index
                0x0003bb28       0x38 c:/program files/microchip/xc32/v4.10/bin/bin/../../lib/gcc/pic32c/8.3.1/../../../../pic32c/lib/thumb/v7e-m+fp/hard\libc-musl.a(malloc.o)

.text.__fmt_state%195
                0x0003bb60       0x38
 .text.__fmt_state
                0x0003bb60       0x38 c:/program files/microchip/xc32/v4.10/bin/bin/../../lib/gcc/pic32c/8.3.1/../../../../pic32c/lib/thumb/v7e-m+fp/hard\libc-musl.a(__printf_core.o)
                0x0003bb60                __fmt_state

.text.__aeabi_dcmpeq%196
                0x0003bb98       0x34
 .text.__aeabi_dcmpeq
                0x0003bb98       0x34 c:/program files/microchip/xc32/v4.10/bin/bin/../../lib/gcc/pic32c/8.3.1/../../../../pic32c/lib/thumb/v7e-m+fp/hard\libm-emfloat.a(floatasmops_arm.o)
                0x0003bb98                __aeabi_dcmpeq

.text.memmove%197
                0x0003bbcc       0x34
 .text.memmove  0x0003bbcc       0x34 c:/program files/microchip/xc32/v4.10/bin/bin/../../lib/gcc/pic32c/8.3.1/../../../../pic32c/lib/thumb/v7e-m+fp/hard\libc-musl.a(memmove.o)
                0x0003bbcc                memmove

.text.__gmtime_r%198
                0x0003bc00       0x34
 .text.__gmtime_r
                0x0003bc00       0x34 c:/program files/microchip/xc32/v4.10/bin/bin/../../lib/gcc/pic32c/8.3.1/../../../../pic32c/lib/thumb/v7e-m+fp/hard\libc-musl.a(gmtime_r.o)
                0x0003bc00                __gmtime_r
                0x0003bc00                gmtime_r

.text.stpncpy%199
                0x0003bc34       0x34
 .text.stpncpy  0x0003bc34       0x34 c:/program files/microchip/xc32/v4.10/bin/bin/../../lib/gcc/pic32c/8.3.1/../../../../pic32c/lib/thumb/v7e-m+fp/hard\libc-musl.a(stpncpy.o)
                0x0003bc34                __stpncpy
                0x0003bc34                stpncpy

.text.alloc_rev%200
                0x0003bc68       0x30
 .text.alloc_rev
                0x0003bc68       0x30 c:/program files/microchip/xc32/v4.10/bin/bin/../../lib/gcc/pic32c/8.3.1/../../../../pic32c/lib/thumb/v7e-m+fp/hard\libc-musl.a(malloc.o)

.text%201       0x0003bc98       0x30
 .text          0x0003bc98       0x30 c:/program files/microchip/xc32/v4.10/bin/bin/../../lib/gcc/pic32c/8.3.1/thumb/v7e-m+fp/hard\libgcc.a(_aeabi_uldivmod.o)
                0x0003bc98                __aeabi_uldivmod

.text.trim%202  0x0003bcc8       0x2e
 .text.trim     0x0003bcc8       0x2e c:/program files/microchip/xc32/v4.10/bin/bin/../../lib/gcc/pic32c/8.3.1/../../../../pic32c/lib/thumb/v7e-m+fp/hard\libc-musl.a(malloc.o)

.rodata%203     0x0003bcf8       0x2c
 .rodata        0x0003bcf8       0x2c build/FreeRTOS/production/_ext/548640822/sys_console_uart.o
                0x0003bcf8                sysConsoleUARTDevDesc

.text.alloc_fwd%204
                0x0003bd24       0x2c
 .text.alloc_fwd
                0x0003bd24       0x2c c:/program files/microchip/xc32/v4.10/bin/bin/../../lib/gcc/pic32c/8.3.1/../../../../pic32c/lib/thumb/v7e-m+fp/hard\libc-musl.a(malloc.o)

.text.__clock_gettime%205
                0x0003bd50       0x2c
 .text.__clock_gettime
                0x0003bd50       0x2c c:/program files/microchip/xc32/v4.10/bin/bin/../../lib/gcc/pic32c/8.3.1/../../../../pic32c/lib/thumb/v7e-m+fp/hard\libc-musl.a(clock_gettime.o)
                0x0003bd50                __clock_gettime
                0x0003bd50                clock_gettime

.text.fma%206   0x0003bd7c       0x2c
 .text.fma      0x0003bd7c       0x2c c:/program files/microchip/xc32/v4.10/bin/bin/../../lib/gcc/pic32c/8.3.1/../../../../pic32c/lib/thumb/v7e-m+fp/hard\libm-emfloat.a(lib_a-_FMA.o)
                0x0003bd7c                fma

.text._sbrk%207
                0x0003bda8       0x2c
 .text._sbrk    0x0003bda8       0x2c c:/program files/microchip/xc32/v4.10/bin/bin/../../lib/gcc/pic32c/8.3.1/../../../../pic32c/lib/thumb/v7e-m+fp/hard\libpic32c.a(sbrk.o)
                0x0003bda8                _sbrk

.text.__pop_float%208
                0x0003bdd4       0x2a
 .text.__pop_float
                0x0003bdd4       0x2a c:/program files/microchip/xc32/v4.10/bin/bin/../../lib/gcc/pic32c/8.3.1/../../../../pic32c/lib/thumb/v7e-m+fp/hard\libc-musl.a(__pop_float.o)
                0x0003bdd4                __pop_float_needed
                0x0003bdd4                __pop_float

.rodata%209     0x0003be00       0x28
 .rodata        0x0003be00       0x28 build/FreeRTOS/production/_ext/1609394304/crypto.o

.text%210       0x0003be28       0x28
 .text          0x0003be28       0x28 build/FreeRTOS/production/_ext/1494734144/plib_trng.o
                0x0003be28                TRNG_Initialize
                0x0003be2a                TRNG_ReadData

.text.__aeabi_i2d%211
                0x0003be50       0x28
 .text.__aeabi_i2d
                0x0003be50       0x28 c:/program files/microchip/xc32/v4.10/bin/bin/../../lib/gcc/pic32c/8.3.1/../../../../pic32c/lib/thumb/v7e-m+fp/hard\libm-emfloat.a(floatasmops_arm.o)
                0x0003be50                __aeabi_i2d

.text.__uflow%212
                0x0003be78       0x28
 .text.__uflow  0x0003be78       0x28 c:/program files/microchip/xc32/v4.10/bin/bin/../../lib/gcc/pic32c/8.3.1/../../../../pic32c/lib/thumb/v7e-m+fp/hard\libc-musl.a(__uflow.o)
                0x0003be78                __uflow

.text.__shlim%213
                0x0003bea0       0x26
 .text.__shlim  0x0003bea0       0x26 c:/program files/microchip/xc32/v4.10/bin/bin/../../lib/gcc/pic32c/8.3.1/../../../../pic32c/lib/thumb/v7e-m+fp/hard\libc-musl.a(shgetc.o)
                0x0003bea0                __shlim

.text.__string_out%214
                0x0003bec6       0x26
 .text.__string_out
                0x0003bec6       0x26 c:/program files/microchip/xc32/v4.10/bin/bin/../../lib/gcc/pic32c/8.3.1/../../../../pic32c/lib/thumb/v7e-m+fp/hard\libc-musl.a(__printf_core.o)
                0x0003bec6                __out

.rodata%215     0x0003beec       0x24
 .rodata        0x0003beec       0x24 build/FreeRTOS/production/_ext/540595297/tcpip_heap_internal.o

.text%216       0x0003bf10       0x24
 .text          0x0003bf10       0x24 build/FreeRTOS/production/_ext/1093154855/sys_reset.o
                0x0003bf10                SYS_RESET_SoftwareReset

.text.__aeabi_d2uiz%217
                0x0003bf34       0x24
 .text.__aeabi_d2uiz
                0x0003bf34       0x24 c:/program files/microchip/xc32/v4.10/bin/bin/../../lib/gcc/pic32c/8.3.1/../../../../pic32c/lib/thumb/v7e-m+fp/hard\libm-emfloat.a(floatasmops_arm.o)
                0x0003bf34                __aeabi_d2uiz

.text.strncmp%218
                0x0003bf58       0x24
 .text.strncmp  0x0003bf58       0x24 c:/program files/microchip/xc32/v4.10/bin/bin/../../lib/gcc/pic32c/8.3.1/../../../../pic32c/lib/thumb/v7e-m+fp/hard\libc-musl.a(strncmp.o)
                0x0003bf58                strncmp

.rodata%219     0x0003bf7c       0x20
 .rodata        0x0003bf7c       0x20 build/FreeRTOS/production/_ext/540595297/tcpip_packet.o

.text.lock_bin%220
                0x0003bf9c       0x20
 .text.lock_bin
                0x0003bf9c       0x20 c:/program files/microchip/xc32/v4.10/bin/bin/../../lib/gcc/pic32c/8.3.1/../../../../pic32c/lib/thumb/v7e-m+fp/hard\libc-musl.a(malloc.o)

.text.__aeabi_ui2d%221
                0x0003bfbc       0x1c
 .text.__aeabi_ui2d
                0x0003bfbc       0x1c c:/program files/microchip/xc32/v4.10/bin/bin/../../lib/gcc/pic32c/8.3.1/../../../../pic32c/lib/thumb/v7e-m+fp/hard\libm-emfloat.a(floatasmops_arm.o)
                0x0003bfbc                __aeabi_ui2d

.text.isxdigit%222
                0x0003bfd8       0x1c
 .text.isxdigit
                0x0003bfd8       0x1c c:/program files/microchip/xc32/v4.10/bin/bin/../../lib/gcc/pic32c/8.3.1/../../../../pic32c/lib/thumb/v7e-m+fp/hard\libc-musl.a(isxdigit.o)
                0x0003bfd8                isxdigit

.text.memcmp%223
                0x0003bff4       0x1c
 .text.memcmp   0x0003bff4       0x1c c:/program files/microchip/xc32/v4.10/bin/bin/../../lib/gcc/pic32c/8.3.1/../../../../pic32c/lib/thumb/v7e-m+fp/hard\libc-musl.a(memcmp.o)
                0x0003bff4                memcmp

.text.vfprintf%224
                0x0003c010       0x1c
 .text.vfprintf
                0x0003c010       0x1c c:/program files/microchip/xc32/v4.10/bin/bin/../../lib/gcc/pic32c/8.3.1/../../../../pic32c/lib/thumb/v7e-m+fp/hard\libc-musl.a(vfprintf.o)
                0x0003c010                vfprintf

.text.__memrchr%225
                0x0003c02c       0x1c
 .text.__memrchr
                0x0003c02c       0x1c c:/program files/microchip/xc32/v4.10/bin/bin/../../lib/gcc/pic32c/8.3.1/../../../../pic32c/lib/thumb/v7e-m+fp/hard\libc-musl.a(memrchr.o)
                0x0003c02c                __memrchr
                0x0003c02c                memrchr

.rodata%226     0x0003c048       0x1c
 .rodata        0x0003c048       0x1c c:/program files/microchip/xc32/v4.10/bin/bin/../../lib/gcc/pic32c/8.3.1/../../../../pic32c/lib/thumb/v7e-m+fp/hard\libc-musl.a(__printf_core.o)

.text.isalnum%227
                0x0003c064       0x1a
 .text.isalnum  0x0003c064       0x1a c:/program files/microchip/xc32/v4.10/bin/bin/../../lib/gcc/pic32c/8.3.1/../../../../pic32c/lib/thumb/v7e-m+fp/hard\libc-musl.a(isalnum.o)
                0x0003c064                isalnum

.text.snprintf%228
                0x0003c07e       0x1a
 .text.snprintf
                0x0003c07e       0x1a c:/program files/microchip/xc32/v4.10/bin/bin/../../lib/gcc/pic32c/8.3.1/../../../../pic32c/lib/thumb/v7e-m+fp/hard\libc-musl.a(snprintf.o)
                0x0003c07e                __snprintf_dis
                0x0003c07e                snprintf

.text.sprintf%229
                0x0003c098       0x1a
 .text.sprintf  0x0003c098       0x1a c:/program files/microchip/xc32/v4.10/bin/bin/../../lib/gcc/pic32c/8.3.1/../../../../pic32c/lib/thumb/v7e-m+fp/hard\libc-musl.a(sprintf.o)
                0x0003c098                __sprintf_dis
                0x0003c098                sprintf
                0x0003c098                __sprintf_oxX
                0x0003c098                __sprintf_di

.text%230       0x0003c0b4       0x18
 .text          0x0003c0b4       0x18 build/FreeRTOS/production/_ext/172253694/crypt_wolfcryptcb.o
                0x0003c0b4                CRYPT_WCCB_Callback
                0x0003c0ba                CRYPT_WCCB_Initialize

.text.rand%231  0x0003c0cc       0x18
 .text.rand     0x0003c0cc       0x18 c:/program files/microchip/xc32/v4.10/bin/bin/../../lib/gcc/pic32c/8.3.1/../../../../pic32c/lib/thumb/v7e-m+fp/hard\libc-musl.a(rand.o)
                0x0003c0cc                rand

.text.strcmp%232
                0x0003c0e4       0x18
 .text.strcmp   0x0003c0e4       0x18 c:/program files/microchip/xc32/v4.10/bin/bin/../../lib/gcc/pic32c/8.3.1/../../../../pic32c/lib/thumb/v7e-m+fp/hard\libc-musl.a(strcmp.o)
                0x0003c0e4                strcmp

.text.strrchr%233
                0x0003c0fc       0x18
 .text.strrchr  0x0003c0fc       0x18 c:/program files/microchip/xc32/v4.10/bin/bin/../../lib/gcc/pic32c/8.3.1/../../../../pic32c/lib/thumb/v7e-m+fp/hard\libc-musl.a(strrchr.o)
                0x0003c0fc                strrchr

.text.__syscall_ret%234
                0x0003c114       0x18
 .text.__syscall_ret
                0x0003c114       0x18 c:/program files/microchip/xc32/v4.10/bin/bin/../../lib/gcc/pic32c/8.3.1/../../../../pic32c/lib/thumb/v7e-m+fp/hard\libc-musl.a(syscall_ret.o)
                0x0003c114                __syscall_ret

.text.__expand_heap%235
                0x0003c12c       0x16
 .text.__expand_heap
                0x0003c12c       0x16 c:/program files/microchip/xc32/v4.10/bin/bin/../../lib/gcc/pic32c/8.3.1/../../../../pic32c/lib/thumb/v7e-m+fp/hard\libc-musl.a(expand_heap.o)
                0x0003c12c                __expand_heap

.text.memcpy%236
                0x0003c142       0x16
 .text.memcpy   0x0003c142       0x16 c:/program files/microchip/xc32/v4.10/bin/bin/../../lib/gcc/pic32c/8.3.1/../../../../pic32c/lib/thumb/v7e-m+fp/hard\libc-musl.a(memcpy.o)
                0x0003c142                memcpy

.text.time%237  0x0003c158       0x16
 .text.time     0x0003c158       0x16 c:/program files/microchip/xc32/v4.10/bin/bin/../../lib/gcc/pic32c/8.3.1/../../../../pic32c/lib/thumb/v7e-m+fp/hard\libc-musl.a(time.o)
                0x0003c158                time

.text.strtoul%238
                0x0003c16e       0x14
 .text.strtoul  0x0003c16e       0x14 c:/program files/microchip/xc32/v4.10/bin/bin/../../lib/gcc/pic32c/8.3.1/../../../../pic32c/lib/thumb/v7e-m+fp/hard\libc-musl.a(strtol.o)
                0x0003c16e                __strtoul_internal
                0x0003c16e                strtoul

.text.strtol%239
                0x0003c182       0x14
 .text.strtol   0x0003c182       0x14 c:/program files/microchip/xc32/v4.10/bin/bin/../../lib/gcc/pic32c/8.3.1/../../../../pic32c/lib/thumb/v7e-m+fp/hard\libc-musl.a(strtol.o)
                0x0003c182                strtol
                0x0003c182                __strtol_internal

.text.strchr%240
                0x0003c196       0x14
 .text.strchr   0x0003c196       0x14 c:/program files/microchip/xc32/v4.10/bin/bin/../../lib/gcc/pic32c/8.3.1/../../../../pic32c/lib/thumb/v7e-m+fp/hard\libc-musl.a(strchr.o)
                0x0003c196                strchr

.text.stpcpy%241
                0x0003c1aa       0x12
 .text.stpcpy   0x0003c1aa       0x12 c:/program files/microchip/xc32/v4.10/bin/bin/../../lib/gcc/pic32c/8.3.1/../../../../pic32c/lib/thumb/v7e-m+fp/hard\libc-musl.a(stpcpy.o)
                0x0003c1aa                __stpcpy
                0x0003c1aa                stpcpy

.text.memset%242
                0x0003c1bc       0x10
 .text.memset   0x0003c1bc       0x10 c:/program files/microchip/xc32/v4.10/bin/bin/../../lib/gcc/pic32c/8.3.1/../../../../pic32c/lib/thumb/v7e-m+fp/hard\libc-musl.a(memset.o)
                0x0003c1bc                memset

.text.strlen%243
                0x0003c1cc       0x10
 .text.strlen   0x0003c1cc       0x10 c:/program files/microchip/xc32/v4.10/bin/bin/../../lib/gcc/pic32c/8.3.1/../../../../pic32c/lib/thumb/v7e-m+fp/hard\libc-musl.a(strlen.o)
                0x0003c1cc                strlen

.rodata%244     0x0003c1dc       0x20
 .rodata        0x0003c1dc       0x10 c:/program files/microchip/xc32/v4.10/bin/bin/../../lib/gcc/pic32c/8.3.1/../../../../pic32c/lib/thumb/v7e-m+fp/hard\libc-musl.a(__fmt_a.o)
 .rodata        0x0003c1ec       0x10 c:/program files/microchip/xc32/v4.10/bin/bin/../../lib/gcc/pic32c/8.3.1/../../../../pic32c/lib/thumb/v7e-m+fp/hard\libc-musl.a(__fmt_fp.o)

.text%246       0x0003c1fc        0xe
 .text          0x0003c1fc        0xe build/FreeRTOS/production/_ext/1360937237/main.o
                0x0003c1fc                main

.text.tolower%247
                0x0003c20a        0xe
 .text.tolower  0x0003c20a        0xe c:/program files/microchip/xc32/v4.10/bin/bin/../../lib/gcc/pic32c/8.3.1/../../../../pic32c/lib/thumb/v7e-m+fp/hard\libc-musl.a(tolower.o)
                0x0003c20a                tolower

.text.toupper%248
                0x0003c218        0xe
 .text.toupper  0x0003c218        0xe c:/program files/microchip/xc32/v4.10/bin/bin/../../lib/gcc/pic32c/8.3.1/../../../../pic32c/lib/thumb/v7e-m+fp/hard\libc-musl.a(toupper.o)
                0x0003c218                toupper

.text%249       0x00038694        0xc
 .text          0x00038694        0xc build/FreeRTOS/production/_ext/161576091/exceptions.o
                0x00038694                NonMaskableInt_Handler
                0x00038696                HardFault_Handler
                0x00038698                DebugMonitor_Handler
                0x0003869a                MemoryManagement_Handler
                0x0003869c                BusFault_Handler
                0x0003869e                UsageFault_Handler

.text.srand%250
                0x0003c228        0xc
 .text.srand    0x0003c228        0xc c:/program files/microchip/xc32/v4.10/bin/bin/../../lib/gcc/pic32c/8.3.1/../../../../pic32c/lib/thumb/v7e-m+fp/hard\libc-musl.a(rand.o)
                0x0003c228                srand

.text.vsprintf%251
                0x0003c234        0xc
 .text.vsprintf
                0x0003c234        0xc c:/program files/microchip/xc32/v4.10/bin/bin/../../lib/gcc/pic32c/8.3.1/../../../../pic32c/lib/thumb/v7e-m+fp/hard\libc-musl.a(vsprintf.o)
                0x0003c234                vsprintf

.text.strcpy%252
                0x0003c240        0xc
 .text.strcpy   0x0003c240        0xc c:/program files/microchip/xc32/v4.10/bin/bin/../../lib/gcc/pic32c/8.3.1/../../../../pic32c/lib/thumb/v7e-m+fp/hard\libc-musl.a(strcpy.o)
                0x0003c240                strcpy

.text.strncpy%253
                0x0003c24c        0xc
 .text.strncpy  0x0003c24c        0xc c:/program files/microchip/xc32/v4.10/bin/bin/../../lib/gcc/pic32c/8.3.1/../../../../pic32c/lib/thumb/v7e-m+fp/hard\libc-musl.a(strncpy.o)
                0x0003c24c                strncpy

.text.gmtime%254
                0x0003c258        0xc
 .text.gmtime   0x0003c258        0xc c:/program files/microchip/xc32/v4.10/bin/bin/../../lib/gcc/pic32c/8.3.1/../../../../pic32c/lib/thumb/v7e-m+fp/hard\libc-musl.a(gmtime.o)
                0x0003c258                gmtime

.rodata%255     0x0003c264       0x1c
 .rodata        0x0003c264        0xc c:/program files/microchip/xc32/v4.10/bin/bin/../../lib/gcc/pic32c/8.3.1/../../../../pic32c/lib/thumb/v7e-m+fp/hard\libc-musl.a(__secs_to_tm.o)
 .rodata        0x0003c270        0x8 build/FreeRTOS/production/_ext/404212886/FreeRTOS_tasks.o
 .rodata        0x0003c278        0x8 build/FreeRTOS/production/_ext/1664057780/wolfmath.o
                0x0003c278                wc_off_on_addr

.text.__aeabi_dsub%258
                0x0003c280        0x8
 .text.__aeabi_dsub
                0x0003c280        0x8 c:/program files/microchip/xc32/v4.10/bin/bin/../../lib/gcc/pic32c/8.3.1/../../../../pic32c/lib/thumb/v7e-m+fp/hard\libm-emfloat.a(floatasmops_arm.o)
                0x0003c280                __aeabi_dsub

.rodata%259     0x0003c288        0x7
 .rodata        0x0003c288        0x7 c:/program files/microchip/xc32/v4.10/bin/bin/../../lib/gcc/pic32c/8.3.1/../../../../pic32c/lib/thumb/v7e-m+fp/hard\libc-musl.a(__fmt_s.o)

.text.__gettimeofday%260
                0x0003c290        0x6
 .text.__gettimeofday
                0x0003c290        0x6 c:/program files/microchip/xc32/v4.10/bin/bin/../../lib/gcc/pic32c/8.3.1/../../../../pic32c/lib/thumb/v7e-m+fp/hard\libc-musl.a(gettimeofday.o)
                0x0003c290                gettimeofday

.rodata%261     0x00034dd4        0x4
 .rodata        0x00034dd4        0x4 c:/program files/microchip/xc32/v4.10/bin/bin/../../lib/gcc/pic32c/8.3.1/../../../../pic32c/lib/thumb/v7e-m+fp/hard\libc-musl.a(gmtime_r.o)

.text%262       0x0003a62c        0x4
 .text          0x0003a62c        0x4 c:/program files/microchip/xc32/v4.10/bin/bin/../../lib/gcc/pic32c/8.3.1/thumb/v7e-m+fp/hard\libgcc.a(_dvmd_tls.o)
                0x0003a62c                __aeabi_idiv0
                0x0003a62c                __aeabi_ldiv0

.text%263       0x0002247a        0x2
 .text          0x0002247a        0x2 build/FreeRTOS/production/_ext/894153619/plib_evsys.o
                0x0002247a                EVSYS_Initialize

.text.Dummy_Handler%264
                0x0003491e        0x2
 .text.Dummy_Handler
                0x0003491e        0x2 build/FreeRTOS/production/_ext/161576091/interrupts.o
                0x0003491e                EIC_EXTINT_9_Handler
                0x0003491e                TCC0_MC5_Handler
                0x0003491e                SERCOM0_2_Handler
                0x0003491e                USB_SOF_HSOF_Handler
                0x0003491e                TCC4_OTHER_Handler
                0x0003491e                TCC2_MC2_Handler
                0x0003491e                EVSYS_0_Handler
                0x0003491e                TRNG_Handler
                0x0003491e                TC2_Handler
                0x0003491e                USB_TRCPT0_Handler
                0x0003491e                DAC_OTHER_Handler
                0x0003491e                AC_Handler
                0x0003491e                DAC_EMPTY_0_Handler
                0x0003491e                DMAC_OTHER_Handler
                0x0003491e                EIC_EXTINT_5_Handler
                0x0003491e                SERCOM3_1_Handler
                0x0003491e                SERCOM4_OTHER_Handler
                0x0003491e                SERCOM3_2_Handler
                0x0003491e                EIC_EXTINT_6_Handler
                0x0003491e                TC7_Handler
                0x0003491e                TCC4_MC0_Handler
                0x0003491e                EVSYS_3_Handler
                0x0003491e                QSPI_Handler
                0x0003491e                TCC2_MC0_Handler
                0x0003491e                PDEC_OTHER_Handler
                0x0003491e                TCC3_MC0_Handler
                0x0003491e                PDEC_MC1_Handler
                0x0003491e                TCC2_MC1_Handler
                0x0003491e                OSCCTRL_XOSC1_Handler
                0x0003491e                PDEC_MC0_Handler
                0x0003491e                EIC_EXTINT_4_Handler
                0x0003491e                EIC_EXTINT_7_Handler
                0x0003491e                SERCOM0_OTHER_Handler
                0x0003491e                EVSYS_OTHER_Handler
                0x0003491e                SERCOM0_0_Handler
                0x0003491e                RTC_Handler
                0x0003491e                SERCOM4_0_Handler
                0x0003491e                TCC1_MC0_Handler
                0x0003491e                TCC2_OTHER_Handler
                0x0003491e                EIC_EXTINT_11_Handler
                0x0003491e                SUPC_BODDET_Handler
                0x0003491e                EIC_EXTINT_14_Handler
                0x0003491e                OSC32KCTRL_Handler
                0x0003491e                SERCOM6_2_Handler
                0x0003491e                EVSYS_1_Handler
                0x0003491e                TC6_Handler
                0x0003491e                TCC4_MC1_Handler
                0x0003491e                DMAC_0_Handler
                0x0003491e                SUPC_OTHER_Handler
                0x0003491e                WDT_Handler
                0x0003491e                CAN0_Handler
                0x0003491e                EIC_EXTINT_15_Handler
                0x0003491e                SERCOM6_0_Handler
                0x0003491e                EIC_EXTINT_1_Handler
                0x0003491e                TCC3_MC1_Handler
                0x0003491e                SERCOM5_0_Handler
                0x0003491e                TC4_Handler
                0x0003491e                TC1_Handler
                0x0003491e                TCC1_MC1_Handler
                0x0003491e                EIC_EXTINT_0_Handler
                0x0003491e                TCC1_OTHER_Handler
                0x0003491e                PAC_Handler
                0x0003491e                SERCOM4_1_Handler
                0x0003491e                TC3_Handler
                0x0003491e                Dummy_Handler
                0x0003491e                DAC_RESRDY_0_Handler
                0x0003491e                SERCOM5_1_Handler
                0x0003491e                DMAC_2_Handler
                0x0003491e                TCC0_MC4_Handler
                0x0003491e                USB_TRCPT1_Handler
                0x0003491e                SERCOM0_1_Handler
                0x0003491e                TCC0_MC3_Handler
                0x0003491e                EIC_EXTINT_12_Handler
                0x0003491e                OSCCTRL_DPLL0_Handler
                0x0003491e                SERCOM6_OTHER_Handler
                0x0003491e                SERCOM7_1_Handler
                0x0003491e                SERCOM5_OTHER_Handler
                0x0003491e                PM_Handler
                0x0003491e                OSCCTRL_DFLL_Handler
                0x0003491e                SERCOM7_0_Handler
                0x0003491e                DAC_RESRDY_1_Handler
                0x0003491e                DMAC_1_Handler
                0x0003491e                USB_OTHER_Handler
                0x0003491e                SDHC1_Handler
                0x0003491e                SERCOM7_2_Handler
                0x0003491e                CAN1_Handler
                0x0003491e                TCC0_OTHER_Handler
                0x0003491e                EIC_EXTINT_10_Handler
                0x0003491e                TCC1_MC3_Handler
                0x0003491e                OSCCTRL_XOSC0_Handler
                0x0003491e                SERCOM6_1_Handler
                0x0003491e                TCC0_MC0_Handler
                0x0003491e                EIC_EXTINT_2_Handler
                0x0003491e                SDHC0_Handler
                0x0003491e                I2S_Handler
                0x0003491e                PCC_Handler
                0x0003491e                TCC3_OTHER_Handler
                0x0003491e                EIC_EXTINT_13_Handler
                0x0003491e                PUKCC_Handler
                0x0003491e                SERCOM2_1_Handler
                0x0003491e                SERCOM3_0_Handler
                0x0003491e                SERCOM4_2_Handler
                0x0003491e                TCC1_MC2_Handler
                0x0003491e                ADC1_RESRDY_Handler
                0x0003491e                NVMCTRL_1_Handler
                0x0003491e                SERCOM5_2_Handler
                0x0003491e                SERCOM2_2_Handler
                0x0003491e                DAC_EMPTY_1_Handler
                0x0003491e                ADC1_OTHER_Handler
                0x0003491e                OSCCTRL_DPLL1_Handler
                0x0003491e                EIC_EXTINT_3_Handler
                0x0003491e                SERCOM3_OTHER_Handler
                0x0003491e                EIC_EXTINT_8_Handler
                0x0003491e                NVMCTRL_0_Handler
                0x0003491e                ADC0_RESRDY_Handler
                0x0003491e                ADC0_OTHER_Handler
                0x0003491e                MCLK_Handler
                0x0003491e                SERCOM7_OTHER_Handler
                0x0003491e                EVSYS_2_Handler
                0x0003491e                SERCOM2_OTHER_Handler
                0x0003491e                FREQM_Handler
                0x0003491e                TCC0_MC1_Handler
                0x0003491e                DMAC_3_Handler
                0x0003491e                RAMECC_Handler
                0x0003491e                TC5_Handler
                0x0003491e                SERCOM2_0_Handler
                0x0003491e                AES_Handler
                0x0003491e                ICM_Handler
                0x0003491e                TCC0_MC2_Handler

.text%265       0x00038286        0x2
 .text          0x00038286        0x2 build/FreeRTOS/production/_ext/161576091/startup_xc32.o
                0x00038286                _on_reset
                0x00038286                _on_bootstrap
                0x00038286                __xc32_on_reset
                0x00038286                Dummy_App_Func
                0x00038286                __xc32_on_bootstrap

.text.__dummy%266
                0x0003a34a        0x2
 .text.__dummy  0x0003a34a        0x2 c:/program files/microchip/xc32/v4.10/bin/bin/../../lib/gcc/pic32c/8.3.1/../../../../pic32c/lib/thumb/v7e-m+fp/hard\libc-musl.a(__libc_start_main.o)
                0x0003a34a                __init_stdio
                0x0003a34a                __init_host
